

Microchip MPLAB XC8 Assembler V2.10 build 88905656 
                                                                                               Sun Jun 28 23:26:54 2020

Microchip MPLAB XC8 C Compiler v2.10 (Free license) build 20190730164152 Og1 
     1                           	processor	16F886
     2                           	opt	pw 120
     3                           	opt	flic
     4                           	psect	idataBANK0,global,class=CODE,delta=2
     5                           	psect	strings,global,class=STRING,delta=2
     6                           	psect	cinit,global,class=CODE,merge=1,delta=2
     7                           	psect	bitbssBANK0,global,bit,class=BANK0,space=1,delta=1
     8                           	psect	bssBANK0,global,class=BANK0,space=1,delta=1
     9                           	psect	dataBANK0,global,class=BANK0,space=1,delta=1
    10                           	psect	bssBANK3,global,class=BANK3,space=1,delta=1
    11                           	psect	cstackBANK3,global,class=BANK3,space=1,delta=1
    12                           	psect	cstackBANK1,global,class=BANK1,space=1,delta=1
    13                           	psect	cstackCOMMON,global,class=COMMON,space=1,delta=1
    14                           	psect	cstackBANK0,global,class=BANK0,space=1,delta=1
    15                           	psect	maintext,global,class=CODE,split=1,delta=2
    16                           	psect	text1,local,class=CODE,merge=1,delta=2
    17                           	psect	text2,local,class=CODE,merge=1,delta=2
    18                           	psect	text3,local,class=CODE,merge=1,delta=2
    19                           	psect	text4,local,class=CODE,merge=1,delta=2,group=1
    20                           	psect	text5,local,class=CODE,merge=1,delta=2,group=1
    21                           	psect	text6,local,class=CODE,merge=1,delta=2
    22                           	psect	text7,local,class=CODE,merge=1,delta=2,group=2
    23                           	psect	text8,local,class=CODE,merge=1,delta=2
    24                           	psect	text9,local,class=CODE,merge=1,delta=2
    25                           	psect	text10,local,class=CODE,merge=1,delta=2,group=1
    26                           	psect	text11,local,class=CODE,merge=1,delta=2,group=1
    27                           	psect	text12,local,class=CODE,merge=1,delta=2,group=1
    28                           	psect	text13,local,class=CODE,merge=1,delta=2,group=1
    29                           	psect	text14,local,class=CODE,merge=1,delta=2,group=1
    30                           	psect	text15,local,class=CODE,merge=1,delta=2,group=1
    31                           	psect	text16,local,class=CODE,merge=1,delta=2,group=1
    32                           	psect	text17,local,class=CODE,merge=1,delta=2
    33                           	psect	text18,local,class=CODE,merge=1,delta=2
    34                           	psect	text19,local,class=CODE,merge=1,delta=2
    35                           	psect	text20,local,class=CODE,merge=1,delta=2
    36                           	psect	text21,local,class=CODE,merge=1,delta=2
    37                           	psect	text22,local,class=CODE,merge=1,delta=2
    38                           	psect	text23,local,class=CODE,merge=1,delta=2
    39                           	psect	text24,local,class=CODE,merge=1,delta=2
    40                           	psect	text25,local,class=CODE,merge=1,delta=2
    41                           	psect	text26,local,class=CODE,merge=1,delta=2
    42                           	psect	text27,local,class=CODE,merge=1,delta=2
    43                           	psect	text28,local,class=CODE,merge=1,delta=2
    44                           	psect	text29,local,class=CODE,merge=1,delta=2
    45                           	psect	intentry,global,class=CODE,delta=2
    46                           	psect	text30,local,class=CODE,merge=1,delta=2
    47                           	psect	text31,local,class=CODE,merge=1,delta=2
    48                           	psect	text32,local,class=CODE,merge=1,delta=2
    49                           	psect	text33,local,class=CODE,merge=1,delta=2
    50                           	psect	text34,local,class=CODE,merge=1,delta=2
    51                           	psect	text35,local,class=CODE,merge=1,delta=2
    52                           	psect	text36,local,class=CODE,merge=1,delta=2
    53                           	psect	text37,local,class=CODE,merge=1,delta=2
    54                           	dabs	1,0x7E,2
    55  0000                     
    56                           ; Version 2.10
    57                           ; Generated 31/07/2019 GMT
    58                           ; 
    59                           ; Copyright © 2019, Microchip Technology Inc. and its subsidiaries ("Microchip")
    60                           ; All rights reserved.
    61                           ; 
    62                           ; This software is developed by Microchip Technology Inc. and its subsidiaries ("Microch
      +                          ip").
    63                           ; 
    64                           ; Redistribution and use in source and binary forms, with or without modification, are
    65                           ; permitted provided that the following conditions are met:
    66                           ; 
    67                           ;     1. Redistributions of source code must retain the above copyright notice, this lis
      +                          t of
    68                           ;        conditions and the following disclaimer.
    69                           ; 
    70                           ;     2. Redistributions in binary form must reproduce the above copyright notice, this 
      +                          list
    71                           ;        of conditions and the following disclaimer in the documentation and/or other
    72                           ;        materials provided with the distribution.
    73                           ; 
    74                           ;     3. Microchip's name may not be used to endorse or promote products derived from th
      +                          is
    75                           ;        software without specific prior written permission.
    76                           ; 
    77                           ; THIS SOFTWARE IS PROVIDED BY MICROCHIP "AS IS" AND ANY EXPRESS OR IMPLIED WARRANTIES,
    78                           ; INCLUDING, BUT NOT LIMITED TO, THE IMPLIED WARRANTIES OF MERCHANTABILITY AND FITNESS F
      +                          OR
    79                           ; PURPOSE ARE DISCLAIMED.  IN NO EVENT SHALL MICROCHIP BE LIABLE FOR ANY DIRECT, INDIREC
      +                          T,
    80                           ; INCIDENTAL, SPECIAL, EXEMPLARY, OR CONSEQUENTIAL DAMAGES (INCLUDING BUT NOT LIMITED TO
    81                           ; PROCUREMENT OF SUBSTITUTE GOODS OR SERVICES; LOSS OF USE, DATA OR PROFITS; OR BUSINESS
    82                           ; INTERRUPTION) HOWSOEVER CAUSED AND ON ANY THEORY OF LIABILITY, WHETHER IN CONTRACT, ST
      +                          RICT
    83                           ; LIABILITY, OR TORT (INCLUDING NEGLIGENCE OR OTHERWISE) ARISING IN ANY WAY OUT OF THE U
      +                          SE OF
    84                           ; THIS SOFTWARE, EVEN IF ADVISED OF THE POSSIBILITY OF SUCH DAMAGE.
    85                           ; 
    86                           ; 
    87                           ; Code-generator required, PIC16F886 Definitions
    88                           ; 
    89                           ; SFR Addresses
    90  0000                     	;# 
    91  0001                     	;# 
    92  0002                     	;# 
    93  0003                     	;# 
    94  0004                     	;# 
    95  0005                     	;# 
    96  0006                     	;# 
    97  0007                     	;# 
    98  0009                     	;# 
    99  000A                     	;# 
   100  000B                     	;# 
   101  000C                     	;# 
   102  000D                     	;# 
   103  000E                     	;# 
   104  000E                     	;# 
   105  000F                     	;# 
   106  0010                     	;# 
   107  0011                     	;# 
   108  0012                     	;# 
   109  0013                     	;# 
   110  0014                     	;# 
   111  0015                     	;# 
   112  0015                     	;# 
   113  0016                     	;# 
   114  0017                     	;# 
   115  0018                     	;# 
   116  0019                     	;# 
   117  001A                     	;# 
   118  001B                     	;# 
   119  001B                     	;# 
   120  001C                     	;# 
   121  001D                     	;# 
   122  001E                     	;# 
   123  001F                     	;# 
   124  0081                     	;# 
   125  0085                     	;# 
   126  0086                     	;# 
   127  0087                     	;# 
   128  0089                     	;# 
   129  008C                     	;# 
   130  008D                     	;# 
   131  008E                     	;# 
   132  008F                     	;# 
   133  0090                     	;# 
   134  0091                     	;# 
   135  0092                     	;# 
   136  0093                     	;# 
   137  0093                     	;# 
   138  0093                     	;# 
   139  0094                     	;# 
   140  0095                     	;# 
   141  0096                     	;# 
   142  0097                     	;# 
   143  0098                     	;# 
   144  0099                     	;# 
   145  009A                     	;# 
   146  009B                     	;# 
   147  009C                     	;# 
   148  009D                     	;# 
   149  009E                     	;# 
   150  009F                     	;# 
   151  0105                     	;# 
   152  0107                     	;# 
   153  0108                     	;# 
   154  0109                     	;# 
   155  010C                     	;# 
   156  010C                     	;# 
   157  010D                     	;# 
   158  010E                     	;# 
   159  010F                     	;# 
   160  0185                     	;# 
   161  0187                     	;# 
   162  0188                     	;# 
   163  0189                     	;# 
   164  018C                     	;# 
   165  018D                     	;# 
   166  0000                     	;# 
   167  0001                     	;# 
   168  0002                     	;# 
   169  0003                     	;# 
   170  0004                     	;# 
   171  0005                     	;# 
   172  0006                     	;# 
   173  0007                     	;# 
   174  0009                     	;# 
   175  000A                     	;# 
   176  000B                     	;# 
   177  000C                     	;# 
   178  000D                     	;# 
   179  000E                     	;# 
   180  000E                     	;# 
   181  000F                     	;# 
   182  0010                     	;# 
   183  0011                     	;# 
   184  0012                     	;# 
   185  0013                     	;# 
   186  0014                     	;# 
   187  0015                     	;# 
   188  0015                     	;# 
   189  0016                     	;# 
   190  0017                     	;# 
   191  0018                     	;# 
   192  0019                     	;# 
   193  001A                     	;# 
   194  001B                     	;# 
   195  001B                     	;# 
   196  001C                     	;# 
   197  001D                     	;# 
   198  001E                     	;# 
   199  001F                     	;# 
   200  0081                     	;# 
   201  0085                     	;# 
   202  0086                     	;# 
   203  0087                     	;# 
   204  0089                     	;# 
   205  008C                     	;# 
   206  008D                     	;# 
   207  008E                     	;# 
   208  008F                     	;# 
   209  0090                     	;# 
   210  0091                     	;# 
   211  0092                     	;# 
   212  0093                     	;# 
   213  0093                     	;# 
   214  0093                     	;# 
   215  0094                     	;# 
   216  0095                     	;# 
   217  0096                     	;# 
   218  0097                     	;# 
   219  0098                     	;# 
   220  0099                     	;# 
   221  009A                     	;# 
   222  009B                     	;# 
   223  009C                     	;# 
   224  009D                     	;# 
   225  009E                     	;# 
   226  009F                     	;# 
   227  0105                     	;# 
   228  0107                     	;# 
   229  0108                     	;# 
   230  0109                     	;# 
   231  010C                     	;# 
   232  010C                     	;# 
   233  010D                     	;# 
   234  010E                     	;# 
   235  010F                     	;# 
   236  0185                     	;# 
   237  0187                     	;# 
   238  0188                     	;# 
   239  0189                     	;# 
   240  018C                     	;# 
   241  018D                     	;# 
   242  0000                     	;# 
   243  0001                     	;# 
   244  0002                     	;# 
   245  0003                     	;# 
   246  0004                     	;# 
   247  0005                     	;# 
   248  0006                     	;# 
   249  0007                     	;# 
   250  0009                     	;# 
   251  000A                     	;# 
   252  000B                     	;# 
   253  000C                     	;# 
   254  000D                     	;# 
   255  000E                     	;# 
   256  000E                     	;# 
   257  000F                     	;# 
   258  0010                     	;# 
   259  0011                     	;# 
   260  0012                     	;# 
   261  0013                     	;# 
   262  0014                     	;# 
   263  0015                     	;# 
   264  0015                     	;# 
   265  0016                     	;# 
   266  0017                     	;# 
   267  0018                     	;# 
   268  0019                     	;# 
   269  001A                     	;# 
   270  001B                     	;# 
   271  001B                     	;# 
   272  001C                     	;# 
   273  001D                     	;# 
   274  001E                     	;# 
   275  001F                     	;# 
   276  0081                     	;# 
   277  0085                     	;# 
   278  0086                     	;# 
   279  0087                     	;# 
   280  0089                     	;# 
   281  008C                     	;# 
   282  008D                     	;# 
   283  008E                     	;# 
   284  008F                     	;# 
   285  0090                     	;# 
   286  0091                     	;# 
   287  0092                     	;# 
   288  0093                     	;# 
   289  0093                     	;# 
   290  0093                     	;# 
   291  0094                     	;# 
   292  0095                     	;# 
   293  0096                     	;# 
   294  0097                     	;# 
   295  0098                     	;# 
   296  0099                     	;# 
   297  009A                     	;# 
   298  009B                     	;# 
   299  009C                     	;# 
   300  009D                     	;# 
   301  009E                     	;# 
   302  009F                     	;# 
   303  0105                     	;# 
   304  0107                     	;# 
   305  0108                     	;# 
   306  0109                     	;# 
   307  010C                     	;# 
   308  010C                     	;# 
   309  010D                     	;# 
   310  010E                     	;# 
   311  010F                     	;# 
   312  0185                     	;# 
   313  0187                     	;# 
   314  0188                     	;# 
   315  0189                     	;# 
   316  018C                     	;# 
   317  018D                     	;# 
   318  0000                     	;# 
   319  0001                     	;# 
   320  0002                     	;# 
   321  0003                     	;# 
   322  0004                     	;# 
   323  0005                     	;# 
   324  0006                     	;# 
   325  0007                     	;# 
   326  0009                     	;# 
   327  000A                     	;# 
   328  000B                     	;# 
   329  000C                     	;# 
   330  000D                     	;# 
   331  000E                     	;# 
   332  000E                     	;# 
   333  000F                     	;# 
   334  0010                     	;# 
   335  0011                     	;# 
   336  0012                     	;# 
   337  0013                     	;# 
   338  0014                     	;# 
   339  0015                     	;# 
   340  0015                     	;# 
   341  0016                     	;# 
   342  0017                     	;# 
   343  0018                     	;# 
   344  0019                     	;# 
   345  001A                     	;# 
   346  001B                     	;# 
   347  001B                     	;# 
   348  001C                     	;# 
   349  001D                     	;# 
   350  001E                     	;# 
   351  001F                     	;# 
   352  0081                     	;# 
   353  0085                     	;# 
   354  0086                     	;# 
   355  0087                     	;# 
   356  0089                     	;# 
   357  008C                     	;# 
   358  008D                     	;# 
   359  008E                     	;# 
   360  008F                     	;# 
   361  0090                     	;# 
   362  0091                     	;# 
   363  0092                     	;# 
   364  0093                     	;# 
   365  0093                     	;# 
   366  0093                     	;# 
   367  0094                     	;# 
   368  0095                     	;# 
   369  0096                     	;# 
   370  0097                     	;# 
   371  0098                     	;# 
   372  0099                     	;# 
   373  009A                     	;# 
   374  009B                     	;# 
   375  009C                     	;# 
   376  009D                     	;# 
   377  009E                     	;# 
   378  009F                     	;# 
   379  0105                     	;# 
   380  0107                     	;# 
   381  0108                     	;# 
   382  0109                     	;# 
   383  010C                     	;# 
   384  010C                     	;# 
   385  010D                     	;# 
   386  010E                     	;# 
   387  010F                     	;# 
   388  0185                     	;# 
   389  0187                     	;# 
   390  0188                     	;# 
   391  0189                     	;# 
   392  018C                     	;# 
   393  018D                     	;# 
   394  0000                     	;# 
   395  0001                     	;# 
   396  0002                     	;# 
   397  0003                     	;# 
   398  0004                     	;# 
   399  0005                     	;# 
   400  0006                     	;# 
   401  0007                     	;# 
   402  0009                     	;# 
   403  000A                     	;# 
   404  000B                     	;# 
   405  000C                     	;# 
   406  000D                     	;# 
   407  000E                     	;# 
   408  000E                     	;# 
   409  000F                     	;# 
   410  0010                     	;# 
   411  0011                     	;# 
   412  0012                     	;# 
   413  0013                     	;# 
   414  0014                     	;# 
   415  0015                     	;# 
   416  0015                     	;# 
   417  0016                     	;# 
   418  0017                     	;# 
   419  0018                     	;# 
   420  0019                     	;# 
   421  001A                     	;# 
   422  001B                     	;# 
   423  001B                     	;# 
   424  001C                     	;# 
   425  001D                     	;# 
   426  001E                     	;# 
   427  001F                     	;# 
   428  0081                     	;# 
   429  0085                     	;# 
   430  0086                     	;# 
   431  0087                     	;# 
   432  0089                     	;# 
   433  008C                     	;# 
   434  008D                     	;# 
   435  008E                     	;# 
   436  008F                     	;# 
   437  0090                     	;# 
   438  0091                     	;# 
   439  0092                     	;# 
   440  0093                     	;# 
   441  0093                     	;# 
   442  0093                     	;# 
   443  0094                     	;# 
   444  0095                     	;# 
   445  0096                     	;# 
   446  0097                     	;# 
   447  0098                     	;# 
   448  0099                     	;# 
   449  009A                     	;# 
   450  009B                     	;# 
   451  009C                     	;# 
   452  009D                     	;# 
   453  009E                     	;# 
   454  009F                     	;# 
   455  0105                     	;# 
   456  0107                     	;# 
   457  0108                     	;# 
   458  0109                     	;# 
   459  010C                     	;# 
   460  010C                     	;# 
   461  010D                     	;# 
   462  010E                     	;# 
   463  010F                     	;# 
   464  0185                     	;# 
   465  0187                     	;# 
   466  0188                     	;# 
   467  0189                     	;# 
   468  018C                     	;# 
   469  018D                     	;# 
   470  0000                     	;# 
   471  0001                     	;# 
   472  0002                     	;# 
   473  0003                     	;# 
   474  0004                     	;# 
   475  0005                     	;# 
   476  0006                     	;# 
   477  0007                     	;# 
   478  0009                     	;# 
   479  000A                     	;# 
   480  000B                     	;# 
   481  000C                     	;# 
   482  000D                     	;# 
   483  000E                     	;# 
   484  000E                     	;# 
   485  000F                     	;# 
   486  0010                     	;# 
   487  0011                     	;# 
   488  0012                     	;# 
   489  0013                     	;# 
   490  0014                     	;# 
   491  0015                     	;# 
   492  0015                     	;# 
   493  0016                     	;# 
   494  0017                     	;# 
   495  0018                     	;# 
   496  0019                     	;# 
   497  001A                     	;# 
   498  001B                     	;# 
   499  001B                     	;# 
   500  001C                     	;# 
   501  001D                     	;# 
   502  001E                     	;# 
   503  001F                     	;# 
   504  0081                     	;# 
   505  0085                     	;# 
   506  0086                     	;# 
   507  0087                     	;# 
   508  0089                     	;# 
   509  008C                     	;# 
   510  008D                     	;# 
   511  008E                     	;# 
   512  008F                     	;# 
   513  0090                     	;# 
   514  0091                     	;# 
   515  0092                     	;# 
   516  0093                     	;# 
   517  0093                     	;# 
   518  0093                     	;# 
   519  0094                     	;# 
   520  0095                     	;# 
   521  0096                     	;# 
   522  0097                     	;# 
   523  0098                     	;# 
   524  0099                     	;# 
   525  009A                     	;# 
   526  009B                     	;# 
   527  009C                     	;# 
   528  009D                     	;# 
   529  009E                     	;# 
   530  009F                     	;# 
   531  0105                     	;# 
   532  0107                     	;# 
   533  0108                     	;# 
   534  0109                     	;# 
   535  010C                     	;# 
   536  010C                     	;# 
   537  010D                     	;# 
   538  010E                     	;# 
   539  010F                     	;# 
   540  0185                     	;# 
   541  0187                     	;# 
   542  0188                     	;# 
   543  0189                     	;# 
   544  018C                     	;# 
   545  018D                     	;# 
   546                           
   547                           	psect	idataBANK0
   548  0833                     __pidataBANK0:	
   549                           
   550                           ;initializer for io_sw_read@swOld
   551  0833  3401               	retlw	1
   552                           
   553                           ;initializer for _pointer_pwm_dc2
   554  0834  3468               	retlw	low (_pwm_dc2| 0)
   555                           
   556                           ;initializer for _pointer_pwm_dc1
   557  0835  346A               	retlw	low (_pwm_dc1| 0)
   558                           
   559                           	psect	strings
   560  0800                     __pstrings:	
   561  0800                     stringtab:	
   562  0800                     __stringtab:	
   563                           
   564                           ;	String table - string pointers are 1 byte each
   565  0800  1BFF               	btfsc	btemp+1,7
   566  0801  280A               	ljmp	stringcode
   567  0802  1383               	bcf	3,7
   568  0803  187F               	btfsc	btemp+1,0
   569  0804  1783               	bsf	3,7
   570  0805  0800               	movf	0,w
   571  0806  0A84               	incf	4,f
   572  0807  1903               	skipnz
   573  0808  0AFF               	incf	btemp+1,f
   574  0809  0008               	return
   575  080A                     stringcode:	
   576  080A                     stringdir:	
   577  080A  3008               	movlw	high stringdir
   578  080B  008A               	movwf	10
   579  080C  0804               	movf	4,w
   580  080D  0A84               	incf	4,f
   581  080E  0782               	addwf	2,f
   582  080F                     __stringbase:	
   583  080F  3400               	retlw	0
   584  0810                     __end_of__stringtab:	
   585  0810                     _dpowers:	
   586  0810  3401               	retlw	1
   587  0811  3400               	retlw	0
   588  0812  340A               	retlw	10
   589  0813  3400               	retlw	0
   590  0814  3464               	retlw	100
   591  0815  3400               	retlw	0
   592  0816  34E8               	retlw	232
   593  0817  3403               	retlw	3
   594  0818  3410               	retlw	16
   595  0819  3427               	retlw	39
   596  081A                     __end_of_dpowers:	
   597  001B                     _CCPR2L	set	27
   598  0015                     _CCPR1L	set	21
   599  001D                     _CCP2CONbits	set	29
   600  0017                     _CCP1CONbits	set	23
   601  001E                     _ADRESH	set	30
   602  001F                     _ADCON0bits	set	31
   603  000B                     _INTCONbits	set	11
   604  0012                     _T2CONbits	set	18
   605  0006                     _PORTB	set	6
   606  0001                     _TMR0	set	1
   607  00EC                     _DC2B0	set	236
   608  00ED                     _DC2B1	set	237
   609  0031                     _RB1	set	49
   610  0029                     _RA1	set	41
   611  00F9                     _GO	set	249
   612  00F8                     _ADON	set	248
   613  00FF                     _ADCS1	set	255
   614  005E                     _PEIE	set	94
   615  0092                     _TMR2ON	set	146
   616  0058                     _RBIF	set	88
   617  005B                     _RBIE	set	91
   618  0061                     _TMR2IF	set	97
   619  005A                     _T0IF	set	90
   620  005D                     _T0IE	set	93
   621  0030                     _RB0	set	48
   622  003D                     _RC5	set	61
   623  003C                     _RC4	set	60
   624  003B                     _RC3	set	59
   625  0038                     _RC0	set	56
   626  002B                     _RA3	set	43
   627  002A                     _RA2	set	42
   628  0092                     _PR2	set	146
   629  009E                     _ADRESL	set	158
   630  0081                     _OPTION_REGbits	set	129
   631  0087                     _TRISC	set	135
   632  043A                     _TRISC2	set	1082
   633  0439                     _TRISC1	set	1081
   634  04FF                     _ADFM	set	1279
   635  04FC                     _VCFG0	set	1276
   636  04FD                     _VCFG1	set	1277
   637  0428                     _TRISA0	set	1064
   638  04B6                     _IOCB6	set	1206
   639  04AE                     _WPUB6	set	1198
   640  040F                     _nRBPU	set	1039
   641  0436                     _TRISB6	set	1078
   642  040B                     _PSA	set	1035
   643  040D                     _T0CS	set	1037
   644  0461                     _TMR2IE	set	1121
   645  042A                     _TRISA2	set	1066
   646  042B                     _TRISA3	set	1067
   647  0430                     _TRISB0	set	1072
   648  0C4A                     _ANS10	set	3146
   649  0C41                     _ANS1	set	3137
   650  0C40                     _ANS0	set	3136
   651  0C42                     _ANS2	set	3138
   652  0C43                     _ANS3	set	3139
   653  0C4C                     _ANS12	set	3148
   654  081A                     STR_3:	
   655  081A  3450               	retlw	80	;'P'
   656  081B  3457               	retlw	87	;'W'
   657  081C  344D               	retlw	77	;'M'
   658  081D  3431               	retlw	49	;'1'
   659  081E  343A               	retlw	58	;':'
   660  081F  3400               	retlw	0
   661  0820                     STR_5:	
   662  0820  3450               	retlw	80	;'P'
   663  0821  3457               	retlw	87	;'W'
   664  0822  344D               	retlw	77	;'M'
   665  0823  3432               	retlw	50	;'2'
   666  0824  343A               	retlw	58	;':'
   667  0825  3400               	retlw	0
   668  0826                     STR_2:	
   669  0826  3420               	retlw	32	;' '
   670  0827  345B               	retlw	91	;'['
   671  0828  346D               	retlw	109	;'m'
   672  0829  346D               	retlw	109	;'m'
   673  082A  345D               	retlw	93	;']'
   674  082B  3400               	retlw	0
   675  082C                     STR_7:	
   676  082C  345B               	retlw	91	;'['
   677  082D  3425               	retlw	37	;'%'
   678  082E  345D               	retlw	93	;']'
   679  082F  3400               	retlw	0
   680  0830                     STR_1:	
   681  0830  3425               	retlw	37	;'%'
   682  0831  3464               	retlw	100	;'d'
   683  0832  3400               	retlw	0
   684  0830                     
   685                           ; #config settings
   686  0000                     
   687                           	psect	cinit
   688  0013                     start_initialization:	
   689  0013                     __initialization:	
   690                           
   691                           ; Initialize objects allocated to BANK0
   692  0013  120A  158A  2033  120A  118A  	fcall	__pidataBANK0	;fetch initializer
   693  0018  00EC               	movwf	__pdataBANK0& (0+127)
   694  0019  120A  158A  2034  120A  118A  	fcall	__pidataBANK0+1	;fetch initializer
   695  001E  00ED               	movwf	(__pdataBANK0+1)& (0+127)
   696  001F  120A  158A  2035  120A  118A  	fcall	__pidataBANK0+2	;fetch initializer
   697  0024  00EE               	movwf	(__pdataBANK0+2)& (0+127)
   698                           
   699                           ; Clear objects allocated to BANK3
   700  0025  1683               	bsf	3,5	;RP0=1, select bank3
   701  0026  1703               	bsf	3,6	;RP1=1, select bank3
   702  0027  01BF               	clrf	__pbssBANK3& (0+127)
   703  0028  01C0               	clrf	(__pbssBANK3+1)& (0+127)
   704  0029  01C1               	clrf	(__pbssBANK3+2)& (0+127)
   705  002A  01C2               	clrf	(__pbssBANK3+3)& (0+127)
   706  002B  01C3               	clrf	(__pbssBANK3+4)& (0+127)
   707  002C  01C4               	clrf	(__pbssBANK3+5)& (0+127)
   708  002D  01C5               	clrf	(__pbssBANK3+6)& (0+127)
   709  002E  01C6               	clrf	(__pbssBANK3+7)& (0+127)
   710  002F  01C7               	clrf	(__pbssBANK3+8)& (0+127)
   711  0030  01C8               	clrf	(__pbssBANK3+9)& (0+127)
   712  0031  01C9               	clrf	(__pbssBANK3+10)& (0+127)
   713  0032  01CA               	clrf	(__pbssBANK3+11)& (0+127)
   714                           
   715                           ; Clear objects allocated to BANK0
   716  0033  1283               	bcf	3,5	;RP0=0, select bank0
   717  0034  1303               	bcf	3,6	;RP1=0, select bank0
   718  0035  01E8               	clrf	__pbssBANK0& (0+127)
   719  0036  01E9               	clrf	(__pbssBANK0+1)& (0+127)
   720  0037  01EA               	clrf	(__pbssBANK0+2)& (0+127)
   721  0038  01EB               	clrf	(__pbssBANK0+3)& (0+127)
   722                           
   723                           ; Clear objects allocated to BITBANK0
   724  0039  01EF               	clrf	(__pbitbssBANK0/(0+8))& (0+127)
   725  003A                     end_of_initialization:	
   726                           ;End of C runtime variable initialization code
   727                           
   728  003A                     __end_of__initialization:	
   729  003A  0183               	clrf	3
   730  003B  160A  118A  2A4A   	ljmp	_main	;jump to C main() function
   731                           
   732                           	psect	bitbssBANK0
   733  0378                     __pbitbssBANK0:	
   734  0378                     _swPressed:	
   735  0378                     	ds	1
   736                           
   737                           	psect	bssBANK0
   738  0068                     __pbssBANK0:	
   739  0068                     _pwm_dc2:	
   740  0068                     	ds	2
   741  006A                     _pwm_dc1:	
   742  006A                     	ds	2
   743                           
   744                           	psect	dataBANK0
   745  006C                     __pdataBANK0:	
   746  006C                     io_sw_read@swOld:	
   747  006C                     	ds	1
   748  006D                     _pointer_pwm_dc2:	
   749  006D                     	ds	1
   750  006E                     _pointer_pwm_dc1:	
   751  006E                     	ds	1
   752                           
   753                           	psect	bssBANK3
   754  01BF                     __pbssBANK3:	
   755  01BF                     pwm_calc@radius:	
   756  01BF                     	ds	2
   757  01C1                     pwm_set@absolute_pwm_dc2:	
   758  01C1                     	ds	2
   759  01C3                     pwm_set@absolute_pwm_dc1:	
   760  01C3                     	ds	2
   761  01C5                     pwm_set@n_2:	
   762  01C5                     	ds	2
   763  01C7                     pwm_set@n_1:	
   764  01C7                     	ds	2
   765  01C9                     _ADC_result:	
   766  01C9                     	ds	2
   767                           
   768                           	psect	cstackBANK3
   769  0190                     __pcstackBANK3:	
   770  0190                     ??___fladd:	
   771                           
   772                           ; 1 bytes @ 0x0
   773  0190                     	ds	8
   774  0198                     ___fladd@signs:	
   775                           
   776                           ; 1 bytes @ 0x8
   777  0198                     	ds	1
   778  0199                     ___fladd@aexp:	
   779                           
   780                           ; 1 bytes @ 0x9
   781  0199                     	ds	1
   782  019A                     ___fladd@bexp:	
   783                           
   784                           ; 1 bytes @ 0xA
   785  019A                     	ds	1
   786  019B                     ___fladd@grs:	
   787                           
   788                           ; 1 bytes @ 0xB
   789  019B                     	ds	1
   790  019C                     ?___fltol:	
   791  019C                     ___fltol@f1:	
   792                           ; 4 bytes @ 0xC
   793                           
   794                           
   795                           ; 4 bytes @ 0xC
   796  019C                     	ds	4
   797  01A0                     ??___fltol:	
   798                           
   799                           ; 1 bytes @ 0x10
   800  01A0                     	ds	5
   801  01A5                     ___fltol@sign1:	
   802                           
   803                           ; 1 bytes @ 0x15
   804  01A5                     	ds	1
   805  01A6                     ___fltol@exp1:	
   806                           
   807                           ; 1 bytes @ 0x16
   808  01A6                     	ds	1
   809  01A7                     ?_pwm_set:	
   810  01A7                     ?_pwm_calc:	
   811                           ; 1 bytes @ 0x17
   812                           
   813  01A7                     pwm_set@pwm_dc1:	
   814                           ; 2 bytes @ 0x17
   815                           
   816  01A7                     pwm_calc@adc_value:	
   817                           ; 2 bytes @ 0x17
   818                           
   819                           
   820                           ; 2 bytes @ 0x17
   821  01A7                     	ds	2
   822  01A9                     pwm_calc@pwm_dc1:	
   823  01A9                     pwm_set@pwm_dc2:	
   824                           ; 1 bytes @ 0x19
   825                           
   826                           
   827                           ; 2 bytes @ 0x19
   828  01A9                     	ds	1
   829  01AA                     pwm_calc@pwm_dc2:	
   830                           
   831                           ; 1 bytes @ 0x1A
   832  01AA                     	ds	1
   833  01AB                     ??_pwm_calc:	
   834  01AB                     ??_pwm_set:	
   835                           ; 1 bytes @ 0x1B
   836                           
   837                           
   838                           ; 1 bytes @ 0x1B
   839  01AB                     	ds	2
   840  01AD                     _pwm_set$1085:	
   841                           
   842                           ; 4 bytes @ 0x1D
   843  01AD                     	ds	4
   844  01B1                     ??_main:	
   845                           
   846                           ; 1 bytes @ 0x21
   847  01B1                     	ds	3
   848  01B4                     main@message:	
   849                           
   850                           ; 9 bytes @ 0x24
   851  01B4                     	ds	9
   852  01BD                     main@R:	
   853                           
   854                           ; 2 bytes @ 0x2D
   855  01BD                     	ds	2
   856                           
   857                           	psect	cstackBANK1
   858  00A0                     __pcstackBANK1:	
   859  00A0                     ??_adc_init_0:	
   860  00A0                     ??_io_init:	
   861                           ; 1 bytes @ 0x0
   862                           
   863  00A0                     ??_pwm_init:	
   864                           ; 1 bytes @ 0x0
   865                           
   866  00A0                     ??_LCD_RS_SetLow:	
   867                           ; 1 bytes @ 0x0
   868                           
   869  00A0                     ??_LCD_RS_SetHigh:	
   870                           ; 1 bytes @ 0x0
   871                           
   872  00A0                     ??_LCD_RW_SetLow:	
   873                           ; 1 bytes @ 0x0
   874                           
   875  00A0                     ??_lcd_write_nibble:	
   876                           ; 1 bytes @ 0x0
   877                           
   878  00A0                     ??_t0_init:	
   879                           ; 1 bytes @ 0x0
   880                           
   881  00A0                     ??_tmr2_init:	
   882                           ; 1 bytes @ 0x0
   883                           
   884  00A0                     ?_abs:	
   885                           ; 1 bytes @ 0x0
   886                           
   887  00A0                     ?__Umul8_16:	
   888                           ; 2 bytes @ 0x0
   889                           
   890  00A0                     ?___wmul:	
   891                           ; 2 bytes @ 0x0
   892                           
   893  00A0                     ?___lwdiv:	
   894                           ; 2 bytes @ 0x0
   895                           
   896  00A0                     __Umul8_16@multiplicand:	
   897                           ; 2 bytes @ 0x0
   898                           
   899  00A0                     ___wmul@multiplier:	
   900                           ; 1 bytes @ 0x0
   901                           
   902  00A0                     ___lwdiv@divisor:	
   903                           ; 2 bytes @ 0x0
   904                           
   905  00A0                     abs@a:	
   906                           ; 2 bytes @ 0x0
   907                           
   908                           
   909                           ; 2 bytes @ 0x0
   910  00A0                     	ds	1
   911  00A1                     lcd_write_nibble@c:	
   912                           
   913                           ; 1 bytes @ 0x1
   914  00A1                     	ds	1
   915  00A2                     ??_abs:	
   916  00A2                     ??__Umul8_16:	
   917                           ; 1 bytes @ 0x2
   918                           
   919  00A2                     ??_lcd_write:	
   920                           ; 1 bytes @ 0x2
   921                           
   922  00A2                     ___wmul@multiplicand:	
   923                           ; 1 bytes @ 0x2
   924                           
   925  00A2                     ___lwdiv@dividend:	
   926                           ; 2 bytes @ 0x2
   927                           
   928                           
   929                           ; 2 bytes @ 0x2
   930  00A2                     	ds	1
   931  00A3                     lcd_write@c:	
   932                           
   933                           ; 1 bytes @ 0x3
   934  00A3                     	ds	1
   935  00A4                     ?_lcd_puts:	
   936  00A4                     ??_lcd_goto:	
   937                           ; 1 bytes @ 0x4
   938                           
   939  00A4                     ?_lcd_cursor:	
   940                           ; 1 bytes @ 0x4
   941                           
   942  00A4                     ??_lcd_putchar:	
   943                           ; 1 bytes @ 0x4
   944                           
   945  00A4                     ??_lcd_init:	
   946                           ; 1 bytes @ 0x4
   947                           
   948  00A4                     ??___wmul:	
   949                           ; 1 bytes @ 0x4
   950                           
   951  00A4                     ??___lwdiv:	
   952                           ; 1 bytes @ 0x4
   953                           
   954  00A4                     lcd_goto@pos:	
   955                           ; 1 bytes @ 0x4
   956                           
   957  00A4                     lcd_putchar@c:	
   958                           ; 1 bytes @ 0x4
   959                           
   960  00A4                     lcd_puts@s:	
   961                           ; 1 bytes @ 0x4
   962                           
   963  00A4                     lcd_cursor@on:	
   964                           ; 2 bytes @ 0x4
   965                           
   966  00A4                     ___wmul@product:	
   967                           ; 2 bytes @ 0x4
   968                           
   969  00A4                     __Umul8_16@product:	
   970                           ; 2 bytes @ 0x4
   971                           
   972                           
   973                           ; 2 bytes @ 0x4
   974  00A4                     	ds	1
   975  00A5                     ___lwdiv@quotient:	
   976                           
   977                           ; 2 bytes @ 0x5
   978  00A5                     	ds	1
   979  00A6                     ??_lcd_puts:	
   980  00A6                     ??_lcd_cursor:	
   981                           ; 1 bytes @ 0x6
   982                           
   983  00A6                     ?___xxtofl:	
   984                           ; 1 bytes @ 0x6
   985                           
   986  00A6                     __Umul8_16@word_mpld:	
   987                           ; 4 bytes @ 0x6
   988                           
   989  00A6                     ___xxtofl@val:	
   990                           ; 2 bytes @ 0x6
   991                           
   992                           
   993                           ; 4 bytes @ 0x6
   994  00A6                     	ds	1
   995  00A7                     ___lwdiv@counter:	
   996                           
   997                           ; 1 bytes @ 0x7
   998  00A7                     	ds	1
   999  00A8                     ?___lwmod:	
  1000  00A8                     __Umul8_16@multiplier:	
  1001                           ; 2 bytes @ 0x8
  1002                           
  1003  00A8                     ___lwmod@divisor:	
  1004                           ; 1 bytes @ 0x8
  1005                           
  1006                           
  1007                           ; 2 bytes @ 0x8
  1008  00A8                     	ds	2
  1009  00AA                     ??___xxtofl:	
  1010  00AA                     ___lwmod@dividend:	
  1011                           ; 1 bytes @ 0xA
  1012                           
  1013                           
  1014                           ; 2 bytes @ 0xA
  1015  00AA                     	ds	2
  1016  00AC                     ??___lwmod:	
  1017                           
  1018                           ; 1 bytes @ 0xC
  1019  00AC                     	ds	1
  1020  00AD                     ___lwmod@counter:	
  1021                           
  1022                           ; 1 bytes @ 0xD
  1023  00AD                     	ds	1
  1024  00AE                     ?_sprintf:	
  1025  00AE                     sprintf@f:	
  1026                           ; 2 bytes @ 0xE
  1027                           
  1028  00AE                     ___xxtofl@sign:	
  1029                           ; 1 bytes @ 0xE
  1030                           
  1031                           
  1032                           ; 1 bytes @ 0xE
  1033  00AE                     	ds	1
  1034  00AF                     ___xxtofl@exp:	
  1035                           
  1036                           ; 1 bytes @ 0xF
  1037  00AF                     	ds	1
  1038  00B0                     ___xxtofl@arg:	
  1039                           
  1040                           ; 4 bytes @ 0x10
  1041  00B0                     	ds	1
  1042  00B1                     ??_sprintf:	
  1043                           
  1044                           ; 1 bytes @ 0x11
  1045  00B1                     	ds	3
  1046  00B4                     ?___fldiv:	
  1047  00B4                     sprintf@ap:	
  1048                           ; 4 bytes @ 0x14
  1049                           
  1050  00B4                     ___fldiv@a:	
  1051                           ; 1 bytes @ 0x14
  1052                           
  1053                           
  1054                           ; 4 bytes @ 0x14
  1055  00B4                     	ds	1
  1056  00B5                     sprintf@flag:	
  1057                           
  1058                           ; 1 bytes @ 0x15
  1059  00B5                     	ds	1
  1060  00B6                     sprintf@prec:	
  1061                           
  1062                           ; 1 bytes @ 0x16
  1063  00B6                     	ds	1
  1064  00B7                     sprintf@val:	
  1065                           
  1066                           ; 2 bytes @ 0x17
  1067  00B7                     	ds	1
  1068  00B8                     ___fldiv@b:	
  1069                           
  1070                           ; 4 bytes @ 0x18
  1071  00B8                     	ds	1
  1072  00B9                     sprintf@sp:	
  1073                           
  1074                           ; 1 bytes @ 0x19
  1075  00B9                     	ds	1
  1076  00BA                     sprintf@c:	
  1077                           
  1078                           ; 1 bytes @ 0x1A
  1079  00BA                     	ds	2
  1080  00BC                     ??___fldiv:	
  1081                           
  1082                           ; 1 bytes @ 0x1C
  1083  00BC                     	ds	5
  1084  00C1                     ___fldiv@rem:	
  1085                           
  1086                           ; 4 bytes @ 0x21
  1087  00C1                     	ds	4
  1088  00C5                     ___fldiv@sign:	
  1089                           
  1090                           ; 1 bytes @ 0x25
  1091  00C5                     	ds	1
  1092  00C6                     ___fldiv@new_exp:	
  1093                           
  1094                           ; 2 bytes @ 0x26
  1095  00C6                     	ds	2
  1096  00C8                     ___fldiv@grs:	
  1097                           
  1098                           ; 4 bytes @ 0x28
  1099  00C8                     	ds	4
  1100  00CC                     ___fldiv@bexp:	
  1101                           
  1102                           ; 1 bytes @ 0x2C
  1103  00CC                     	ds	1
  1104  00CD                     ___fldiv@aexp:	
  1105                           
  1106                           ; 1 bytes @ 0x2D
  1107  00CD                     	ds	1
  1108  00CE                     ?___flmul:	
  1109  00CE                     ___flmul@b:	
  1110                           ; 4 bytes @ 0x2E
  1111                           
  1112                           
  1113                           ; 4 bytes @ 0x2E
  1114  00CE                     	ds	4
  1115  00D2                     ___flmul@a:	
  1116                           
  1117                           ; 4 bytes @ 0x32
  1118  00D2                     	ds	4
  1119  00D6                     ??___flmul:	
  1120                           
  1121                           ; 1 bytes @ 0x36
  1122  00D6                     	ds	5
  1123  00DB                     ___flmul@sign:	
  1124                           
  1125                           ; 1 bytes @ 0x3B
  1126  00DB                     	ds	1
  1127  00DC                     ___flmul@grs:	
  1128                           
  1129                           ; 4 bytes @ 0x3C
  1130  00DC                     	ds	4
  1131  00E0                     ___flmul@aexp:	
  1132                           
  1133                           ; 1 bytes @ 0x40
  1134  00E0                     	ds	1
  1135  00E1                     ___flmul@bexp:	
  1136                           
  1137                           ; 1 bytes @ 0x41
  1138  00E1                     	ds	1
  1139  00E2                     ___flmul@prod:	
  1140                           
  1141                           ; 4 bytes @ 0x42
  1142  00E2                     	ds	4
  1143  00E6                     ___flmul@temp:	
  1144                           
  1145                           ; 2 bytes @ 0x46
  1146  00E6                     	ds	2
  1147  00E8                     ?___fladd:	
  1148  00E8                     ___fladd@b:	
  1149                           ; 4 bytes @ 0x48
  1150                           
  1151                           
  1152                           ; 4 bytes @ 0x48
  1153  00E8                     	ds	4
  1154  00EC                     ___fladd@a:	
  1155                           
  1156                           ; 4 bytes @ 0x4C
  1157  00EC                     	ds	4
  1158                           
  1159                           	psect	cstackCOMMON
  1160  0070                     __pcstackCOMMON:	
  1161  0070                     ?_io_sw_read:	
  1162  0070                     ??_io_sw_read:	
  1163                           ; 1 bytes @ 0x0
  1164                           
  1165  0070                     ?_adc_init_0:	
  1166                           ; 1 bytes @ 0x0
  1167                           
  1168  0070                     ?_io_init:	
  1169                           ; 1 bytes @ 0x0
  1170                           
  1171  0070                     ?_pwm_init:	
  1172                           ; 1 bytes @ 0x0
  1173                           
  1174  0070                     ?_LCD_RS_SetLow:	
  1175                           ; 1 bytes @ 0x0
  1176                           
  1177  0070                     ?_LCD_RS_SetHigh:	
  1178                           ; 1 bytes @ 0x0
  1179                           
  1180  0070                     ?_LCD_RW_SetLow:	
  1181                           ; 1 bytes @ 0x0
  1182                           
  1183  0070                     ?_lcd_write_nibble:	
  1184                           ; 1 bytes @ 0x0
  1185                           
  1186  0070                     ?_lcd_write:	
  1187                           ; 1 bytes @ 0x0
  1188                           
  1189  0070                     ?_lcd_goto:	
  1190                           ; 1 bytes @ 0x0
  1191                           
  1192  0070                     ?_lcd_putchar:	
  1193                           ; 1 bytes @ 0x0
  1194                           
  1195  0070                     ?_lcd_init:	
  1196                           ; 1 bytes @ 0x0
  1197                           
  1198  0070                     ?_isr:	
  1199                           ; 1 bytes @ 0x0
  1200                           
  1201  0070                     ?_t0_init:	
  1202                           ; 1 bytes @ 0x0
  1203                           
  1204  0070                     ?_tmr2_init:	
  1205                           ; 1 bytes @ 0x0
  1206                           
  1207  0070                     ?_main:	
  1208                           ; 1 bytes @ 0x0
  1209                           
  1210  0070                     ?_io_sw_pressed:	
  1211                           ; 1 bytes @ 0x0
  1212                           
  1213  0070                     ?i1__Umul8_16:	
  1214                           ; 2 bytes @ 0x0
  1215                           
  1216  0070                     ?i1___xxtofl:	
  1217                           ; 2 bytes @ 0x0
  1218                           
  1219  0070                     i1__Umul8_16@multiplicand:	
  1220                           ; 4 bytes @ 0x0
  1221                           
  1222  0070                     i1___xxtofl@val:	
  1223                           ; 1 bytes @ 0x0
  1224                           
  1225                           
  1226                           ; 4 bytes @ 0x0
  1227  0070                     	ds	2
  1228  0072                     ??_io_sw_pressed:	
  1229  0072                     ??i1__Umul8_16:	
  1230                           ; 1 bytes @ 0x2
  1231                           
  1232  0072                     io_sw_read@port:	
  1233                           ; 1 bytes @ 0x2
  1234                           
  1235                           
  1236                           ; 1 bytes @ 0x2
  1237  0072                     	ds	1
  1238  0073                     io_sw_read@swNew:	
  1239                           
  1240                           ; 1 bytes @ 0x3
  1241  0073                     	ds	1
  1242  0074                     ??i1___xxtofl:	
  1243  0074                     i1__Umul8_16@product:	
  1244                           ; 1 bytes @ 0x4
  1245                           
  1246                           
  1247                           ; 2 bytes @ 0x4
  1248  0074                     	ds	2
  1249  0076                     i1__Umul8_16@word_mpld:	
  1250                           
  1251                           ; 2 bytes @ 0x6
  1252  0076                     	ds	2
  1253  0078                     i1___xxtofl@sign:	
  1254  0078                     i1__Umul8_16@multiplier:	
  1255                           ; 1 bytes @ 0x8
  1256                           
  1257                           
  1258                           ; 1 bytes @ 0x8
  1259  0078                     	ds	1
  1260  0079                     i1___xxtofl@exp:	
  1261                           
  1262                           ; 1 bytes @ 0x9
  1263  0079                     	ds	1
  1264  007A                     i1___xxtofl@arg:	
  1265                           
  1266                           ; 4 bytes @ 0xA
  1267  007A                     	ds	4
  1268                           
  1269                           	psect	cstackBANK0
  1270  0020                     __pcstackBANK0:	
  1271  0020                     ?i1___flmul:	
  1272  0020                     i1___flmul@b:	
  1273                           ; 4 bytes @ 0x0
  1274                           
  1275                           
  1276                           ; 4 bytes @ 0x0
  1277  0020                     	ds	4
  1278  0024                     i1___flmul@a:	
  1279                           
  1280                           ; 4 bytes @ 0x4
  1281  0024                     	ds	4
  1282  0028                     ??i1___flmul:	
  1283                           
  1284                           ; 1 bytes @ 0x8
  1285  0028                     	ds	5
  1286  002D                     i1___flmul@sign:	
  1287                           
  1288                           ; 1 bytes @ 0xD
  1289  002D                     	ds	1
  1290  002E                     i1___flmul@grs:	
  1291                           
  1292                           ; 4 bytes @ 0xE
  1293  002E                     	ds	4
  1294  0032                     i1___flmul@aexp:	
  1295                           
  1296                           ; 1 bytes @ 0x12
  1297  0032                     	ds	1
  1298  0033                     i1___flmul@bexp:	
  1299                           
  1300                           ; 1 bytes @ 0x13
  1301  0033                     	ds	1
  1302  0034                     i1___flmul@prod:	
  1303                           
  1304                           ; 4 bytes @ 0x14
  1305  0034                     	ds	4
  1306  0038                     i1___flmul@temp:	
  1307                           
  1308                           ; 2 bytes @ 0x18
  1309  0038                     	ds	2
  1310  003A                     ?i1___fladd:	
  1311  003A                     i1___fladd@b:	
  1312                           ; 4 bytes @ 0x1A
  1313                           
  1314                           
  1315                           ; 4 bytes @ 0x1A
  1316  003A                     	ds	4
  1317  003E                     i1___fladd@a:	
  1318                           
  1319                           ; 4 bytes @ 0x1E
  1320  003E                     	ds	4
  1321  0042                     ??i1___fladd:	
  1322                           
  1323                           ; 1 bytes @ 0x22
  1324  0042                     	ds	8
  1325  004A                     i1___fladd@signs:	
  1326                           
  1327                           ; 1 bytes @ 0x2A
  1328  004A                     	ds	1
  1329  004B                     i1___fladd@aexp:	
  1330                           
  1331                           ; 1 bytes @ 0x2B
  1332  004B                     	ds	1
  1333  004C                     i1___fladd@bexp:	
  1334                           
  1335                           ; 1 bytes @ 0x2C
  1336  004C                     	ds	1
  1337  004D                     i1___fladd@grs:	
  1338                           
  1339                           ; 1 bytes @ 0x2D
  1340  004D                     	ds	1
  1341  004E                     ?i1___fltol:	
  1342  004E                     i1___fltol@f1:	
  1343                           ; 4 bytes @ 0x2E
  1344                           
  1345                           
  1346                           ; 4 bytes @ 0x2E
  1347  004E                     	ds	4
  1348  0052                     ??i1___fltol:	
  1349                           
  1350                           ; 1 bytes @ 0x32
  1351  0052                     	ds	5
  1352  0057                     i1___fltol@sign1:	
  1353                           
  1354                           ; 1 bytes @ 0x37
  1355  0057                     	ds	1
  1356  0058                     i1___fltol@exp1:	
  1357                           
  1358                           ; 1 bytes @ 0x38
  1359  0058                     	ds	1
  1360  0059                     ?_adc_read_0:	
  1361                           
  1362                           ; 2 bytes @ 0x39
  1363  0059                     	ds	2
  1364  005B                     ??_adc_read_0:	
  1365                           
  1366                           ; 1 bytes @ 0x3B
  1367  005B                     	ds	8
  1368  0063                     adc_read_0@ADC_result:	
  1369                           
  1370                           ; 2 bytes @ 0x43
  1371  0063                     	ds	2
  1372  0065                     ??_isr:	
  1373                           
  1374                           ; 1 bytes @ 0x45
  1375  0065                     	ds	3
  1376                           
  1377                           	psect	maintext
  1378  124A                     __pmaintext:	
  1379 ;;
  1380 ;;Main: autosize = 0, tempsize = 3, incstack = 0, save=0
  1381 ;;
  1382 ;; *************** function _main *****************
  1383 ;; Defined at:
  1384 ;;		line 115 in file "main.c"
  1385 ;; Parameters:    Size  Location     Type
  1386 ;;		None
  1387 ;; Auto vars:     Size  Location     Type
  1388 ;;  message         9   36[BANK3 ] unsigned char [9]
  1389 ;;  R               2   45[BANK3 ] int 
  1390 ;; Return value:  Size  Location     Type
  1391 ;;                  1    wreg      void 
  1392 ;; Registers used:
  1393 ;;		wreg, fsr0l, fsr0h, status,2, status,0, btemp+1, pclath, cstack
  1394 ;; Tracked objects:
  1395 ;;		On entry : B00/0
  1396 ;;		On exit  : 0/0
  1397 ;;		Unchanged: 0/0
  1398 ;; Data sizes:     COMMON   BANK0   BANK1   BANK3   BANK2
  1399 ;;      Params:         0       0       0       0       0
  1400 ;;      Locals:         0       0       0      11       0
  1401 ;;      Temps:          0       0       0       3       0
  1402 ;;      Totals:         0       0       0      14       0
  1403 ;;Total ram usage:       14 bytes
  1404 ;; Hardware stack levels required when called:    7
  1405 ;; This function calls:
  1406 ;;		_adc_init_0
  1407 ;;		_io_init
  1408 ;;		_lcd_cursor
  1409 ;;		_lcd_goto
  1410 ;;		_lcd_init
  1411 ;;		_lcd_putchar
  1412 ;;		_lcd_puts
  1413 ;;		_pwm_calc
  1414 ;;		_pwm_init
  1415 ;;		_pwm_set
  1416 ;;		_sprintf
  1417 ;;		_t0_init
  1418 ;;		_tmr2_init
  1419 ;; This function is called by:
  1420 ;;		Startup code after reset
  1421 ;; This function uses a non-reentrant model
  1422 ;;
  1423                           
  1424                           
  1425                           ;psect for function _main
  1426  124A                     _main:	
  1427  124A                     l3683:	
  1428                           ;incstack = 0
  1429                           ; Regs used in _main: [wreg-fsr0h+status,2+status,0+btemp+1+pclath+cstack]
  1430                           
  1431                           
  1432                           ;main.c: 119: int R;;main.c: 120: char message[9];;main.c: 124: adc_init_0();
  1433  124A  160A  158A  24AE  160A  118A  	fcall	_adc_init_0
  1434                           
  1435                           ;main.c: 125: t0_init();
  1436  124F  160A  158A  241E  160A  118A  	fcall	_t0_init
  1437  1254                     l3685:	
  1438                           
  1439                           ;main.c: 126: io_init();
  1440  1254  160A  118A  2001  160A  118A  	fcall	_io_init
  1441  1259                     l3687:	
  1442                           
  1443                           ;main.c: 127: lcd_init();
  1444  1259  160A  158A  2653  160A  118A  	fcall	_lcd_init
  1445  125E                     l3689:	
  1446                           
  1447                           ;main.c: 129: PEIE = 1;
  1448  125E  170B               	bsf	11,6	;volatile
  1449  125F                     l3691:	
  1450                           
  1451                           ;main.c: 130: (INTCONbits.GIE = 1);
  1452  125F  178B               	bsf	11,7	;volatile
  1453  1260                     l3693:	
  1454                           
  1455                           ;main.c: 131: tmr2_init();
  1456  1260  160A  158A  2412  160A  118A  	fcall	_tmr2_init
  1457  1265                     l3695:	
  1458                           
  1459                           ;main.c: 132: pwm_init();
  1460  1265  160A  118A  2009  160A  118A  	fcall	_pwm_init
  1461  126A                     l3697:	
  1462                           
  1463                           ;main.c: 136: lcd_cursor(0);
  1464  126A  3000               	movlw	0
  1465  126B  1683               	bsf	3,5	;RP0=1, select bank1
  1466  126C  1303               	bcf	3,6	;RP1=0, select bank1
  1467  126D  00A4               	movwf	lcd_cursor@on^(0+128)
  1468  126E  00A5               	movwf	(lcd_cursor@on+1)^(0+128)
  1469  126F  160A  158A  2471  160A  118A  	fcall	_lcd_cursor
  1470  1274                     l3699:	
  1471                           
  1472                           ;main.c: 140: R = pwm_calc(ADC_result, pointer_pwm_dc1, pointer_pwm_dc2);
  1473  1274  1683               	bsf	3,5	;RP0=1, select bank3
  1474  1275  1703               	bsf	3,6	;RP1=1, select bank3
  1475  1276  084A               	movf	(_ADC_result+1)^(0+384),w	;volatile
  1476  1277  00A8               	movwf	(pwm_calc@adc_value+1)^(0+384)
  1477  1278  0849               	movf	_ADC_result^(0+384),w	;volatile
  1478  1279  00A7               	movwf	pwm_calc@adc_value^(0+384)
  1479  127A  306A               	movlw	(low (_pwm_dc1| 0))& (0+255)
  1480  127B  00B1               	movwf	??_main^(0+384)
  1481  127C  0831               	movf	??_main^(0+384),w
  1482  127D  00A9               	movwf	pwm_calc@pwm_dc1^(0+384)
  1483  127E  3068               	movlw	(low (_pwm_dc2| 0))& (0+255)
  1484  127F  00B2               	movwf	(??_main+1)^(0+384)
  1485  1280  0832               	movf	(??_main+1)^(0+384),w
  1486  1281  00AA               	movwf	pwm_calc@pwm_dc2^(0+384)
  1487  1282  160A  118A  236A  160A  118A  	fcall	_pwm_calc
  1488  1287  1683               	bsf	3,5	;RP0=1, select bank3
  1489  1288  1703               	bsf	3,6	;RP1=1, select bank3
  1490  1289  0828               	movf	(?_pwm_calc+1)^(0+384),w
  1491  128A  00BE               	movwf	(main@R+1)^(0+384)
  1492  128B  0827               	movf	?_pwm_calc^(0+384),w
  1493  128C  00BD               	movwf	main@R^(0+384)
  1494  128D                     l3701:	
  1495                           
  1496                           ;main.c: 141: pwm_set(pwm_dc1, pwm_dc2);
  1497  128D  1283               	bcf	3,5	;RP0=0, select bank0
  1498  128E  1303               	bcf	3,6	;RP1=0, select bank0
  1499  128F  086B               	movf	_pwm_dc1+1,w	;volatile
  1500  1290  1683               	bsf	3,5	;RP0=1, select bank3
  1501  1291  1703               	bsf	3,6	;RP1=1, select bank3
  1502  1292  00A8               	movwf	(pwm_set@pwm_dc1+1)^(0+384)
  1503  1293  1283               	bcf	3,5	;RP0=0, select bank0
  1504  1294  1303               	bcf	3,6	;RP1=0, select bank0
  1505  1295  086A               	movf	_pwm_dc1,w	;volatile
  1506  1296  1683               	bsf	3,5	;RP0=1, select bank3
  1507  1297  1703               	bsf	3,6	;RP1=1, select bank3
  1508  1298  00A7               	movwf	pwm_set@pwm_dc1^(0+384)
  1509  1299  1283               	bcf	3,5	;RP0=0, select bank0
  1510  129A  1303               	bcf	3,6	;RP1=0, select bank0
  1511  129B  0869               	movf	_pwm_dc2+1,w	;volatile
  1512  129C  1683               	bsf	3,5	;RP0=1, select bank3
  1513  129D  1703               	bsf	3,6	;RP1=1, select bank3
  1514  129E  00AA               	movwf	(pwm_set@pwm_dc2+1)^(0+384)
  1515  129F  1283               	bcf	3,5	;RP0=0, select bank0
  1516  12A0  1303               	bcf	3,6	;RP1=0, select bank0
  1517  12A1  0868               	movf	_pwm_dc2,w	;volatile
  1518  12A2  1683               	bsf	3,5	;RP0=1, select bank3
  1519  12A3  1703               	bsf	3,6	;RP1=1, select bank3
  1520  12A4  00A9               	movwf	pwm_set@pwm_dc2^(0+384)
  1521  12A5  160A  118A  25B1  160A  118A  	fcall	_pwm_set
  1522  12AA                     l3703:	
  1523                           
  1524                           ;main.c: 144: if (R == 0) {
  1525  12AA  1683               	bsf	3,5	;RP0=1, select bank3
  1526  12AB  1703               	bsf	3,6	;RP1=1, select bank3
  1527  12AC  083D               	movf	main@R^(0+384),w
  1528  12AD  043E               	iorwf	(main@R+1)^(0+384),w
  1529  12AE  1D03               	btfss	3,2
  1530  12AF  2AB1               	goto	u6221
  1531  12B0  2AB2               	goto	u6220
  1532  12B1                     u6221:	
  1533  12B1  2AB9               	goto	l3707
  1534  12B2                     u6220:	
  1535  12B2                     l3705:	
  1536                           
  1537                           ;main.c: 145: lcd_putchar(0xf3);
  1538  12B2  30F3               	movlw	243
  1539  12B3  160A  158A  243B  160A  118A  	fcall	_lcd_putchar
  1540                           
  1541                           ;main.c: 146: } else {
  1542  12B8  2AE7               	goto	l3709
  1543  12B9                     l3707:	
  1544                           
  1545                           ;main.c: 147: sprintf(message, "%d", R);
  1546  12B9  3021               	movlw	(low ((STR_1-__stringbase)| (0+32768)))& (0+255)
  1547  12BA  00B1               	movwf	??_main^(0+384)
  1548  12BB  0831               	movf	??_main^(0+384),w
  1549  12BC  1683               	bsf	3,5	;RP0=1, select bank1
  1550  12BD  1303               	bcf	3,6	;RP1=0, select bank1
  1551  12BE  00AE               	movwf	sprintf@f^(0+128)
  1552  12BF  1683               	bsf	3,5	;RP0=1, select bank3
  1553  12C0  1703               	bsf	3,6	;RP1=1, select bank3
  1554  12C1  083E               	movf	(main@R+1)^(0+384),w
  1555  12C2  1683               	bsf	3,5	;RP0=1, select bank1
  1556  12C3  1303               	bcf	3,6	;RP1=0, select bank1
  1557  12C4  00B0               	movwf	((?_sprintf+1)^(0+128)+1)
  1558  12C5  1683               	bsf	3,5	;RP0=1, select bank3
  1559  12C6  1703               	bsf	3,6	;RP1=1, select bank3
  1560  12C7  083D               	movf	main@R^(0+384),w
  1561  12C8  1683               	bsf	3,5	;RP0=1, select bank1
  1562  12C9  1303               	bcf	3,6	;RP1=0, select bank1
  1563  12CA  00AF               	movwf	(?_sprintf^(0+128)+1)
  1564  12CB  30B4               	movlw	(low (main@message| (0+256)))& (0+255)
  1565  12CC  160A  118A  2168  160A  118A  	fcall	_sprintf
  1566                           
  1567                           ;main.c: 148: lcd_puts(message);
  1568  12D1  30B4               	movlw	(low (main@message| (0+256)))& (0+255)
  1569  12D2  1683               	bsf	3,5	;RP0=1, select bank1
  1570  12D3  1303               	bcf	3,6	;RP1=0, select bank1
  1571  12D4  00A4               	movwf	lcd_puts@s^(0+128)
  1572  12D5  3001               	movlw	1
  1573  12D6  00A5               	movwf	(lcd_puts@s+1)^(0+128)
  1574  12D7  160A  158A  2548  160A  118A  	fcall	_lcd_puts
  1575                           
  1576                           ;main.c: 150: lcd_puts(" [mm]");
  1577  12DC  3017               	movlw	(low ((STR_2-__stringbase)| (0+32768)))& (0+255)
  1578  12DD  1683               	bsf	3,5	;RP0=1, select bank1
  1579  12DE  1303               	bcf	3,6	;RP1=0, select bank1
  1580  12DF  00A4               	movwf	lcd_puts@s^(0+128)
  1581  12E0  3080               	movlw	128
  1582  12E1  00A5               	movwf	(lcd_puts@s+1)^(0+128)
  1583  12E2  160A  158A  2548  160A  118A  	fcall	_lcd_puts
  1584  12E7                     l3709:	
  1585                           
  1586                           ;main.c: 151: };main.c: 153: lcd_goto(64);
  1587  12E7  3040               	movlw	64
  1588  12E8  160A  158A  244C  160A  118A  	fcall	_lcd_goto
  1589  12ED                     l3711:	
  1590                           
  1591                           ;main.c: 154: lcd_puts("PWM1:");
  1592  12ED  300B               	movlw	(low ((STR_3-__stringbase)| (0+32768)))& (0+255)
  1593  12EE  1683               	bsf	3,5	;RP0=1, select bank1
  1594  12EF  1303               	bcf	3,6	;RP1=0, select bank1
  1595  12F0  00A4               	movwf	lcd_puts@s^(0+128)
  1596  12F1  3080               	movlw	128
  1597  12F2  00A5               	movwf	(lcd_puts@s+1)^(0+128)
  1598  12F3  160A  158A  2548  160A  118A  	fcall	_lcd_puts
  1599  12F8                     l3713:	
  1600                           
  1601                           ;main.c: 155: sprintf(message, "%d", pwm_dc1);
  1602  12F8  3021               	movlw	(low ((STR_1-__stringbase)| (0+32768)))& (0+255)
  1603  12F9  1683               	bsf	3,5	;RP0=1, select bank3
  1604  12FA  1703               	bsf	3,6	;RP1=1, select bank3
  1605  12FB  00B1               	movwf	??_main^(0+384)
  1606  12FC  0831               	movf	??_main^(0+384),w
  1607  12FD  1683               	bsf	3,5	;RP0=1, select bank1
  1608  12FE  1303               	bcf	3,6	;RP1=0, select bank1
  1609  12FF  00AE               	movwf	sprintf@f^(0+128)
  1610  1300  1283               	bcf	3,5	;RP0=0, select bank0
  1611  1301  1303               	bcf	3,6	;RP1=0, select bank0
  1612  1302  086B               	movf	_pwm_dc1+1,w	;volatile
  1613  1303  1683               	bsf	3,5	;RP0=1, select bank1
  1614  1304  1303               	bcf	3,6	;RP1=0, select bank1
  1615  1305  00B0               	movwf	((?_sprintf+1)^(0+128)+1)
  1616  1306  1283               	bcf	3,5	;RP0=0, select bank0
  1617  1307  1303               	bcf	3,6	;RP1=0, select bank0
  1618  1308  086A               	movf	_pwm_dc1,w	;volatile
  1619  1309  1683               	bsf	3,5	;RP0=1, select bank1
  1620  130A  1303               	bcf	3,6	;RP1=0, select bank1
  1621  130B  00AF               	movwf	(?_sprintf^(0+128)+1)
  1622  130C  30B4               	movlw	(low (main@message| (0+256)))& (0+255)
  1623  130D  160A  118A  2168  160A  118A  	fcall	_sprintf
  1624  1312                     l3715:	
  1625                           
  1626                           ;main.c: 156: lcd_puts(message);
  1627  1312  30B4               	movlw	(low (main@message| (0+256)))& (0+255)
  1628  1313  1683               	bsf	3,5	;RP0=1, select bank1
  1629  1314  1303               	bcf	3,6	;RP1=0, select bank1
  1630  1315  00A4               	movwf	lcd_puts@s^(0+128)
  1631  1316  3001               	movlw	1
  1632  1317  00A5               	movwf	(lcd_puts@s+1)^(0+128)
  1633  1318  160A  158A  2548  160A  118A  	fcall	_lcd_puts
  1634  131D                     l3717:	
  1635                           
  1636                           ;main.c: 158: lcd_puts("PWM2:");
  1637  131D  3011               	movlw	(low ((STR_5-__stringbase)| (0+32768)))& (0+255)
  1638  131E  1683               	bsf	3,5	;RP0=1, select bank1
  1639  131F  1303               	bcf	3,6	;RP1=0, select bank1
  1640  1320  00A4               	movwf	lcd_puts@s^(0+128)
  1641  1321  3080               	movlw	128
  1642  1322  00A5               	movwf	(lcd_puts@s+1)^(0+128)
  1643  1323  160A  158A  2548  160A  118A  	fcall	_lcd_puts
  1644  1328                     l3719:	
  1645                           
  1646                           ;main.c: 159: sprintf(message, "%d", pwm_dc2);
  1647  1328  3021               	movlw	(low ((STR_1-__stringbase)| (0+32768)))& (0+255)
  1648  1329  1683               	bsf	3,5	;RP0=1, select bank3
  1649  132A  1703               	bsf	3,6	;RP1=1, select bank3
  1650  132B  00B1               	movwf	??_main^(0+384)
  1651  132C  0831               	movf	??_main^(0+384),w
  1652  132D  1683               	bsf	3,5	;RP0=1, select bank1
  1653  132E  1303               	bcf	3,6	;RP1=0, select bank1
  1654  132F  00AE               	movwf	sprintf@f^(0+128)
  1655  1330  1283               	bcf	3,5	;RP0=0, select bank0
  1656  1331  1303               	bcf	3,6	;RP1=0, select bank0
  1657  1332  0869               	movf	_pwm_dc2+1,w	;volatile
  1658  1333  1683               	bsf	3,5	;RP0=1, select bank1
  1659  1334  1303               	bcf	3,6	;RP1=0, select bank1
  1660  1335  00B0               	movwf	((?_sprintf+1)^(0+128)+1)
  1661  1336  1283               	bcf	3,5	;RP0=0, select bank0
  1662  1337  1303               	bcf	3,6	;RP1=0, select bank0
  1663  1338  0868               	movf	_pwm_dc2,w	;volatile
  1664  1339  1683               	bsf	3,5	;RP0=1, select bank1
  1665  133A  1303               	bcf	3,6	;RP1=0, select bank1
  1666  133B  00AF               	movwf	(?_sprintf^(0+128)+1)
  1667  133C  30B4               	movlw	(low (main@message| (0+256)))& (0+255)
  1668  133D  160A  118A  2168  160A  118A  	fcall	_sprintf
  1669  1342                     l3721:	
  1670                           
  1671                           ;main.c: 160: lcd_puts(message);
  1672  1342  30B4               	movlw	(low (main@message| (0+256)))& (0+255)
  1673  1343  1683               	bsf	3,5	;RP0=1, select bank1
  1674  1344  1303               	bcf	3,6	;RP1=0, select bank1
  1675  1345  00A4               	movwf	lcd_puts@s^(0+128)
  1676  1346  3001               	movlw	1
  1677  1347  00A5               	movwf	(lcd_puts@s+1)^(0+128)
  1678  1348  160A  158A  2548  160A  118A  	fcall	_lcd_puts
  1679  134D                     l3723:	
  1680                           
  1681                           ;main.c: 162: lcd_puts("[%]");
  1682  134D  301D               	movlw	(low ((STR_7-__stringbase)| (0+32768)))& (0+255)
  1683  134E  1683               	bsf	3,5	;RP0=1, select bank1
  1684  134F  1303               	bcf	3,6	;RP1=0, select bank1
  1685  1350  00A4               	movwf	lcd_puts@s^(0+128)
  1686  1351  3080               	movlw	128
  1687  1352  00A5               	movwf	(lcd_puts@s+1)^(0+128)
  1688  1353  160A  158A  2548  160A  118A  	fcall	_lcd_puts
  1689  1358                     l3725:	
  1690                           
  1691                           ;main.c: 164: _delay((unsigned long)((200)*(20000000/4000.0)));
  1692  1358  3006               	movlw	6
  1693  1359  1683               	bsf	3,5	;RP0=1, select bank3
  1694  135A  1703               	bsf	3,6	;RP1=1, select bank3
  1695  135B  00B3               	movwf	(??_main^(0+384)+2)
  1696  135C  3013               	movlw	19
  1697  135D  00B2               	movwf	(??_main^(0+384)+1)
  1698  135E  30AD               	movlw	173
  1699  135F  00B1               	movwf	??_main^(0+384)
  1700  1360                     u6237:	
  1701  1360  0BB1               	decfsz	??_main^(0+384),f
  1702  1361  2B60               	goto	u6237
  1703  1362  0BB2               	decfsz	(??_main^(0+384)+1),f
  1704  1363  2B60               	goto	u6237
  1705  1364  0BB3               	decfsz	(??_main^(0+384)+2),f
  1706  1365  2B60               	goto	u6237
  1707  1366  2A74               	goto	l3699
  1708  1367  120A  118A  2810   	ljmp	start
  1709  136A                     __end_of_main:	
  1710                           
  1711                           	psect	text1
  1712  1C12                     __ptext1:	
  1713 ;; *************** function _tmr2_init *****************
  1714 ;; Defined at:
  1715 ;;		line 104 in file "main.c"
  1716 ;; Parameters:    Size  Location     Type
  1717 ;;		None
  1718 ;; Auto vars:     Size  Location     Type
  1719 ;;		None
  1720 ;; Return value:  Size  Location     Type
  1721 ;;                  1    wreg      void 
  1722 ;; Registers used:
  1723 ;;		wreg, status,2, status,0
  1724 ;; Tracked objects:
  1725 ;;		On entry : 0/0
  1726 ;;		On exit  : 0/0
  1727 ;;		Unchanged: 0/0
  1728 ;; Data sizes:     COMMON   BANK0   BANK1   BANK3   BANK2
  1729 ;;      Params:         0       0       0       0       0
  1730 ;;      Locals:         0       0       0       0       0
  1731 ;;      Temps:          0       0       0       0       0
  1732 ;;      Totals:         0       0       0       0       0
  1733 ;;Total ram usage:        0 bytes
  1734 ;; Hardware stack levels used:    1
  1735 ;; Hardware stack levels required when called:    4
  1736 ;; This function calls:
  1737 ;;		Nothing
  1738 ;; This function is called by:
  1739 ;;		_main
  1740 ;; This function uses a non-reentrant model
  1741 ;;
  1742                           
  1743                           
  1744                           ;psect for function _tmr2_init
  1745  1C12                     _tmr2_init:	
  1746  1C12                     l3493:	
  1747                           ;incstack = 0
  1748                           ; Regs used in _tmr2_init: [wreg+status,2+status,0]
  1749                           
  1750                           
  1751                           ;main.c: 107: TMR2IF = 0;
  1752  1C12  1283               	bcf	3,5	;RP0=0, select bank0
  1753  1C13  1303               	bcf	3,6	;RP1=0, select bank0
  1754  1C14  108C               	bcf	12,1	;volatile
  1755  1C15                     l3495:	
  1756                           
  1757                           ;main.c: 108: T2CONbits.T2CKPS = 1;
  1758  1C15  0812               	movf	18,w	;volatile
  1759  1C16  39FC               	andlw	-4
  1760  1C17  3801               	iorlw	1
  1761  1C18  0092               	movwf	18	;volatile
  1762  1C19                     l3497:	
  1763                           
  1764                           ;main.c: 109: TMR2ON = 1;
  1765  1C19  1512               	bsf	18,2	;volatile
  1766  1C1A                     l3499:	
  1767                           
  1768                           ;main.c: 111: TMR2IE = 1;
  1769  1C1A  1683               	bsf	3,5	;RP0=1, select bank1
  1770  1C1B  1303               	bcf	3,6	;RP1=0, select bank1
  1771  1C1C  148C               	bsf	12,1	;volatile
  1772  1C1D                     l158:	
  1773  1C1D  0008               	return
  1774  1C1E                     __end_of_tmr2_init:	
  1775                           
  1776                           	psect	text2
  1777  1C1E                     __ptext2:	
  1778 ;; *************** function _t0_init *****************
  1779 ;; Defined at:
  1780 ;;		line 88 in file "main.c"
  1781 ;; Parameters:    Size  Location     Type
  1782 ;;		None
  1783 ;; Auto vars:     Size  Location     Type
  1784 ;;		None
  1785 ;; Return value:  Size  Location     Type
  1786 ;;                  1    wreg      void 
  1787 ;; Registers used:
  1788 ;;		wreg, status,2, status,0
  1789 ;; Tracked objects:
  1790 ;;		On entry : 0/0
  1791 ;;		On exit  : 0/0
  1792 ;;		Unchanged: 0/0
  1793 ;; Data sizes:     COMMON   BANK0   BANK1   BANK3   BANK2
  1794 ;;      Params:         0       0       0       0       0
  1795 ;;      Locals:         0       0       0       0       0
  1796 ;;      Temps:          0       0       0       0       0
  1797 ;;      Totals:         0       0       0       0       0
  1798 ;;Total ram usage:        0 bytes
  1799 ;; Hardware stack levels used:    1
  1800 ;; Hardware stack levels required when called:    4
  1801 ;; This function calls:
  1802 ;;		Nothing
  1803 ;; This function is called by:
  1804 ;;		_main
  1805 ;; This function uses a non-reentrant model
  1806 ;;
  1807                           
  1808                           
  1809                           ;psect for function _t0_init
  1810  1C1E                     _t0_init:	
  1811  1C1E                     l3485:	
  1812                           ;incstack = 0
  1813                           ; Regs used in _t0_init: [wreg+status,2+status,0]
  1814                           
  1815                           
  1816                           ;main.c: 91: T0CS = 0;
  1817  1C1E  1683               	bsf	3,5	;RP0=1, select bank1
  1818  1C1F  1303               	bcf	3,6	;RP1=0, select bank1
  1819  1C20  1281               	bcf	1,5	;volatile
  1820                           
  1821                           ;main.c: 92: PSA = 0;
  1822  1C21  1181               	bcf	1,3	;volatile
  1823                           
  1824                           ;main.c: 94: OPTION_REGbits.T0CS = 0;
  1825  1C22  1281               	bcf	1,5	;volatile
  1826                           
  1827                           ;main.c: 95: OPTION_REGbits.PSA = 0;
  1828  1C23  1181               	bcf	1,3	;volatile
  1829  1C24                     l3487:	
  1830                           
  1831                           ;main.c: 96: OPTION_REGbits.PS = 7 ;
  1832  1C24  3007               	movlw	7
  1833  1C25  0481               	iorwf	1,f	;volatile
  1834  1C26                     l3489:	
  1835                           
  1836                           ;main.c: 97: TMR0 = (0xff - 98 ) ;
  1837  1C26  309D               	movlw	157
  1838  1C27  1283               	bcf	3,5	;RP0=0, select bank0
  1839  1C28  1303               	bcf	3,6	;RP1=0, select bank0
  1840  1C29  0081               	movwf	1	;volatile
  1841  1C2A                     l3491:	
  1842                           
  1843                           ;main.c: 100: T0IE = 1;
  1844  1C2A  168B               	bsf	11,5	;volatile
  1845  1C2B                     l155:	
  1846  1C2B  0008               	return
  1847  1C2C                     __end_of_t0_init:	
  1848                           
  1849                           	psect	text3
  1850  1168                     __ptext3:	
  1851 ;; *************** function _sprintf *****************
  1852 ;; Defined at:
  1853 ;;		line 505 in file "C:\Program Files (x86)\Microchip\xc8\v2.10\pic\sources\c90\common\doprnt.c"
  1854 ;; Parameters:    Size  Location     Type
  1855 ;;  sp              1    wreg     PTR unsigned char 
  1856 ;;		 -> main@message(9), 
  1857 ;;  f               1   14[BANK1 ] PTR const unsigned char 
  1858 ;;		 -> STR_6(3), STR_4(3), STR_1(3), 
  1859 ;; Auto vars:     Size  Location     Type
  1860 ;;  sp              1   25[BANK1 ] PTR unsigned char 
  1861 ;;		 -> main@message(9), 
  1862 ;;  tmpval          4    0        struct .
  1863 ;;  val             2   23[BANK1 ] unsigned int 
  1864 ;;  cp              2    0        PTR const unsigned char 
  1865 ;;  len             2    0        unsigned int 
  1866 ;;  c               1   26[BANK1 ] unsigned char 
  1867 ;;  prec            1   22[BANK1 ] char 
  1868 ;;  flag            1   21[BANK1 ] unsigned char 
  1869 ;;  ap              1   20[BANK1 ] PTR void [1]
  1870 ;;		 -> ?_sprintf(2), 
  1871 ;; Return value:  Size  Location     Type
  1872 ;;                  2   14[BANK1 ] int 
  1873 ;; Registers used:
  1874 ;;		wreg, fsr0l, fsr0h, status,2, status,0, btemp+1, pclath, cstack
  1875 ;; Tracked objects:
  1876 ;;		On entry : 0/0
  1877 ;;		On exit  : 0/0
  1878 ;;		Unchanged: 0/0
  1879 ;; Data sizes:     COMMON   BANK0   BANK1   BANK3   BANK2
  1880 ;;      Params:         0       0       3       0       0
  1881 ;;      Locals:         0       0       7       0       0
  1882 ;;      Temps:          0       0       3       0       0
  1883 ;;      Totals:         0       0      13       0       0
  1884 ;;Total ram usage:       13 bytes
  1885 ;; Hardware stack levels used:    1
  1886 ;; Hardware stack levels required when called:    5
  1887 ;; This function calls:
  1888 ;;		___lwdiv
  1889 ;;		___lwmod
  1890 ;; This function is called by:
  1891 ;;		_main
  1892 ;; This function uses a non-reentrant model
  1893 ;;
  1894                           
  1895                           
  1896                           ;psect for function _sprintf
  1897  1168                     _sprintf:	
  1898                           
  1899                           ;incstack = 0
  1900                           ; Regs used in _sprintf: [wreg-fsr0h+status,2+status,0+btemp+1+pclath+cstack]
  1901                           ;sprintf@sp stored from wreg
  1902  1168  1683               	bsf	3,5	;RP0=1, select bank1
  1903  1169  1303               	bcf	3,6	;RP1=0, select bank1
  1904  116A  00B9               	movwf	sprintf@sp^(0+128)
  1905  116B                     l3595:	
  1906                           
  1907                           ;doprnt.c: 507: va_list ap;;doprnt.c: 512: char c;;doprnt.c: 521: signed char prec;;dopr
      +                          nt.c: 525: unsigned char flag;;doprnt.c: 540: union {;doprnt.c: 541: unsigned long vd;;d
      +                          oprnt.c: 542: double integ;;doprnt.c: 543: } tmpval;;doprnt.c: 545: unsigned int val;;do
      +                          prnt.c: 546: unsigned len;;doprnt.c: 547: const char * cp;;doprnt.c: 550: *ap = __va_sta
      +                          rt();
  1908  116B  30AF               	movlw	(low ((?_sprintf| 0+1)))& (0+255)
  1909  116C  00B1               	movwf	??_sprintf^(0+128)
  1910  116D  0831               	movf	??_sprintf^(0+128),w
  1911  116E  00B4               	movwf	sprintf@ap^(0+128)
  1912                           
  1913                           ;doprnt.c: 553: while((c = *f++)) {
  1914  116F  2A33               	goto	l3647
  1915  1170                     l3597:	
  1916                           
  1917                           ;doprnt.c: 555: if(c != '%')
  1918  1170  3025               	movlw	37
  1919  1171  063A               	xorwf	sprintf@c^(0+128),w
  1920  1172  1903               	btfsc	3,2
  1921  1173  2975               	goto	u6081
  1922  1174  2976               	goto	u6080
  1923  1175                     u6081:	
  1924  1175  2982               	goto	l3603
  1925  1176                     u6080:	
  1926  1176                     l3599:	
  1927                           
  1928                           ;doprnt.c: 557: {;doprnt.c: 558: ((*sp++ = (c)));
  1929  1176  083A               	movf	sprintf@c^(0+128),w
  1930  1177  00B1               	movwf	??_sprintf^(0+128)
  1931  1178  0839               	movf	sprintf@sp^(0+128),w
  1932  1179  0084               	movwf	4
  1933  117A  0831               	movf	??_sprintf^(0+128),w
  1934  117B  1783               	bsf	3,7	;select IRP bank2
  1935  117C  0080               	movwf	0
  1936  117D                     l3601:	
  1937  117D  3001               	movlw	1
  1938  117E  00B1               	movwf	??_sprintf^(0+128)
  1939  117F  0831               	movf	??_sprintf^(0+128),w
  1940  1180  07B9               	addwf	sprintf@sp^(0+128),f
  1941                           
  1942                           ;doprnt.c: 559: continue;
  1943  1181  2A33               	goto	l3647
  1944  1182                     l3603:	
  1945                           
  1946                           ;doprnt.c: 560: };doprnt.c: 565: flag = 0;
  1947  1182  01B5               	clrf	sprintf@flag^(0+128)
  1948  1183                     l3607:	
  1949                           ;doprnt.c: 661: switch(c = *f++) {
  1950                           
  1951  1183  3001               	movlw	1
  1952  1184  07AE               	addwf	sprintf@f^(0+128),f
  1953  1185  30FF               	movlw	-1
  1954  1186  072E               	addwf	sprintf@f^(0+128),w
  1955  1187  0084               	movwf	4
  1956  1188  120A  158A  200A  160A  118A  	fcall	stringdir
  1957  118D  00BA               	movwf	sprintf@c^(0+128)
  1958                           
  1959                           ; Switch size 1, requested type "simple"
  1960                           ; Number of cases is 3, Range of values is 0 to 105
  1961                           ; switch strategies available:
  1962                           ; Name         Instructions Cycles
  1963                           ; simple_byte           10     6 (average)
  1964                           ; jumptable            260     6 (fixed)
  1965                           ;	Chosen strategy is simple_byte
  1966  118E  3A00               	xorlw	0	; case 0
  1967  118F  1903               	skipnz
  1968  1190  2A45               	goto	l3649
  1969  1191  3A64               	xorlw	100	; case 100
  1970  1192  1903               	skipnz
  1971  1193  2998               	goto	l3609
  1972  1194  3A0D               	xorlw	13	; case 105
  1973  1195  1903               	skipnz
  1974  1196  2998               	goto	l3609
  1975  1197  2A33               	goto	l3647
  1976  1198                     l3609:	
  1977                           
  1978                           ;doprnt.c: 1279: {;doprnt.c: 1285: val = (unsigned int)(*(int *)__va_arg((*(int **)ap), 
      +                          (int)0));
  1979  1198  0834               	movf	sprintf@ap^(0+128),w
  1980  1199  0084               	movwf	4
  1981  119A  1383               	bcf	3,7	;select IRP bank0
  1982  119B  0800               	movf	0,w
  1983  119C  00B7               	movwf	sprintf@val^(0+128)
  1984  119D  0A84               	incf	4,f
  1985  119E  0800               	movf	0,w
  1986  119F  00B8               	movwf	(sprintf@val+1)^(0+128)
  1987  11A0                     l3611:	
  1988  11A0  3002               	movlw	2
  1989  11A1  00B1               	movwf	??_sprintf^(0+128)
  1990  11A2  0831               	movf	??_sprintf^(0+128),w
  1991  11A3  07B4               	addwf	sprintf@ap^(0+128),f
  1992  11A4                     l3613:	
  1993                           
  1994                           ;doprnt.c: 1287: if((int)val < 0) {
  1995  11A4  1FB8               	btfss	(sprintf@val+1)^(0+128),7
  1996  11A5  29A7               	goto	u6091
  1997  11A6  29A8               	goto	u6090
  1998  11A7                     u6091:	
  1999  11A7  29B1               	goto	l3619
  2000  11A8                     u6090:	
  2001  11A8                     l3615:	
  2002                           
  2003                           ;doprnt.c: 1288: flag |= 0x03;
  2004  11A8  3003               	movlw	3
  2005  11A9  00B1               	movwf	??_sprintf^(0+128)
  2006  11AA  0831               	movf	??_sprintf^(0+128),w
  2007  11AB  04B5               	iorwf	sprintf@flag^(0+128),f
  2008  11AC                     l3617:	
  2009                           
  2010                           ;doprnt.c: 1289: val = -val;
  2011  11AC  09B7               	comf	sprintf@val^(0+128),f
  2012  11AD  09B8               	comf	(sprintf@val+1)^(0+128),f
  2013  11AE  0AB7               	incf	sprintf@val^(0+128),f
  2014  11AF  1903               	skipnz
  2015  11B0  0AB8               	incf	(sprintf@val+1)^(0+128),f
  2016  11B1                     l3619:	
  2017                           
  2018                           ;doprnt.c: 1290: };doprnt.c: 1292: };doprnt.c: 1331: for(c = 1 ; c != sizeof dpowers/siz
      +                          eof dpowers[0] ; c++)
  2019  11B1  01BA               	clrf	sprintf@c^(0+128)
  2020  11B2  0ABA               	incf	sprintf@c^(0+128),f
  2021  11B3                     l3625:	
  2022                           
  2023                           ;doprnt.c: 1332: if(val < dpowers[c])
  2024  11B3  083A               	movf	sprintf@c^(0+128),w
  2025  11B4  00B1               	movwf	??_sprintf^(0+128)
  2026  11B5  0731               	addwf	??_sprintf^(0+128),w
  2027  11B6  3E01               	addlw	low ((_dpowers-__stringbase)| (0+32768))
  2028  11B7  0084               	movwf	4
  2029  11B8  120A  158A  200A  160A  118A  	fcall	stringdir
  2030  11BD  00B2               	movwf	(??_sprintf+1)^(0+128)
  2031  11BE  120A  158A  200A  160A  118A  	fcall	stringdir
  2032  11C3  00B3               	movwf	((??_sprintf+1)^(0+128)+1)
  2033  11C4  0833               	movf	(??_sprintf+2)^(0+128),w
  2034  11C5  0238               	subwf	(sprintf@val+1)^(0+128),w
  2035  11C6  1D03               	skipz
  2036  11C7  29CA               	goto	u6105
  2037  11C8  0832               	movf	(??_sprintf+1)^(0+128),w
  2038  11C9  0237               	subwf	sprintf@val^(0+128),w
  2039  11CA                     u6105:	
  2040  11CA  1803               	skipnc
  2041  11CB  29CD               	goto	u6101
  2042  11CC  29CE               	goto	u6100
  2043  11CD                     u6101:	
  2044  11CD  29CF               	goto	l3629
  2045  11CE                     u6100:	
  2046  11CE  29D9               	goto	l3631
  2047  11CF                     l3629:	
  2048  11CF  3001               	movlw	1
  2049  11D0  00B1               	movwf	??_sprintf^(0+128)
  2050  11D1  0831               	movf	??_sprintf^(0+128),w
  2051  11D2  07BA               	addwf	sprintf@c^(0+128),f
  2052  11D3  3005               	movlw	5
  2053  11D4  063A               	xorwf	sprintf@c^(0+128),w
  2054  11D5  1D03               	btfss	3,2
  2055  11D6  29D8               	goto	u6111
  2056  11D7  29D9               	goto	u6110
  2057  11D8                     u6111:	
  2058  11D8  29B3               	goto	l3625
  2059  11D9                     u6110:	
  2060  11D9                     l3631:	
  2061                           
  2062                           ;doprnt.c: 1448: {;doprnt.c: 1464: if(flag & 0x03)
  2063  11D9  0835               	movf	sprintf@flag^(0+128),w
  2064  11DA  3903               	andlw	3
  2065  11DB  1903               	btfsc	3,2
  2066  11DC  29DE               	goto	u6121
  2067  11DD  29DF               	goto	u6120
  2068  11DE                     u6121:	
  2069  11DE  29EA               	goto	l3637
  2070  11DF                     u6120:	
  2071  11DF                     l3633:	
  2072                           
  2073                           ;doprnt.c: 1465: ((*sp++ = ('-')));
  2074  11DF  302D               	movlw	45
  2075  11E0  00B1               	movwf	??_sprintf^(0+128)
  2076  11E1  0839               	movf	sprintf@sp^(0+128),w
  2077  11E2  0084               	movwf	4
  2078  11E3  0831               	movf	??_sprintf^(0+128),w
  2079  11E4  1783               	bsf	3,7	;select IRP bank2
  2080  11E5  0080               	movwf	0
  2081  11E6                     l3635:	
  2082  11E6  3001               	movlw	1
  2083  11E7  00B1               	movwf	??_sprintf^(0+128)
  2084  11E8  0831               	movf	??_sprintf^(0+128),w
  2085  11E9  07B9               	addwf	sprintf@sp^(0+128),f
  2086  11EA                     l3637:	
  2087                           
  2088                           ;doprnt.c: 1495: };doprnt.c: 1498: prec = c;
  2089  11EA  083A               	movf	sprintf@c^(0+128),w
  2090  11EB  00B1               	movwf	??_sprintf^(0+128)
  2091  11EC  0831               	movf	??_sprintf^(0+128),w
  2092  11ED  00B6               	movwf	sprintf@prec^(0+128)
  2093                           
  2094                           ;doprnt.c: 1500: while(prec--) {
  2095  11EE  2A2A               	goto	l3645
  2096  11EF                     l3639:	
  2097                           
  2098                           ;doprnt.c: 1504: {;doprnt.c: 1515: c = (val / dpowers[(unsigned char)prec]) % 10 + '0';
  2099  11EF  300A               	movlw	10
  2100  11F0  00A8               	movwf	___lwmod@divisor^(0+128)
  2101  11F1  3000               	movlw	0
  2102  11F2  00A9               	movwf	(___lwmod@divisor^(0+128)+1)
  2103  11F3  0836               	movf	sprintf@prec^(0+128),w
  2104  11F4  00B1               	movwf	??_sprintf^(0+128)
  2105  11F5  0731               	addwf	??_sprintf^(0+128),w
  2106  11F6  3E01               	addlw	low ((_dpowers-__stringbase)| (0+32768))
  2107  11F7  0084               	movwf	4
  2108  11F8  120A  158A  200A  160A  118A  	fcall	stringdir
  2109  11FD  00A0               	movwf	___lwdiv@divisor^(0+128)
  2110  11FE  120A  158A  200A  160A  118A  	fcall	stringdir
  2111  1203  00A1               	movwf	(___lwdiv@divisor+1)^(0+128)
  2112  1204  0838               	movf	(sprintf@val+1)^(0+128),w
  2113  1205  00A3               	movwf	(___lwdiv@dividend+1)^(0+128)
  2114  1206  0837               	movf	sprintf@val^(0+128),w
  2115  1207  00A2               	movwf	___lwdiv@dividend^(0+128)
  2116  1208  160A  158A  25BF  160A  118A  	fcall	___lwdiv
  2117  120D  1683               	bsf	3,5	;RP0=1, select bank1
  2118  120E  1303               	bcf	3,6	;RP1=0, select bank1
  2119  120F  0821               	movf	(?___lwdiv+1)^(0+128),w
  2120  1210  00AB               	movwf	(___lwmod@dividend+1)^(0+128)
  2121  1211  0820               	movf	?___lwdiv^(0+128),w
  2122  1212  00AA               	movwf	___lwmod@dividend^(0+128)
  2123  1213  160A  158A  2583  160A  118A  	fcall	___lwmod
  2124  1218  1683               	bsf	3,5	;RP0=1, select bank1
  2125  1219  1303               	bcf	3,6	;RP1=0, select bank1
  2126  121A  0828               	movf	?___lwmod^(0+128),w
  2127  121B  3E30               	addlw	48
  2128  121C  00B2               	movwf	(??_sprintf+1)^(0+128)
  2129  121D  0832               	movf	(??_sprintf+1)^(0+128),w
  2130  121E  00BA               	movwf	sprintf@c^(0+128)
  2131  121F                     l3641:	
  2132                           
  2133                           ;doprnt.c: 1549: };doprnt.c: 1550: ((*sp++ = (c)));
  2134  121F  083A               	movf	sprintf@c^(0+128),w
  2135  1220  00B1               	movwf	??_sprintf^(0+128)
  2136  1221  0839               	movf	sprintf@sp^(0+128),w
  2137  1222  0084               	movwf	4
  2138  1223  0831               	movf	??_sprintf^(0+128),w
  2139  1224  1783               	bsf	3,7	;select IRP bank2
  2140  1225  0080               	movwf	0
  2141  1226                     l3643:	
  2142  1226  3001               	movlw	1
  2143  1227  00B1               	movwf	??_sprintf^(0+128)
  2144  1228  0831               	movf	??_sprintf^(0+128),w
  2145  1229  07B9               	addwf	sprintf@sp^(0+128),f
  2146  122A                     l3645:	
  2147  122A  30FF               	movlw	255
  2148  122B  00B1               	movwf	??_sprintf^(0+128)
  2149  122C  0831               	movf	??_sprintf^(0+128),w
  2150  122D  07B6               	addwf	sprintf@prec^(0+128),f
  2151  122E  0A36               	incf	sprintf@prec^(0+128),w
  2152  122F  1D03               	btfss	3,2
  2153  1230  2A32               	goto	u6131
  2154  1231  2A33               	goto	u6130
  2155  1232                     u6131:	
  2156  1232  29EF               	goto	l3639
  2157  1233                     u6130:	
  2158  1233                     l3647:	
  2159  1233  3001               	movlw	1
  2160  1234  07AE               	addwf	sprintf@f^(0+128),f
  2161  1235  30FF               	movlw	-1
  2162  1236  072E               	addwf	sprintf@f^(0+128),w
  2163  1237  0084               	movwf	4
  2164  1238  120A  158A  200A  160A  118A  	fcall	stringdir
  2165  123D  00B1               	movwf	??_sprintf^(0+128)
  2166  123E  0831               	movf	??_sprintf^(0+128),w
  2167  123F  00BA               	movwf	sprintf@c^(0+128)
  2168  1240  083A               	movf	sprintf@c^(0+128),w
  2169  1241  1D03               	btfss	3,2
  2170  1242  2A44               	goto	u6141
  2171  1243  2A45               	goto	u6140
  2172  1244                     u6141:	
  2173  1244  2970               	goto	l3597
  2174  1245                     u6140:	
  2175  1245                     l3649:	
  2176                           
  2177                           ;doprnt.c: 1564: *sp = 0;
  2178  1245  0839               	movf	sprintf@sp^(0+128),w
  2179  1246  0084               	movwf	4
  2180  1247  1783               	bsf	3,7	;select IRP bank2
  2181  1248  0180               	clrf	0
  2182  1249                     l399:	
  2183  1249  0008               	return
  2184  124A                     __end_of_sprintf:	
  2185                           
  2186                           	psect	text4
  2187  1D83                     __ptext4:	
  2188 ;; *************** function ___lwmod *****************
  2189 ;; Defined at:
  2190 ;;		line 5 in file "C:\Program Files (x86)\Microchip\xc8\v2.10\pic\sources\c90\common\lwmod.c"
  2191 ;; Parameters:    Size  Location     Type
  2192 ;;  divisor         2    8[BANK1 ] unsigned int 
  2193 ;;  dividend        2   10[BANK1 ] unsigned int 
  2194 ;; Auto vars:     Size  Location     Type
  2195 ;;  counter         1   13[BANK1 ] unsigned char 
  2196 ;; Return value:  Size  Location     Type
  2197 ;;                  2    8[BANK1 ] unsigned int 
  2198 ;; Registers used:
  2199 ;;		wreg, status,2, status,0
  2200 ;; Tracked objects:
  2201 ;;		On entry : 0/0
  2202 ;;		On exit  : 0/0
  2203 ;;		Unchanged: 0/0
  2204 ;; Data sizes:     COMMON   BANK0   BANK1   BANK3   BANK2
  2205 ;;      Params:         0       0       4       0       0
  2206 ;;      Locals:         0       0       1       0       0
  2207 ;;      Temps:          0       0       1       0       0
  2208 ;;      Totals:         0       0       6       0       0
  2209 ;;Total ram usage:        6 bytes
  2210 ;; Hardware stack levels used:    1
  2211 ;; Hardware stack levels required when called:    4
  2212 ;; This function calls:
  2213 ;;		Nothing
  2214 ;; This function is called by:
  2215 ;;		_sprintf
  2216 ;; This function uses a non-reentrant model
  2217 ;;
  2218                           
  2219                           
  2220                           ;psect for function ___lwmod
  2221  1D83                     ___lwmod:	
  2222  1D83                     l2453:	
  2223                           ;incstack = 0
  2224                           ; Regs used in ___lwmod: [wreg+status,2+status,0]
  2225                           
  2226  1D83  1683               	bsf	3,5	;RP0=1, select bank1
  2227  1D84  1303               	bcf	3,6	;RP1=0, select bank1
  2228  1D85  0828               	movf	___lwmod@divisor^(0+128),w
  2229  1D86  0429               	iorwf	(___lwmod@divisor+1)^(0+128),w
  2230  1D87  1903               	btfsc	3,2
  2231  1D88  2D8A               	goto	u3521
  2232  1D89  2D8B               	goto	u3520
  2233  1D8A                     u3521:	
  2234  1D8A  2DBA               	goto	l2471
  2235  1D8B                     u3520:	
  2236  1D8B                     l2455:	
  2237  1D8B  01AD               	clrf	___lwmod@counter^(0+128)
  2238  1D8C  0AAD               	incf	___lwmod@counter^(0+128),f
  2239  1D8D  2D99               	goto	l2461
  2240  1D8E                     l2457:	
  2241  1D8E  3001               	movlw	1
  2242  1D8F                     u3535:	
  2243  1D8F  1003               	clrc
  2244  1D90  0DA8               	rlf	___lwmod@divisor^(0+128),f
  2245  1D91  0DA9               	rlf	(___lwmod@divisor+1)^(0+128),f
  2246  1D92  3EFF               	addlw	-1
  2247  1D93  1D03               	skipz
  2248  1D94  2D8F               	goto	u3535
  2249  1D95                     l2459:	
  2250  1D95  3001               	movlw	1
  2251  1D96  00AC               	movwf	??___lwmod^(0+128)
  2252  1D97  082C               	movf	??___lwmod^(0+128),w
  2253  1D98  07AD               	addwf	___lwmod@counter^(0+128),f
  2254  1D99                     l2461:	
  2255  1D99  1FA9               	btfss	(___lwmod@divisor+1)^(0+128),7
  2256  1D9A  2D9C               	goto	u3541
  2257  1D9B  2D9D               	goto	u3540
  2258  1D9C                     u3541:	
  2259  1D9C  2D8E               	goto	l2457
  2260  1D9D                     u3540:	
  2261  1D9D                     l2463:	
  2262  1D9D  0829               	movf	(___lwmod@divisor+1)^(0+128),w
  2263  1D9E  022B               	subwf	(___lwmod@dividend+1)^(0+128),w
  2264  1D9F  1D03               	skipz
  2265  1DA0  2DA3               	goto	u3555
  2266  1DA1  0828               	movf	___lwmod@divisor^(0+128),w
  2267  1DA2  022A               	subwf	___lwmod@dividend^(0+128),w
  2268  1DA3                     u3555:	
  2269  1DA3  1C03               	skipc
  2270  1DA4  2DA6               	goto	u3551
  2271  1DA5  2DA7               	goto	u3550
  2272  1DA6                     u3551:	
  2273  1DA6  2DAD               	goto	l2467
  2274  1DA7                     u3550:	
  2275  1DA7                     l2465:	
  2276  1DA7  0828               	movf	___lwmod@divisor^(0+128),w
  2277  1DA8  02AA               	subwf	___lwmod@dividend^(0+128),f
  2278  1DA9  0829               	movf	(___lwmod@divisor+1)^(0+128),w
  2279  1DAA  1C03               	skipc
  2280  1DAB  03AB               	decf	(___lwmod@dividend+1)^(0+128),f
  2281  1DAC  02AB               	subwf	(___lwmod@dividend+1)^(0+128),f
  2282  1DAD                     l2467:	
  2283  1DAD  3001               	movlw	1
  2284  1DAE                     u3565:	
  2285  1DAE  1003               	clrc
  2286  1DAF  0CA9               	rrf	(___lwmod@divisor+1)^(0+128),f
  2287  1DB0  0CA8               	rrf	___lwmod@divisor^(0+128),f
  2288  1DB1  3EFF               	addlw	-1
  2289  1DB2  1D03               	skipz
  2290  1DB3  2DAE               	goto	u3565
  2291  1DB4                     l2469:	
  2292  1DB4  3001               	movlw	1
  2293  1DB5  02AD               	subwf	___lwmod@counter^(0+128),f
  2294  1DB6  1D03               	btfss	3,2
  2295  1DB7  2DB9               	goto	u3571
  2296  1DB8  2DBA               	goto	u3570
  2297  1DB9                     u3571:	
  2298  1DB9  2D9D               	goto	l2463
  2299  1DBA                     u3570:	
  2300  1DBA                     l2471:	
  2301  1DBA  082B               	movf	(___lwmod@dividend+1)^(0+128),w
  2302  1DBB  00A9               	movwf	(?___lwmod+1)^(0+128)
  2303  1DBC  082A               	movf	___lwmod@dividend^(0+128),w
  2304  1DBD  00A8               	movwf	?___lwmod^(0+128)
  2305  1DBE                     l685:	
  2306  1DBE  0008               	return
  2307  1DBF                     __end_of___lwmod:	
  2308                           
  2309                           	psect	text5
  2310  1DBF                     __ptext5:	
  2311 ;; *************** function ___lwdiv *****************
  2312 ;; Defined at:
  2313 ;;		line 5 in file "C:\Program Files (x86)\Microchip\xc8\v2.10\pic\sources\c90\common\lwdiv.c"
  2314 ;; Parameters:    Size  Location     Type
  2315 ;;  divisor         2    0[BANK1 ] unsigned int 
  2316 ;;  dividend        2    2[BANK1 ] unsigned int 
  2317 ;; Auto vars:     Size  Location     Type
  2318 ;;  quotient        2    5[BANK1 ] unsigned int 
  2319 ;;  counter         1    7[BANK1 ] unsigned char 
  2320 ;; Return value:  Size  Location     Type
  2321 ;;                  2    0[BANK1 ] unsigned int 
  2322 ;; Registers used:
  2323 ;;		wreg, status,2, status,0
  2324 ;; Tracked objects:
  2325 ;;		On entry : 0/0
  2326 ;;		On exit  : 0/0
  2327 ;;		Unchanged: 0/0
  2328 ;; Data sizes:     COMMON   BANK0   BANK1   BANK3   BANK2
  2329 ;;      Params:         0       0       4       0       0
  2330 ;;      Locals:         0       0       3       0       0
  2331 ;;      Temps:          0       0       1       0       0
  2332 ;;      Totals:         0       0       8       0       0
  2333 ;;Total ram usage:        8 bytes
  2334 ;; Hardware stack levels used:    1
  2335 ;; Hardware stack levels required when called:    4
  2336 ;; This function calls:
  2337 ;;		Nothing
  2338 ;; This function is called by:
  2339 ;;		_sprintf
  2340 ;; This function uses a non-reentrant model
  2341 ;;
  2342                           
  2343                           
  2344                           ;psect for function ___lwdiv
  2345  1DBF                     ___lwdiv:	
  2346  1DBF                     l2427:	
  2347                           ;incstack = 0
  2348                           ; Regs used in ___lwdiv: [wreg+status,2+status,0]
  2349                           
  2350  1DBF  1683               	bsf	3,5	;RP0=1, select bank1
  2351  1DC0  1303               	bcf	3,6	;RP1=0, select bank1
  2352  1DC1  01A5               	clrf	___lwdiv@quotient^(0+128)
  2353  1DC2  01A6               	clrf	(___lwdiv@quotient+1)^(0+128)
  2354  1DC3                     l2429:	
  2355  1DC3  0820               	movf	___lwdiv@divisor^(0+128),w
  2356  1DC4  0421               	iorwf	(___lwdiv@divisor+1)^(0+128),w
  2357  1DC5  1903               	btfsc	3,2
  2358  1DC6  2DC8               	goto	u3451
  2359  1DC7  2DC9               	goto	u3450
  2360  1DC8                     u3451:	
  2361  1DC8  2E00               	goto	l2449
  2362  1DC9                     u3450:	
  2363  1DC9                     l2431:	
  2364  1DC9  01A7               	clrf	___lwdiv@counter^(0+128)
  2365  1DCA  0AA7               	incf	___lwdiv@counter^(0+128),f
  2366  1DCB  2DD7               	goto	l2437
  2367  1DCC                     l2433:	
  2368  1DCC  3001               	movlw	1
  2369  1DCD                     u3465:	
  2370  1DCD  1003               	clrc
  2371  1DCE  0DA0               	rlf	___lwdiv@divisor^(0+128),f
  2372  1DCF  0DA1               	rlf	(___lwdiv@divisor+1)^(0+128),f
  2373  1DD0  3EFF               	addlw	-1
  2374  1DD1  1D03               	skipz
  2375  1DD2  2DCD               	goto	u3465
  2376  1DD3                     l2435:	
  2377  1DD3  3001               	movlw	1
  2378  1DD4  00A4               	movwf	??___lwdiv^(0+128)
  2379  1DD5  0824               	movf	??___lwdiv^(0+128),w
  2380  1DD6  07A7               	addwf	___lwdiv@counter^(0+128),f
  2381  1DD7                     l2437:	
  2382  1DD7  1FA1               	btfss	(___lwdiv@divisor+1)^(0+128),7
  2383  1DD8  2DDA               	goto	u3471
  2384  1DD9  2DDB               	goto	u3470
  2385  1DDA                     u3471:	
  2386  1DDA  2DCC               	goto	l2433
  2387  1DDB                     u3470:	
  2388  1DDB                     l2439:	
  2389  1DDB  3001               	movlw	1
  2390  1DDC                     u3485:	
  2391  1DDC  1003               	clrc
  2392  1DDD  0DA5               	rlf	___lwdiv@quotient^(0+128),f
  2393  1DDE  0DA6               	rlf	(___lwdiv@quotient+1)^(0+128),f
  2394  1DDF  3EFF               	addlw	-1
  2395  1DE0  1D03               	skipz
  2396  1DE1  2DDC               	goto	u3485
  2397  1DE2  0821               	movf	(___lwdiv@divisor+1)^(0+128),w
  2398  1DE3  0223               	subwf	(___lwdiv@dividend+1)^(0+128),w
  2399  1DE4  1D03               	skipz
  2400  1DE5  2DE8               	goto	u3495
  2401  1DE6  0820               	movf	___lwdiv@divisor^(0+128),w
  2402  1DE7  0222               	subwf	___lwdiv@dividend^(0+128),w
  2403  1DE8                     u3495:	
  2404  1DE8  1C03               	skipc
  2405  1DE9  2DEB               	goto	u3491
  2406  1DEA  2DEC               	goto	u3490
  2407  1DEB                     u3491:	
  2408  1DEB  2DF3               	goto	l2445
  2409  1DEC                     u3490:	
  2410  1DEC                     l2441:	
  2411  1DEC  0820               	movf	___lwdiv@divisor^(0+128),w
  2412  1DED  02A2               	subwf	___lwdiv@dividend^(0+128),f
  2413  1DEE  0821               	movf	(___lwdiv@divisor+1)^(0+128),w
  2414  1DEF  1C03               	skipc
  2415  1DF0  03A3               	decf	(___lwdiv@dividend+1)^(0+128),f
  2416  1DF1  02A3               	subwf	(___lwdiv@dividend+1)^(0+128),f
  2417  1DF2                     l2443:	
  2418  1DF2  1425               	bsf	___lwdiv@quotient^(0+128),0
  2419  1DF3                     l2445:	
  2420  1DF3  3001               	movlw	1
  2421  1DF4                     u3505:	
  2422  1DF4  1003               	clrc
  2423  1DF5  0CA1               	rrf	(___lwdiv@divisor+1)^(0+128),f
  2424  1DF6  0CA0               	rrf	___lwdiv@divisor^(0+128),f
  2425  1DF7  3EFF               	addlw	-1
  2426  1DF8  1D03               	skipz
  2427  1DF9  2DF4               	goto	u3505
  2428  1DFA                     l2447:	
  2429  1DFA  3001               	movlw	1
  2430  1DFB  02A7               	subwf	___lwdiv@counter^(0+128),f
  2431  1DFC  1D03               	btfss	3,2
  2432  1DFD  2DFF               	goto	u3511
  2433  1DFE  2E00               	goto	u3510
  2434  1DFF                     u3511:	
  2435  1DFF  2DDB               	goto	l2439
  2436  1E00                     u3510:	
  2437  1E00                     l2449:	
  2438  1E00  0826               	movf	(___lwdiv@quotient+1)^(0+128),w
  2439  1E01  00A1               	movwf	(?___lwdiv+1)^(0+128)
  2440  1E02  0825               	movf	___lwdiv@quotient^(0+128),w
  2441  1E03  00A0               	movwf	?___lwdiv^(0+128)
  2442  1E04                     l675:	
  2443  1E04  0008               	return
  2444  1E05                     __end_of___lwdiv:	
  2445                           
  2446                           	psect	text6
  2447  15B1                     __ptext6:	
  2448 ;; *************** function _pwm_set *****************
  2449 ;; Defined at:
  2450 ;;		line 43 in file "pwm.c"
  2451 ;; Parameters:    Size  Location     Type
  2452 ;;  pwm_dc1         2   23[BANK3 ] int 
  2453 ;;  pwm_dc2         2   25[BANK3 ] int 
  2454 ;; Auto vars:     Size  Location     Type
  2455 ;;		None
  2456 ;; Return value:  Size  Location     Type
  2457 ;;                  1    wreg      void 
  2458 ;; Registers used:
  2459 ;;		wreg, status,2, status,0, btemp+1, pclath, cstack
  2460 ;; Tracked objects:
  2461 ;;		On entry : 0/0
  2462 ;;		On exit  : 0/0
  2463 ;;		Unchanged: 0/0
  2464 ;; Data sizes:     COMMON   BANK0   BANK1   BANK3   BANK2
  2465 ;;      Params:         0       0       0       4       0
  2466 ;;      Locals:         0       0       0       4       0
  2467 ;;      Temps:          0       0       0       2       0
  2468 ;;      Totals:         0       0       0      10       0
  2469 ;;Total ram usage:       10 bytes
  2470 ;; Hardware stack levels used:    1
  2471 ;; Hardware stack levels required when called:    6
  2472 ;; This function calls:
  2473 ;;		___fladd
  2474 ;;		___fldiv
  2475 ;;		___flmul
  2476 ;;		___fltol
  2477 ;;		___wmul
  2478 ;;		___xxtofl
  2479 ;;		_abs
  2480 ;; This function is called by:
  2481 ;;		_main
  2482 ;; This function uses a non-reentrant model
  2483 ;;
  2484                           
  2485                           
  2486                           ;psect for function _pwm_set
  2487  15B1                     _pwm_set:	
  2488  15B1                     l3569:	
  2489                           ;incstack = 0
  2490                           ; Regs used in _pwm_set: [wreg+status,2+status,0+btemp+1+pclath+cstack]
  2491                           
  2492                           
  2493                           ;pwm.c: 45: static unsigned int n_1;;pwm.c: 46: static unsigned int n_2;;pwm.c: 47: stat
      +                          ic unsigned int absolute_pwm_dc1;;pwm.c: 48: static unsigned int absolute_pwm_dc2;;pwm.c
      +                          : 57: absolute_pwm_dc1 = abs(pwm_dc1);
  2494  15B1  1683               	bsf	3,5	;RP0=1, select bank3
  2495  15B2  1703               	bsf	3,6	;RP1=1, select bank3
  2496  15B3  0828               	movf	(pwm_set@pwm_dc1+1)^(0+384),w
  2497  15B4  1683               	bsf	3,5	;RP0=1, select bank1
  2498  15B5  1303               	bcf	3,6	;RP1=0, select bank1
  2499  15B6  00A1               	movwf	(abs@a+1)^(0+128)
  2500  15B7  1683               	bsf	3,5	;RP0=1, select bank3
  2501  15B8  1703               	bsf	3,6	;RP1=1, select bank3
  2502  15B9  0827               	movf	pwm_set@pwm_dc1^(0+384),w
  2503  15BA  1683               	bsf	3,5	;RP0=1, select bank1
  2504  15BB  1303               	bcf	3,6	;RP1=0, select bank1
  2505  15BC  00A0               	movwf	abs@a^(0+128)
  2506  15BD  160A  158A  245E  160A  118A  	fcall	_abs
  2507  15C2  1683               	bsf	3,5	;RP0=1, select bank1
  2508  15C3  1303               	bcf	3,6	;RP1=0, select bank1
  2509  15C4  0821               	movf	(?_abs+1)^(0+128),w
  2510  15C5  1683               	bsf	3,5	;RP0=1, select bank3
  2511  15C6  1703               	bsf	3,6	;RP1=1, select bank3
  2512  15C7  00C4               	movwf	(pwm_set@absolute_pwm_dc1+1)^(0+384)
  2513  15C8  1683               	bsf	3,5	;RP0=1, select bank1
  2514  15C9  1303               	bcf	3,6	;RP1=0, select bank1
  2515  15CA  0820               	movf	?_abs^(0+128),w
  2516  15CB  1683               	bsf	3,5	;RP0=1, select bank3
  2517  15CC  1703               	bsf	3,6	;RP1=1, select bank3
  2518  15CD  00C3               	movwf	pwm_set@absolute_pwm_dc1^(0+384)
  2519                           
  2520                           ;pwm.c: 58: absolute_pwm_dc2 = abs(pwm_dc2);
  2521  15CE  082A               	movf	(pwm_set@pwm_dc2+1)^(0+384),w
  2522  15CF  1683               	bsf	3,5	;RP0=1, select bank1
  2523  15D0  1303               	bcf	3,6	;RP1=0, select bank1
  2524  15D1  00A1               	movwf	(abs@a+1)^(0+128)
  2525  15D2  1683               	bsf	3,5	;RP0=1, select bank3
  2526  15D3  1703               	bsf	3,6	;RP1=1, select bank3
  2527  15D4  0829               	movf	pwm_set@pwm_dc2^(0+384),w
  2528  15D5  1683               	bsf	3,5	;RP0=1, select bank1
  2529  15D6  1303               	bcf	3,6	;RP1=0, select bank1
  2530  15D7  00A0               	movwf	abs@a^(0+128)
  2531  15D8  160A  158A  245E  160A  118A  	fcall	_abs
  2532  15DD  1683               	bsf	3,5	;RP0=1, select bank1
  2533  15DE  1303               	bcf	3,6	;RP1=0, select bank1
  2534  15DF  0821               	movf	(?_abs+1)^(0+128),w
  2535  15E0  1683               	bsf	3,5	;RP0=1, select bank3
  2536  15E1  1703               	bsf	3,6	;RP1=1, select bank3
  2537  15E2  00C2               	movwf	(pwm_set@absolute_pwm_dc2+1)^(0+384)
  2538  15E3  1683               	bsf	3,5	;RP0=1, select bank1
  2539  15E4  1303               	bcf	3,6	;RP1=0, select bank1
  2540  15E5  0820               	movf	?_abs^(0+128),w
  2541  15E6  1683               	bsf	3,5	;RP0=1, select bank3
  2542  15E7  1703               	bsf	3,6	;RP1=1, select bank3
  2543  15E8  00C1               	movwf	pwm_set@absolute_pwm_dc2^(0+384)
  2544  15E9                     l3571:	
  2545                           
  2546                           ;pwm.c: 60: n_1 = (int)( ( ( (abs(absolute_pwm_dc1)/100.0)*0.0002 )/( 0.0000002 ) ) + 0.
      +                          5 );
  2547  15E9  0844               	movf	(pwm_set@absolute_pwm_dc1+1)^(0+384),w
  2548  15EA  1683               	bsf	3,5	;RP0=1, select bank1
  2549  15EB  1303               	bcf	3,6	;RP1=0, select bank1
  2550  15EC  00A1               	movwf	(abs@a+1)^(0+128)
  2551  15ED  1683               	bsf	3,5	;RP0=1, select bank3
  2552  15EE  1703               	bsf	3,6	;RP1=1, select bank3
  2553  15EF  0843               	movf	pwm_set@absolute_pwm_dc1^(0+384),w
  2554  15F0  1683               	bsf	3,5	;RP0=1, select bank1
  2555  15F1  1303               	bcf	3,6	;RP1=0, select bank1
  2556  15F2  00A0               	movwf	abs@a^(0+128)
  2557  15F3  160A  158A  245E  160A  118A  	fcall	_abs
  2558  15F8  1683               	bsf	3,5	;RP0=1, select bank1
  2559  15F9  1303               	bcf	3,6	;RP1=0, select bank1
  2560  15FA  0820               	movf	?_abs^(0+128),w
  2561  15FB  00A6               	movwf	___xxtofl@val^(0+128)
  2562  15FC  0821               	movf	(?_abs+1)^(0+128),w
  2563  15FD  00A7               	movwf	(___xxtofl@val+1)^(0+128)
  2564  15FE  3000               	movlw	0
  2565  15FF  1BA7               	btfsc	(___xxtofl@val+1)^(0+128),7
  2566  1600  30FF               	movlw	255
  2567  1601  00A8               	movwf	(___xxtofl@val+2)^(0+128)
  2568  1602  00A9               	movwf	(___xxtofl@val+3)^(0+128)
  2569  1603  3001               	movlw	1
  2570  1604  120A  118A  2723  160A  118A  	fcall	___xxtofl
  2571  1609  1683               	bsf	3,5	;RP0=1, select bank1
  2572  160A  1303               	bcf	3,6	;RP1=0, select bank1
  2573  160B  0829               	movf	(?___xxtofl+3)^(0+128),w
  2574  160C  00BB               	movwf	(___fldiv@b+3)^(0+128)
  2575  160D  0828               	movf	(?___xxtofl+2)^(0+128),w
  2576  160E  00BA               	movwf	(___fldiv@b+2)^(0+128)
  2577  160F  0827               	movf	(?___xxtofl+1)^(0+128),w
  2578  1610  00B9               	movwf	(___fldiv@b+1)^(0+128)
  2579  1611  0826               	movf	?___xxtofl^(0+128),w
  2580  1612  00B8               	movwf	___fldiv@b^(0+128)
  2581  1613  3042               	movlw	66
  2582  1614  00B7               	movwf	(___fldiv@a+3)^(0+128)
  2583  1615  30C8               	movlw	200
  2584  1616  00B6               	movwf	(___fldiv@a+2)^(0+128)
  2585  1617  3000               	movlw	0
  2586  1618  00B5               	movwf	(___fldiv@a+1)^(0+128)
  2587  1619  3000               	movlw	0
  2588  161A  00B4               	movwf	___fldiv@a^(0+128)
  2589  161B  120A  158A  203A  160A  118A  	fcall	___fldiv
  2590  1620  1683               	bsf	3,5	;RP0=1, select bank1
  2591  1621  1303               	bcf	3,6	;RP1=0, select bank1
  2592  1622  0837               	movf	(?___fldiv+3)^(0+128),w
  2593  1623  00D5               	movwf	(___flmul@a+3)^(0+128)
  2594  1624  0836               	movf	(?___fldiv+2)^(0+128),w
  2595  1625  00D4               	movwf	(___flmul@a+2)^(0+128)
  2596  1626  0835               	movf	(?___fldiv+1)^(0+128),w
  2597  1627  00D3               	movwf	(___flmul@a+1)^(0+128)
  2598  1628  0834               	movf	?___fldiv^(0+128),w
  2599  1629  00D2               	movwf	___flmul@a^(0+128)
  2600  162A  3039               	movlw	57
  2601  162B  00D1               	movwf	(___flmul@b+3)^(0+128)
  2602  162C  3051               	movlw	81
  2603  162D  00D0               	movwf	(___flmul@b+2)^(0+128)
  2604  162E  30B7               	movlw	183
  2605  162F  00CF               	movwf	(___flmul@b+1)^(0+128)
  2606  1630  3017               	movlw	23
  2607  1631  00CE               	movwf	___flmul@b^(0+128)
  2608  1632  120A  118A  23C2  160A  118A  	fcall	___flmul
  2609  1637  1683               	bsf	3,5	;RP0=1, select bank1
  2610  1638  1303               	bcf	3,6	;RP1=0, select bank1
  2611  1639  0851               	movf	(?___flmul+3)^(0+128),w
  2612  163A  1683               	bsf	3,5	;RP0=1, select bank3
  2613  163B  1703               	bsf	3,6	;RP1=1, select bank3
  2614  163C  00B0               	movwf	(_pwm_set$1085+3)^(0+384)
  2615  163D  1683               	bsf	3,5	;RP0=1, select bank1
  2616  163E  1303               	bcf	3,6	;RP1=0, select bank1
  2617  163F  0850               	movf	(?___flmul+2)^(0+128),w
  2618  1640  1683               	bsf	3,5	;RP0=1, select bank3
  2619  1641  1703               	bsf	3,6	;RP1=1, select bank3
  2620  1642  00AF               	movwf	(_pwm_set$1085+2)^(0+384)
  2621  1643  1683               	bsf	3,5	;RP0=1, select bank1
  2622  1644  1303               	bcf	3,6	;RP1=0, select bank1
  2623  1645  084F               	movf	(?___flmul+1)^(0+128),w
  2624  1646  1683               	bsf	3,5	;RP0=1, select bank3
  2625  1647  1703               	bsf	3,6	;RP1=1, select bank3
  2626  1648  00AE               	movwf	(_pwm_set$1085+1)^(0+384)
  2627  1649  1683               	bsf	3,5	;RP0=1, select bank1
  2628  164A  1303               	bcf	3,6	;RP1=0, select bank1
  2629  164B  084E               	movf	?___flmul^(0+128),w
  2630  164C  1683               	bsf	3,5	;RP0=1, select bank3
  2631  164D  1703               	bsf	3,6	;RP1=1, select bank3
  2632  164E  00AD               	movwf	_pwm_set$1085^(0+384)
  2633  164F                     l3573:	
  2634                           
  2635                           ;pwm.c: 60: n_1 = (int)( ( ( (abs(absolute_pwm_dc1)/100.0)*0.0002 )/( 0.0000002 ) ) + 0.
      +                          5 );
  2636  164F  0830               	movf	(_pwm_set$1085+3)^(0+384),w
  2637  1650  1683               	bsf	3,5	;RP0=1, select bank1
  2638  1651  1303               	bcf	3,6	;RP1=0, select bank1
  2639  1652  00BB               	movwf	(___fldiv@b+3)^(0+128)
  2640  1653  1683               	bsf	3,5	;RP0=1, select bank3
  2641  1654  1703               	bsf	3,6	;RP1=1, select bank3
  2642  1655  082F               	movf	(_pwm_set$1085+2)^(0+384),w
  2643  1656  1683               	bsf	3,5	;RP0=1, select bank1
  2644  1657  1303               	bcf	3,6	;RP1=0, select bank1
  2645  1658  00BA               	movwf	(___fldiv@b+2)^(0+128)
  2646  1659  1683               	bsf	3,5	;RP0=1, select bank3
  2647  165A  1703               	bsf	3,6	;RP1=1, select bank3
  2648  165B  082E               	movf	(_pwm_set$1085+1)^(0+384),w
  2649  165C  1683               	bsf	3,5	;RP0=1, select bank1
  2650  165D  1303               	bcf	3,6	;RP1=0, select bank1
  2651  165E  00B9               	movwf	(___fldiv@b+1)^(0+128)
  2652  165F  1683               	bsf	3,5	;RP0=1, select bank3
  2653  1660  1703               	bsf	3,6	;RP1=1, select bank3
  2654  1661  082D               	movf	_pwm_set$1085^(0+384),w
  2655  1662  1683               	bsf	3,5	;RP0=1, select bank1
  2656  1663  1303               	bcf	3,6	;RP1=0, select bank1
  2657  1664  00B8               	movwf	___fldiv@b^(0+128)
  2658  1665  3034               	movlw	52
  2659  1666  00B7               	movwf	(___fldiv@a+3)^(0+128)
  2660  1667  3056               	movlw	86
  2661  1668  00B6               	movwf	(___fldiv@a+2)^(0+128)
  2662  1669  30BF               	movlw	191
  2663  166A  00B5               	movwf	(___fldiv@a+1)^(0+128)
  2664  166B  3095               	movlw	149
  2665  166C  00B4               	movwf	___fldiv@a^(0+128)
  2666  166D  120A  158A  203A  160A  118A  	fcall	___fldiv
  2667  1672  1683               	bsf	3,5	;RP0=1, select bank1
  2668  1673  1303               	bcf	3,6	;RP1=0, select bank1
  2669  1674  0837               	movf	(?___fldiv+3)^(0+128),w
  2670  1675  00EF               	movwf	(___fladd@a+3)^(0+128)
  2671  1676  0836               	movf	(?___fldiv+2)^(0+128),w
  2672  1677  00EE               	movwf	(___fladd@a+2)^(0+128)
  2673  1678  0835               	movf	(?___fldiv+1)^(0+128),w
  2674  1679  00ED               	movwf	(___fladd@a+1)^(0+128)
  2675  167A  0834               	movf	?___fldiv^(0+128),w
  2676  167B  00EC               	movwf	___fladd@a^(0+128)
  2677  167C  303F               	movlw	63
  2678  167D  00EB               	movwf	(___fladd@b+3)^(0+128)
  2679  167E  3000               	movlw	0
  2680  167F  00EA               	movwf	(___fladd@b+2)^(0+128)
  2681  1680  3000               	movlw	0
  2682  1681  00E9               	movwf	(___fladd@b+1)^(0+128)
  2683  1682  3000               	movlw	0
  2684  1683  00E8               	movwf	___fladd@b^(0+128)
  2685  1684  120A  118A  203E  160A  118A  	fcall	___fladd
  2686  1689  1683               	bsf	3,5	;RP0=1, select bank1
  2687  168A  1303               	bcf	3,6	;RP1=0, select bank1
  2688  168B  086B               	movf	(?___fladd+3)^(0+128),w
  2689  168C  1683               	bsf	3,5	;RP0=1, select bank3
  2690  168D  1703               	bsf	3,6	;RP1=1, select bank3
  2691  168E  009F               	movwf	(___fltol@f1+3)^(0+384)
  2692  168F  1683               	bsf	3,5	;RP0=1, select bank1
  2693  1690  1303               	bcf	3,6	;RP1=0, select bank1
  2694  1691  086A               	movf	(?___fladd+2)^(0+128),w
  2695  1692  1683               	bsf	3,5	;RP0=1, select bank3
  2696  1693  1703               	bsf	3,6	;RP1=1, select bank3
  2697  1694  009E               	movwf	(___fltol@f1+2)^(0+384)
  2698  1695  1683               	bsf	3,5	;RP0=1, select bank1
  2699  1696  1303               	bcf	3,6	;RP1=0, select bank1
  2700  1697  0869               	movf	(?___fladd+1)^(0+128),w
  2701  1698  1683               	bsf	3,5	;RP0=1, select bank3
  2702  1699  1703               	bsf	3,6	;RP1=1, select bank3
  2703  169A  009D               	movwf	(___fltol@f1+1)^(0+384)
  2704  169B  1683               	bsf	3,5	;RP0=1, select bank1
  2705  169C  1303               	bcf	3,6	;RP1=0, select bank1
  2706  169D  0868               	movf	?___fladd^(0+128),w
  2707  169E  1683               	bsf	3,5	;RP0=1, select bank3
  2708  169F  1703               	bsf	3,6	;RP1=1, select bank3
  2709  16A0  009C               	movwf	___fltol@f1^(0+384)
  2710  16A1  160A  118A  2032  160A  118A  	fcall	___fltol
  2711  16A6  1683               	bsf	3,5	;RP0=1, select bank3
  2712  16A7  1703               	bsf	3,6	;RP1=1, select bank3
  2713  16A8  081D               	movf	(?___fltol+1)^(0+384),w
  2714  16A9  00C8               	movwf	(pwm_set@n_1+1)^(0+384)
  2715  16AA  081C               	movf	?___fltol^(0+384),w
  2716  16AB  00C7               	movwf	pwm_set@n_1^(0+384)
  2717  16AC                     l3575:	
  2718                           
  2719                           ;pwm.c: 61: n_2 = (int)( ( ( (abs(absolute_pwm_dc2)/100.0)*0.0002 )/( 0.0000002 ) ) + 0.
      +                          5 );
  2720  16AC  0842               	movf	(pwm_set@absolute_pwm_dc2+1)^(0+384),w
  2721  16AD  1683               	bsf	3,5	;RP0=1, select bank1
  2722  16AE  1303               	bcf	3,6	;RP1=0, select bank1
  2723  16AF  00A1               	movwf	(abs@a+1)^(0+128)
  2724  16B0  1683               	bsf	3,5	;RP0=1, select bank3
  2725  16B1  1703               	bsf	3,6	;RP1=1, select bank3
  2726  16B2  0841               	movf	pwm_set@absolute_pwm_dc2^(0+384),w
  2727  16B3  1683               	bsf	3,5	;RP0=1, select bank1
  2728  16B4  1303               	bcf	3,6	;RP1=0, select bank1
  2729  16B5  00A0               	movwf	abs@a^(0+128)
  2730  16B6  160A  158A  245E  160A  118A  	fcall	_abs
  2731  16BB  1683               	bsf	3,5	;RP0=1, select bank1
  2732  16BC  1303               	bcf	3,6	;RP1=0, select bank1
  2733  16BD  0820               	movf	?_abs^(0+128),w
  2734  16BE  00A6               	movwf	___xxtofl@val^(0+128)
  2735  16BF  0821               	movf	(?_abs+1)^(0+128),w
  2736  16C0  00A7               	movwf	(___xxtofl@val+1)^(0+128)
  2737  16C1  3000               	movlw	0
  2738  16C2  1BA7               	btfsc	(___xxtofl@val+1)^(0+128),7
  2739  16C3  30FF               	movlw	255
  2740  16C4  00A8               	movwf	(___xxtofl@val+2)^(0+128)
  2741  16C5  00A9               	movwf	(___xxtofl@val+3)^(0+128)
  2742  16C6  3001               	movlw	1
  2743  16C7  120A  118A  2723  160A  118A  	fcall	___xxtofl
  2744  16CC  1683               	bsf	3,5	;RP0=1, select bank1
  2745  16CD  1303               	bcf	3,6	;RP1=0, select bank1
  2746  16CE  0829               	movf	(?___xxtofl+3)^(0+128),w
  2747  16CF  00BB               	movwf	(___fldiv@b+3)^(0+128)
  2748  16D0  0828               	movf	(?___xxtofl+2)^(0+128),w
  2749  16D1  00BA               	movwf	(___fldiv@b+2)^(0+128)
  2750  16D2  0827               	movf	(?___xxtofl+1)^(0+128),w
  2751  16D3  00B9               	movwf	(___fldiv@b+1)^(0+128)
  2752  16D4  0826               	movf	?___xxtofl^(0+128),w
  2753  16D5  00B8               	movwf	___fldiv@b^(0+128)
  2754  16D6  3042               	movlw	66
  2755  16D7  00B7               	movwf	(___fldiv@a+3)^(0+128)
  2756  16D8  30C8               	movlw	200
  2757  16D9  00B6               	movwf	(___fldiv@a+2)^(0+128)
  2758  16DA  3000               	movlw	0
  2759  16DB  00B5               	movwf	(___fldiv@a+1)^(0+128)
  2760  16DC  3000               	movlw	0
  2761  16DD  00B4               	movwf	___fldiv@a^(0+128)
  2762  16DE  120A  158A  203A  160A  118A  	fcall	___fldiv
  2763  16E3  1683               	bsf	3,5	;RP0=1, select bank1
  2764  16E4  1303               	bcf	3,6	;RP1=0, select bank1
  2765  16E5  0837               	movf	(?___fldiv+3)^(0+128),w
  2766  16E6  00D5               	movwf	(___flmul@a+3)^(0+128)
  2767  16E7  0836               	movf	(?___fldiv+2)^(0+128),w
  2768  16E8  00D4               	movwf	(___flmul@a+2)^(0+128)
  2769  16E9  0835               	movf	(?___fldiv+1)^(0+128),w
  2770  16EA  00D3               	movwf	(___flmul@a+1)^(0+128)
  2771  16EB  0834               	movf	?___fldiv^(0+128),w
  2772  16EC  00D2               	movwf	___flmul@a^(0+128)
  2773  16ED  3039               	movlw	57
  2774  16EE  00D1               	movwf	(___flmul@b+3)^(0+128)
  2775  16EF  3051               	movlw	81
  2776  16F0  00D0               	movwf	(___flmul@b+2)^(0+128)
  2777  16F1  30B7               	movlw	183
  2778  16F2  00CF               	movwf	(___flmul@b+1)^(0+128)
  2779  16F3  3017               	movlw	23
  2780  16F4  00CE               	movwf	___flmul@b^(0+128)
  2781  16F5  120A  118A  23C2  160A  118A  	fcall	___flmul
  2782  16FA  1683               	bsf	3,5	;RP0=1, select bank1
  2783  16FB  1303               	bcf	3,6	;RP1=0, select bank1
  2784  16FC  0851               	movf	(?___flmul+3)^(0+128),w
  2785  16FD  1683               	bsf	3,5	;RP0=1, select bank3
  2786  16FE  1703               	bsf	3,6	;RP1=1, select bank3
  2787  16FF  00B0               	movwf	(_pwm_set$1085+3)^(0+384)
  2788  1700  1683               	bsf	3,5	;RP0=1, select bank1
  2789  1701  1303               	bcf	3,6	;RP1=0, select bank1
  2790  1702  0850               	movf	(?___flmul+2)^(0+128),w
  2791  1703  1683               	bsf	3,5	;RP0=1, select bank3
  2792  1704  1703               	bsf	3,6	;RP1=1, select bank3
  2793  1705  00AF               	movwf	(_pwm_set$1085+2)^(0+384)
  2794  1706  1683               	bsf	3,5	;RP0=1, select bank1
  2795  1707  1303               	bcf	3,6	;RP1=0, select bank1
  2796  1708  084F               	movf	(?___flmul+1)^(0+128),w
  2797  1709  1683               	bsf	3,5	;RP0=1, select bank3
  2798  170A  1703               	bsf	3,6	;RP1=1, select bank3
  2799  170B  00AE               	movwf	(_pwm_set$1085+1)^(0+384)
  2800  170C  1683               	bsf	3,5	;RP0=1, select bank1
  2801  170D  1303               	bcf	3,6	;RP1=0, select bank1
  2802  170E  084E               	movf	?___flmul^(0+128),w
  2803  170F  1683               	bsf	3,5	;RP0=1, select bank3
  2804  1710  1703               	bsf	3,6	;RP1=1, select bank3
  2805  1711  00AD               	movwf	_pwm_set$1085^(0+384)
  2806  1712                     l3577:	
  2807                           
  2808                           ;pwm.c: 61: n_2 = (int)( ( ( (abs(absolute_pwm_dc2)/100.0)*0.0002 )/( 0.0000002 ) ) + 0.
      +                          5 );
  2809  1712  0830               	movf	(_pwm_set$1085+3)^(0+384),w
  2810  1713  1683               	bsf	3,5	;RP0=1, select bank1
  2811  1714  1303               	bcf	3,6	;RP1=0, select bank1
  2812  1715  00BB               	movwf	(___fldiv@b+3)^(0+128)
  2813  1716  1683               	bsf	3,5	;RP0=1, select bank3
  2814  1717  1703               	bsf	3,6	;RP1=1, select bank3
  2815  1718  082F               	movf	(_pwm_set$1085+2)^(0+384),w
  2816  1719  1683               	bsf	3,5	;RP0=1, select bank1
  2817  171A  1303               	bcf	3,6	;RP1=0, select bank1
  2818  171B  00BA               	movwf	(___fldiv@b+2)^(0+128)
  2819  171C  1683               	bsf	3,5	;RP0=1, select bank3
  2820  171D  1703               	bsf	3,6	;RP1=1, select bank3
  2821  171E  082E               	movf	(_pwm_set$1085+1)^(0+384),w
  2822  171F  1683               	bsf	3,5	;RP0=1, select bank1
  2823  1720  1303               	bcf	3,6	;RP1=0, select bank1
  2824  1721  00B9               	movwf	(___fldiv@b+1)^(0+128)
  2825  1722  1683               	bsf	3,5	;RP0=1, select bank3
  2826  1723  1703               	bsf	3,6	;RP1=1, select bank3
  2827  1724  082D               	movf	_pwm_set$1085^(0+384),w
  2828  1725  1683               	bsf	3,5	;RP0=1, select bank1
  2829  1726  1303               	bcf	3,6	;RP1=0, select bank1
  2830  1727  00B8               	movwf	___fldiv@b^(0+128)
  2831  1728  3034               	movlw	52
  2832  1729  00B7               	movwf	(___fldiv@a+3)^(0+128)
  2833  172A  3056               	movlw	86
  2834  172B  00B6               	movwf	(___fldiv@a+2)^(0+128)
  2835  172C  30BF               	movlw	191
  2836  172D  00B5               	movwf	(___fldiv@a+1)^(0+128)
  2837  172E  3095               	movlw	149
  2838  172F  00B4               	movwf	___fldiv@a^(0+128)
  2839  1730  120A  158A  203A  160A  118A  	fcall	___fldiv
  2840  1735  1683               	bsf	3,5	;RP0=1, select bank1
  2841  1736  1303               	bcf	3,6	;RP1=0, select bank1
  2842  1737  0837               	movf	(?___fldiv+3)^(0+128),w
  2843  1738  00EF               	movwf	(___fladd@a+3)^(0+128)
  2844  1739  0836               	movf	(?___fldiv+2)^(0+128),w
  2845  173A  00EE               	movwf	(___fladd@a+2)^(0+128)
  2846  173B  0835               	movf	(?___fldiv+1)^(0+128),w
  2847  173C  00ED               	movwf	(___fladd@a+1)^(0+128)
  2848  173D  0834               	movf	?___fldiv^(0+128),w
  2849  173E  00EC               	movwf	___fladd@a^(0+128)
  2850  173F  303F               	movlw	63
  2851  1740  00EB               	movwf	(___fladd@b+3)^(0+128)
  2852  1741  3000               	movlw	0
  2853  1742  00EA               	movwf	(___fladd@b+2)^(0+128)
  2854  1743  3000               	movlw	0
  2855  1744  00E9               	movwf	(___fladd@b+1)^(0+128)
  2856  1745  3000               	movlw	0
  2857  1746  00E8               	movwf	___fladd@b^(0+128)
  2858  1747  120A  118A  203E  160A  118A  	fcall	___fladd
  2859  174C  1683               	bsf	3,5	;RP0=1, select bank1
  2860  174D  1303               	bcf	3,6	;RP1=0, select bank1
  2861  174E  086B               	movf	(?___fladd+3)^(0+128),w
  2862  174F  1683               	bsf	3,5	;RP0=1, select bank3
  2863  1750  1703               	bsf	3,6	;RP1=1, select bank3
  2864  1751  009F               	movwf	(___fltol@f1+3)^(0+384)
  2865  1752  1683               	bsf	3,5	;RP0=1, select bank1
  2866  1753  1303               	bcf	3,6	;RP1=0, select bank1
  2867  1754  086A               	movf	(?___fladd+2)^(0+128),w
  2868  1755  1683               	bsf	3,5	;RP0=1, select bank3
  2869  1756  1703               	bsf	3,6	;RP1=1, select bank3
  2870  1757  009E               	movwf	(___fltol@f1+2)^(0+384)
  2871  1758  1683               	bsf	3,5	;RP0=1, select bank1
  2872  1759  1303               	bcf	3,6	;RP1=0, select bank1
  2873  175A  0869               	movf	(?___fladd+1)^(0+128),w
  2874  175B  1683               	bsf	3,5	;RP0=1, select bank3
  2875  175C  1703               	bsf	3,6	;RP1=1, select bank3
  2876  175D  009D               	movwf	(___fltol@f1+1)^(0+384)
  2877  175E  1683               	bsf	3,5	;RP0=1, select bank1
  2878  175F  1303               	bcf	3,6	;RP1=0, select bank1
  2879  1760  0868               	movf	?___fladd^(0+128),w
  2880  1761  1683               	bsf	3,5	;RP0=1, select bank3
  2881  1762  1703               	bsf	3,6	;RP1=1, select bank3
  2882  1763  009C               	movwf	___fltol@f1^(0+384)
  2883  1764  160A  118A  2032  160A  118A  	fcall	___fltol
  2884  1769  1683               	bsf	3,5	;RP0=1, select bank3
  2885  176A  1703               	bsf	3,6	;RP1=1, select bank3
  2886  176B  081D               	movf	(?___fltol+1)^(0+384),w
  2887  176C  00C6               	movwf	(pwm_set@n_2+1)^(0+384)
  2888  176D  081C               	movf	?___fltol^(0+384),w
  2889  176E  00C5               	movwf	pwm_set@n_2^(0+384)
  2890  176F                     l3579:	
  2891                           
  2892                           ;pwm.c: 64: CCPR1L = n_1 >> 2;
  2893  176F  0848               	movf	(pwm_set@n_1+1)^(0+384),w
  2894  1770  00AC               	movwf	(??_pwm_set^(0+384)+1)
  2895  1771  0847               	movf	pwm_set@n_1^(0+384),w
  2896  1772  00AB               	movwf	??_pwm_set^(0+384)
  2897  1773  1003               	clrc
  2898  1774  0CAC               	rrf	(??_pwm_set^(0+384)+1),f
  2899  1775  0CAB               	rrf	??_pwm_set^(0+384),f
  2900  1776  1003               	clrc
  2901  1777  0CAC               	rrf	(??_pwm_set^(0+384)+1),f
  2902  1778  0CAB               	rrf	??_pwm_set^(0+384),f
  2903  1779  082B               	movf	??_pwm_set^(0+384),w
  2904  177A  1283               	bcf	3,5	;RP0=0, select bank0
  2905  177B  1303               	bcf	3,6	;RP1=0, select bank0
  2906  177C  0095               	movwf	21	;volatile
  2907  177D                     l3581:	
  2908                           
  2909                           ;pwm.c: 65: CCP1CONbits.DC1B = n_1 % 4;
  2910  177D  1683               	bsf	3,5	;RP0=1, select bank3
  2911  177E  1703               	bsf	3,6	;RP1=1, select bank3
  2912  177F  0847               	movf	pwm_set@n_1^(0+384),w
  2913  1780  3903               	andlw	3
  2914  1781  00AB               	movwf	??_pwm_set^(0+384)
  2915  1782  0EAB               	swapf	??_pwm_set^(0+384),f
  2916  1783  1283               	bcf	3,5	;RP0=0, select bank0
  2917  1784  1303               	bcf	3,6	;RP1=0, select bank0
  2918  1785  0817               	movf	23,w	;volatile
  2919  1786  1683               	bsf	3,5	;RP0=1, select bank3
  2920  1787  1703               	bsf	3,6	;RP1=1, select bank3
  2921  1788  062B               	xorwf	??_pwm_set^(0+384),w
  2922  1789  39CF               	andlw	-49
  2923  178A  062B               	xorwf	??_pwm_set^(0+384),w
  2924  178B  1283               	bcf	3,5	;RP0=0, select bank0
  2925  178C  1303               	bcf	3,6	;RP1=0, select bank0
  2926  178D  0097               	movwf	23	;volatile
  2927  178E                     l3583:	
  2928                           
  2929                           ;pwm.c: 67: CCPR2L = n_2 >> 2;
  2930  178E  1683               	bsf	3,5	;RP0=1, select bank3
  2931  178F  1703               	bsf	3,6	;RP1=1, select bank3
  2932  1790  0846               	movf	(pwm_set@n_2+1)^(0+384),w
  2933  1791  00AC               	movwf	(??_pwm_set^(0+384)+1)
  2934  1792  0845               	movf	pwm_set@n_2^(0+384),w
  2935  1793  00AB               	movwf	??_pwm_set^(0+384)
  2936  1794  1003               	clrc
  2937  1795  0CAC               	rrf	(??_pwm_set^(0+384)+1),f
  2938  1796  0CAB               	rrf	??_pwm_set^(0+384),f
  2939  1797  1003               	clrc
  2940  1798  0CAC               	rrf	(??_pwm_set^(0+384)+1),f
  2941  1799  0CAB               	rrf	??_pwm_set^(0+384),f
  2942  179A  082B               	movf	??_pwm_set^(0+384),w
  2943  179B  1283               	bcf	3,5	;RP0=0, select bank0
  2944  179C  1303               	bcf	3,6	;RP1=0, select bank0
  2945  179D  009B               	movwf	27	;volatile
  2946  179E                     l3585:	
  2947                           
  2948                           ;pwm.c: 68: DC2B1 = (n_2 % 4) >> 1;
  2949  179E  1683               	bsf	3,5	;RP0=1, select bank3
  2950  179F  1703               	bsf	3,6	;RP1=1, select bank3
  2951  17A0  0846               	movf	(pwm_set@n_2+1)^(0+384),w
  2952  17A1  00AC               	movwf	(??_pwm_set^(0+384)+1)
  2953  17A2  0845               	movf	pwm_set@n_2^(0+384),w
  2954  17A3  00AB               	movwf	??_pwm_set^(0+384)
  2955  17A4  1003               	clrc
  2956  17A5  0CAC               	rrf	(??_pwm_set^(0+384)+1),f
  2957  17A6  0CAB               	rrf	??_pwm_set^(0+384),f
  2958  17A7  182B               	btfsc	??_pwm_set^(0+384),0
  2959  17A8  2FAA               	goto	u6021
  2960  17A9  2FAE               	goto	u6020
  2961  17AA                     u6021:	
  2962  17AA  1283               	bcf	3,5	;RP0=0, select bank0
  2963  17AB  1303               	bcf	3,6	;RP1=0, select bank0
  2964  17AC  169D               	bsf	29,5	;volatile
  2965  17AD  2FB1               	goto	u6034
  2966  17AE                     u6020:	
  2967  17AE  1283               	bcf	3,5	;RP0=0, select bank0
  2968  17AF  1303               	bcf	3,6	;RP1=0, select bank0
  2969  17B0  129D               	bcf	29,5	;volatile
  2970  17B1                     u6034:	
  2971  17B1                     l3587:	
  2972                           
  2973                           ;pwm.c: 69: DC2B0 = (n_2 % 4) % 2;
  2974  17B1  1683               	bsf	3,5	;RP0=1, select bank3
  2975  17B2  1703               	bsf	3,6	;RP1=1, select bank3
  2976  17B3  1845               	btfsc	pwm_set@n_2^(0+384),0
  2977  17B4  2FB6               	goto	u6041
  2978  17B5  2FBA               	goto	u6040
  2979  17B6                     u6041:	
  2980  17B6  1283               	bcf	3,5	;RP0=0, select bank0
  2981  17B7  1303               	bcf	3,6	;RP1=0, select bank0
  2982  17B8  161D               	bsf	29,4	;volatile
  2983  17B9  2FBD               	goto	u6054
  2984  17BA                     u6040:	
  2985  17BA  1283               	bcf	3,5	;RP0=0, select bank0
  2986  17BB  1303               	bcf	3,6	;RP1=0, select bank0
  2987  17BC  121D               	bcf	29,4	;volatile
  2988  17BD                     u6054:	
  2989  17BD                     l3589:	
  2990                           
  2991                           ;pwm.c: 73: if (pwm_dc1*pwm_dc2 > 0) {
  2992  17BD  1683               	bsf	3,5	;RP0=1, select bank3
  2993  17BE  1703               	bsf	3,6	;RP1=1, select bank3
  2994  17BF  0828               	movf	(pwm_set@pwm_dc1+1)^(0+384),w
  2995  17C0  1683               	bsf	3,5	;RP0=1, select bank1
  2996  17C1  1303               	bcf	3,6	;RP1=0, select bank1
  2997  17C2  00A1               	movwf	(___wmul@multiplier+1)^(0+128)
  2998  17C3  1683               	bsf	3,5	;RP0=1, select bank3
  2999  17C4  1703               	bsf	3,6	;RP1=1, select bank3
  3000  17C5  0827               	movf	pwm_set@pwm_dc1^(0+384),w
  3001  17C6  1683               	bsf	3,5	;RP0=1, select bank1
  3002  17C7  1303               	bcf	3,6	;RP1=0, select bank1
  3003  17C8  00A0               	movwf	___wmul@multiplier^(0+128)
  3004  17C9  1683               	bsf	3,5	;RP0=1, select bank3
  3005  17CA  1703               	bsf	3,6	;RP1=1, select bank3
  3006  17CB  082A               	movf	(pwm_set@pwm_dc2+1)^(0+384),w
  3007  17CC  1683               	bsf	3,5	;RP0=1, select bank1
  3008  17CD  1303               	bcf	3,6	;RP1=0, select bank1
  3009  17CE  00A3               	movwf	(___wmul@multiplicand+1)^(0+128)
  3010  17CF  1683               	bsf	3,5	;RP0=1, select bank3
  3011  17D0  1703               	bsf	3,6	;RP1=1, select bank3
  3012  17D1  0829               	movf	pwm_set@pwm_dc2^(0+384),w
  3013  17D2  1683               	bsf	3,5	;RP0=1, select bank1
  3014  17D3  1303               	bcf	3,6	;RP1=0, select bank1
  3015  17D4  00A2               	movwf	___wmul@multiplicand^(0+128)
  3016  17D5  160A  158A  24F8  160A  118A  	fcall	___wmul
  3017  17DA  1683               	bsf	3,5	;RP0=1, select bank1
  3018  17DB  1303               	bcf	3,6	;RP1=0, select bank1
  3019  17DC  0821               	movf	(?___wmul+1)^(0+128),w
  3020  17DD  3A80               	xorlw	128
  3021  17DE  00FF               	movwf	btemp+1
  3022  17DF  3080               	movlw	128
  3023  17E0  027F               	subwf	btemp+1,w
  3024  17E1  1D03               	skipz
  3025  17E2  2FE5               	goto	u6065
  3026  17E3  3001               	movlw	1
  3027  17E4  0220               	subwf	?___wmul^(0+128),w
  3028  17E5                     u6065:	
  3029  17E5  1C03               	skipc
  3030  17E6  2FE8               	goto	u6061
  3031  17E7  2FE9               	goto	u6060
  3032  17E8                     u6061:	
  3033  17E8  2FFF               	goto	l278
  3034  17E9                     u6060:	
  3035  17E9                     l3591:	
  3036                           
  3037                           ;pwm.c: 74: pwm_dc1 > 0 ? RA1, RB1 = 0 : RA1, RB1 = 1;
  3038  17E9  1683               	bsf	3,5	;RP0=1, select bank3
  3039  17EA  1703               	bsf	3,6	;RP1=1, select bank3
  3040  17EB  0828               	movf	(pwm_set@pwm_dc1+1)^(0+384),w
  3041  17EC  3A80               	xorlw	128
  3042  17ED  00FF               	movwf	btemp+1
  3043  17EE  3080               	movlw	128
  3044  17EF  027F               	subwf	btemp+1,w
  3045  17F0  1D03               	skipz
  3046  17F1  2FF4               	goto	u6075
  3047  17F2  3001               	movlw	1
  3048  17F3  0227               	subwf	pwm_set@pwm_dc1^(0+384),w
  3049  17F4                     u6075:	
  3050  17F4  1C03               	skipc
  3051  17F5  2FF7               	goto	u6071
  3052  17F6  2FF8               	goto	u6070
  3053  17F7                     u6071:	
  3054  17F7  2FFC               	goto	l275
  3055  17F8                     u6070:	
  3056  17F8                     l3593:	
  3057  17F8  1283               	bcf	3,5	;RP0=0, select bank0
  3058  17F9  1303               	bcf	3,6	;RP1=0, select bank0
  3059  17FA  1086               	bcf	6,1	;volatile
  3060  17FB  2FFF               	goto	l278
  3061  17FC                     l275:	
  3062  17FC  1283               	bcf	3,5	;RP0=0, select bank0
  3063  17FD  1303               	bcf	3,6	;RP1=0, select bank0
  3064  17FE  1486               	bsf	6,1	;volatile
  3065  17FF                     l278:	
  3066  17FF  0008               	return
  3067  1800                     __end_of_pwm_set:	
  3068                           
  3069                           	psect	text7
  3070  1C5E                     __ptext7:	
  3071 ;; *************** function _abs *****************
  3072 ;; Defined at:
  3073 ;;		line 4 in file "C:\Program Files (x86)\Microchip\xc8\v2.10\pic\sources\c90\common\abs.c"
  3074 ;; Parameters:    Size  Location     Type
  3075 ;;  a               2    0[BANK1 ] int 
  3076 ;; Auto vars:     Size  Location     Type
  3077 ;;		None
  3078 ;; Return value:  Size  Location     Type
  3079 ;;                  2    0[BANK1 ] int 
  3080 ;; Registers used:
  3081 ;;		wreg, status,2, status,0
  3082 ;; Tracked objects:
  3083 ;;		On entry : 0/0
  3084 ;;		On exit  : 0/0
  3085 ;;		Unchanged: 0/0
  3086 ;; Data sizes:     COMMON   BANK0   BANK1   BANK3   BANK2
  3087 ;;      Params:         0       0       2       0       0
  3088 ;;      Locals:         0       0       0       0       0
  3089 ;;      Temps:          0       0       2       0       0
  3090 ;;      Totals:         0       0       4       0       0
  3091 ;;Total ram usage:        4 bytes
  3092 ;; Hardware stack levels used:    1
  3093 ;; Hardware stack levels required when called:    4
  3094 ;; This function calls:
  3095 ;;		Nothing
  3096 ;; This function is called by:
  3097 ;;		_pwm_set
  3098 ;; This function uses a non-reentrant model
  3099 ;;
  3100                           
  3101                           
  3102                           ;psect for function _abs
  3103  1C5E                     _abs:	
  3104  1C5E                     l2371:	
  3105                           ;incstack = 0
  3106                           ; Regs used in _abs: [wreg+status,2+status,0]
  3107                           
  3108  1C5E  1683               	bsf	3,5	;RP0=1, select bank1
  3109  1C5F  1303               	bcf	3,6	;RP1=0, select bank1
  3110  1C60  1FA1               	btfss	(abs@a+1)^(0+128),7
  3111  1C61  2C63               	goto	u3301
  3112  1C62  2C64               	goto	u3300
  3113  1C63                     u3301:	
  3114  1C63  2C70               	goto	l848
  3115  1C64                     u3300:	
  3116  1C64                     l2373:	
  3117  1C64  0920               	comf	abs@a^(0+128),w
  3118  1C65  00A2               	movwf	??_abs^(0+128)
  3119  1C66  0921               	comf	(abs@a+1)^(0+128),w
  3120  1C67  00A3               	movwf	(??_abs^(0+128)+1)
  3121  1C68  0AA2               	incf	??_abs^(0+128),f
  3122  1C69  1903               	skipnz
  3123  1C6A  0AA3               	incf	(??_abs^(0+128)+1),f
  3124  1C6B  0822               	movf	??_abs^(0+128),w
  3125  1C6C  00A0               	movwf	?_abs^(0+128)
  3126  1C6D  0823               	movf	(??_abs+1)^(0+128),w
  3127  1C6E  00A1               	movwf	(?_abs+1)^(0+128)
  3128  1C6F  2C70               	goto	l849
  3129  1C70                     l848:	
  3130  1C70                     l849:	
  3131  1C70  0008               	return
  3132  1C71                     __end_of_abs:	
  3133                           
  3134                           	psect	text8
  3135  1009                     __ptext8:	
  3136 ;; *************** function _pwm_init *****************
  3137 ;; Defined at:
  3138 ;;		line 11 in file "pwm.c"
  3139 ;; Parameters:    Size  Location     Type
  3140 ;;		None
  3141 ;; Auto vars:     Size  Location     Type
  3142 ;;  pwm_dc2         2    0        int 
  3143 ;;  pwm_dc1         2    0        int 
  3144 ;; Return value:  Size  Location     Type
  3145 ;;                  1    wreg      void 
  3146 ;; Registers used:
  3147 ;;		wreg, status,2, status,0
  3148 ;; Tracked objects:
  3149 ;;		On entry : 0/0
  3150 ;;		On exit  : 0/0
  3151 ;;		Unchanged: 0/0
  3152 ;; Data sizes:     COMMON   BANK0   BANK1   BANK3   BANK2
  3153 ;;      Params:         0       0       0       0       0
  3154 ;;      Locals:         0       0       4       0       0
  3155 ;;      Temps:          0       0       0       0       0
  3156 ;;      Totals:         0       0       4       0       0
  3157 ;;Total ram usage:        4 bytes
  3158 ;; Hardware stack levels used:    1
  3159 ;; Hardware stack levels required when called:    4
  3160 ;; This function calls:
  3161 ;;		Nothing
  3162 ;; This function is called by:
  3163 ;;		_main
  3164 ;; This function uses a non-reentrant model
  3165 ;;
  3166                           
  3167                           
  3168                           ;psect for function _pwm_init
  3169  1009                     _pwm_init:	
  3170  1009                     l3513:	
  3171                           ;incstack = 0
  3172                           ; Regs used in _pwm_init: [wreg+status,2+status,0]
  3173                           
  3174                           
  3175                           ;pwm.c: 13: TRISC1 = 1;
  3176  1009  1683               	bsf	3,5	;RP0=1, select bank1
  3177  100A  1303               	bcf	3,6	;RP1=0, select bank1
  3178  100B  1487               	bsf	7,1	;volatile
  3179                           
  3180                           ;pwm.c: 15: TRISC2 = 1;
  3181  100C  1507               	bsf	7,2	;volatile
  3182  100D                     l3515:	
  3183                           
  3184                           ;pwm.c: 18: CCP1CONbits.P1M = 0;
  3185  100D  303F               	movlw	-193
  3186  100E  1283               	bcf	3,5	;RP0=0, select bank0
  3187  100F  1303               	bcf	3,6	;RP1=0, select bank0
  3188  1010  0597               	andwf	23,f	;volatile
  3189                           
  3190                           ;pwm.c: 21: CCP1CONbits.CCP1M = 0b1100;
  3191  1011  0817               	movf	23,w	;volatile
  3192  1012  39F0               	andlw	-16
  3193  1013  380C               	iorlw	12
  3194  1014  0097               	movwf	23	;volatile
  3195                           
  3196                           ;pwm.c: 22: CCP2CONbits.CCP2M = 0b1100;
  3197  1015  081D               	movf	29,w	;volatile
  3198  1016  39F0               	andlw	-16
  3199  1017  380C               	iorlw	12
  3200  1018  009D               	movwf	29	;volatile
  3201  1019                     l3517:	
  3202  1019                     l3519:	
  3203  1019                     l3521:	
  3204                           
  3205                           ;pwm.c: 27: PR2 = 255;
  3206  1019  30FF               	movlw	255
  3207  101A  1683               	bsf	3,5	;RP0=1, select bank1
  3208  101B  1303               	bcf	3,6	;RP1=0, select bank1
  3209  101C  0092               	movwf	18	;volatile
  3210  101D                     l3523:	
  3211                           
  3212                           ;pwm.c: 30: ANS1 = 0;
  3213  101D  1683               	bsf	3,5	;RP0=1, select bank3
  3214  101E  1703               	bsf	3,6	;RP1=1, select bank3
  3215  101F  1088               	bcf	8,1	;volatile
  3216  1020                     l3525:	
  3217                           
  3218                           ;pwm.c: 31: RA1 = 0;
  3219  1020  1283               	bcf	3,5	;RP0=0, select bank0
  3220  1021  1303               	bcf	3,6	;RP1=0, select bank0
  3221  1022  1085               	bcf	5,1	;volatile
  3222  1023                     l3527:	
  3223                           
  3224                           ;pwm.c: 34: ANS10 = 0;
  3225  1023  1683               	bsf	3,5	;RP0=1, select bank3
  3226  1024  1703               	bsf	3,6	;RP1=1, select bank3
  3227  1025  1109               	bcf	9,2	;volatile
  3228  1026                     l3529:	
  3229                           
  3230                           ;pwm.c: 35: RB1 = 0;
  3231  1026  1283               	bcf	3,5	;RP0=0, select bank0
  3232  1027  1303               	bcf	3,6	;RP1=0, select bank0
  3233  1028  1086               	bcf	6,1	;volatile
  3234  1029                     l259:	
  3235                           ;pwm.c: 37: while(!TMR2IF);
  3236                           
  3237  1029  1C8C               	btfss	12,1	;volatile
  3238  102A  282C               	goto	u5981
  3239  102B  282D               	goto	u5980
  3240  102C                     u5981:	
  3241  102C  2829               	goto	l259
  3242  102D                     u5980:	
  3243  102D                     l261:	
  3244                           
  3245                           ;pwm.c: 38: TRISC1 = 0;
  3246  102D  1683               	bsf	3,5	;RP0=1, select bank1
  3247  102E  1303               	bcf	3,6	;RP1=0, select bank1
  3248  102F  1087               	bcf	7,1	;volatile
  3249                           
  3250                           ;pwm.c: 39: TRISC2 = 0;
  3251  1030  1107               	bcf	7,2	;volatile
  3252  1031                     l262:	
  3253  1031  0008               	return
  3254  1032                     __end_of_pwm_init:	
  3255                           
  3256                           	psect	text9
  3257  136A                     __ptext9:	
  3258 ;; *************** function _pwm_calc *****************
  3259 ;; Defined at:
  3260 ;;		line 79 in file "pwm.c"
  3261 ;; Parameters:    Size  Location     Type
  3262 ;;  adc_value       2   23[BANK3 ] int 
  3263 ;;  pwm_dc1         1   25[BANK3 ] PTR int 
  3264 ;;		 -> pwm_dc1(2), 
  3265 ;;  pwm_dc2         1   26[BANK3 ] PTR int 
  3266 ;;		 -> pwm_dc2(2), 
  3267 ;; Auto vars:     Size  Location     Type
  3268 ;;		None
  3269 ;; Return value:  Size  Location     Type
  3270 ;;                  2   23[BANK3 ] int 
  3271 ;; Registers used:
  3272 ;;		wreg, fsr0l, fsr0h, status,2, status,0, btemp+1, pclath, cstack
  3273 ;; Tracked objects:
  3274 ;;		On entry : 0/0
  3275 ;;		On exit  : 0/0
  3276 ;;		Unchanged: 0/0
  3277 ;; Data sizes:     COMMON   BANK0   BANK1   BANK3   BANK2
  3278 ;;      Params:         0       0       0       4       0
  3279 ;;      Locals:         0       0       0       0       0
  3280 ;;      Temps:          0       0       0       6       0
  3281 ;;      Totals:         0       0       0      10       0
  3282 ;;Total ram usage:       10 bytes
  3283 ;; Hardware stack levels used:    1
  3284 ;; Hardware stack levels required when called:    6
  3285 ;; This function calls:
  3286 ;;		___fladd
  3287 ;;		___fldiv
  3288 ;;		___flmul
  3289 ;;		___fltol
  3290 ;;		___wmul
  3291 ;;		___xxtofl
  3292 ;; This function is called by:
  3293 ;;		_main
  3294 ;; This function uses a non-reentrant model
  3295 ;;
  3296                           
  3297                           
  3298                           ;psect for function _pwm_calc
  3299  136A                     _pwm_calc:	
  3300  136A                     l3531:	
  3301                           ;incstack = 0
  3302                           ; Regs used in _pwm_calc: [wreg-fsr0h+status,2+status,0+btemp+1+pclath+cstack]
  3303                           
  3304                           
  3305                           ;pwm.c: 80: static int radius;;pwm.c: 82: if (RA1 = 0) {
  3306  136A  1283               	bcf	3,5	;RP0=0, select bank0
  3307  136B  1303               	bcf	3,6	;RP1=0, select bank0
  3308  136C  1085               	bcf	5,1	;volatile
  3309  136D  1C85               	btfss	5,1	;volatile
  3310  136E  2B70               	goto	u5991
  3311  136F  2B71               	goto	u5990
  3312  1370                     u5991:	
  3313  1370  2C8F               	goto	l3551
  3314  1371                     u5990:	
  3315  1371                     l3533:	
  3316                           
  3317                           ;pwm.c: 85: *pwm_dc1 = (int)((adc_value/1023.0)*100 + 0.5);
  3318  1371  1683               	bsf	3,5	;RP0=1, select bank3
  3319  1372  1703               	bsf	3,6	;RP1=1, select bank3
  3320  1373  0827               	movf	pwm_calc@adc_value^(0+384),w
  3321  1374  1683               	bsf	3,5	;RP0=1, select bank1
  3322  1375  1303               	bcf	3,6	;RP1=0, select bank1
  3323  1376  00A6               	movwf	___xxtofl@val^(0+128)
  3324  1377  1683               	bsf	3,5	;RP0=1, select bank3
  3325  1378  1703               	bsf	3,6	;RP1=1, select bank3
  3326  1379  0828               	movf	(pwm_calc@adc_value+1)^(0+384),w
  3327  137A  1683               	bsf	3,5	;RP0=1, select bank1
  3328  137B  1303               	bcf	3,6	;RP1=0, select bank1
  3329  137C  00A7               	movwf	(___xxtofl@val+1)^(0+128)
  3330  137D  3000               	movlw	0
  3331  137E  1BA7               	btfsc	(___xxtofl@val+1)^(0+128),7
  3332  137F  30FF               	movlw	255
  3333  1380  00A8               	movwf	(___xxtofl@val+2)^(0+128)
  3334  1381  00A9               	movwf	(___xxtofl@val+3)^(0+128)
  3335  1382  3001               	movlw	1
  3336  1383  120A  118A  2723  160A  118A  	fcall	___xxtofl
  3337  1388  1683               	bsf	3,5	;RP0=1, select bank1
  3338  1389  1303               	bcf	3,6	;RP1=0, select bank1
  3339  138A  0829               	movf	(?___xxtofl+3)^(0+128),w
  3340  138B  00BB               	movwf	(___fldiv@b+3)^(0+128)
  3341  138C  0828               	movf	(?___xxtofl+2)^(0+128),w
  3342  138D  00BA               	movwf	(___fldiv@b+2)^(0+128)
  3343  138E  0827               	movf	(?___xxtofl+1)^(0+128),w
  3344  138F  00B9               	movwf	(___fldiv@b+1)^(0+128)
  3345  1390  0826               	movf	?___xxtofl^(0+128),w
  3346  1391  00B8               	movwf	___fldiv@b^(0+128)
  3347  1392  3044               	movlw	68
  3348  1393  00B7               	movwf	(___fldiv@a+3)^(0+128)
  3349  1394  307F               	movlw	127
  3350  1395  00B6               	movwf	(___fldiv@a+2)^(0+128)
  3351  1396  30C0               	movlw	192
  3352  1397  00B5               	movwf	(___fldiv@a+1)^(0+128)
  3353  1398  3000               	movlw	0
  3354  1399  00B4               	movwf	___fldiv@a^(0+128)
  3355  139A  120A  158A  203A  160A  118A  	fcall	___fldiv
  3356  139F  1683               	bsf	3,5	;RP0=1, select bank1
  3357  13A0  1303               	bcf	3,6	;RP1=0, select bank1
  3358  13A1  0837               	movf	(?___fldiv+3)^(0+128),w
  3359  13A2  00D5               	movwf	(___flmul@a+3)^(0+128)
  3360  13A3  0836               	movf	(?___fldiv+2)^(0+128),w
  3361  13A4  00D4               	movwf	(___flmul@a+2)^(0+128)
  3362  13A5  0835               	movf	(?___fldiv+1)^(0+128),w
  3363  13A6  00D3               	movwf	(___flmul@a+1)^(0+128)
  3364  13A7  0834               	movf	?___fldiv^(0+128),w
  3365  13A8  00D2               	movwf	___flmul@a^(0+128)
  3366  13A9  3042               	movlw	66
  3367  13AA  00D1               	movwf	(___flmul@b+3)^(0+128)
  3368  13AB  30C8               	movlw	200
  3369  13AC  00D0               	movwf	(___flmul@b+2)^(0+128)
  3370  13AD  3000               	movlw	0
  3371  13AE  00CF               	movwf	(___flmul@b+1)^(0+128)
  3372  13AF  3000               	movlw	0
  3373  13B0  00CE               	movwf	___flmul@b^(0+128)
  3374  13B1  120A  118A  23C2  160A  118A  	fcall	___flmul
  3375  13B6  1683               	bsf	3,5	;RP0=1, select bank1
  3376  13B7  1303               	bcf	3,6	;RP1=0, select bank1
  3377  13B8  0851               	movf	(?___flmul+3)^(0+128),w
  3378  13B9  00EF               	movwf	(___fladd@a+3)^(0+128)
  3379  13BA  0850               	movf	(?___flmul+2)^(0+128),w
  3380  13BB  00EE               	movwf	(___fladd@a+2)^(0+128)
  3381  13BC  084F               	movf	(?___flmul+1)^(0+128),w
  3382  13BD  00ED               	movwf	(___fladd@a+1)^(0+128)
  3383  13BE  084E               	movf	?___flmul^(0+128),w
  3384  13BF  00EC               	movwf	___fladd@a^(0+128)
  3385  13C0  303F               	movlw	63
  3386  13C1  00EB               	movwf	(___fladd@b+3)^(0+128)
  3387  13C2  3000               	movlw	0
  3388  13C3  00EA               	movwf	(___fladd@b+2)^(0+128)
  3389  13C4  3000               	movlw	0
  3390  13C5  00E9               	movwf	(___fladd@b+1)^(0+128)
  3391  13C6  3000               	movlw	0
  3392  13C7  00E8               	movwf	___fladd@b^(0+128)
  3393  13C8  120A  118A  203E  160A  118A  	fcall	___fladd
  3394  13CD  1683               	bsf	3,5	;RP0=1, select bank1
  3395  13CE  1303               	bcf	3,6	;RP1=0, select bank1
  3396  13CF  086B               	movf	(?___fladd+3)^(0+128),w
  3397  13D0  1683               	bsf	3,5	;RP0=1, select bank3
  3398  13D1  1703               	bsf	3,6	;RP1=1, select bank3
  3399  13D2  009F               	movwf	(___fltol@f1+3)^(0+384)
  3400  13D3  1683               	bsf	3,5	;RP0=1, select bank1
  3401  13D4  1303               	bcf	3,6	;RP1=0, select bank1
  3402  13D5  086A               	movf	(?___fladd+2)^(0+128),w
  3403  13D6  1683               	bsf	3,5	;RP0=1, select bank3
  3404  13D7  1703               	bsf	3,6	;RP1=1, select bank3
  3405  13D8  009E               	movwf	(___fltol@f1+2)^(0+384)
  3406  13D9  1683               	bsf	3,5	;RP0=1, select bank1
  3407  13DA  1303               	bcf	3,6	;RP1=0, select bank1
  3408  13DB  0869               	movf	(?___fladd+1)^(0+128),w
  3409  13DC  1683               	bsf	3,5	;RP0=1, select bank3
  3410  13DD  1703               	bsf	3,6	;RP1=1, select bank3
  3411  13DE  009D               	movwf	(___fltol@f1+1)^(0+384)
  3412  13DF  1683               	bsf	3,5	;RP0=1, select bank1
  3413  13E0  1303               	bcf	3,6	;RP1=0, select bank1
  3414  13E1  0868               	movf	?___fladd^(0+128),w
  3415  13E2  1683               	bsf	3,5	;RP0=1, select bank3
  3416  13E3  1703               	bsf	3,6	;RP1=1, select bank3
  3417  13E4  009C               	movwf	___fltol@f1^(0+384)
  3418  13E5  160A  118A  2032  160A  118A  	fcall	___fltol
  3419  13EA  1683               	bsf	3,5	;RP0=1, select bank3
  3420  13EB  1703               	bsf	3,6	;RP1=1, select bank3
  3421  13EC  0829               	movf	pwm_calc@pwm_dc1^(0+384),w
  3422  13ED  0084               	movwf	4
  3423  13EE  081C               	movf	?___fltol^(0+384),w
  3424  13EF  1383               	bcf	3,7	;select IRP bank0
  3425  13F0  0080               	movwf	0
  3426  13F1  0A84               	incf	4,f
  3427  13F2  081D               	movf	(?___fltol+1)^(0+384),w
  3428  13F3  0080               	movwf	0
  3429  13F4                     l3535:	
  3430                           
  3431                           ;pwm.c: 86: *pwm_dc2 = 100 - *pwm_dc1;
  3432  13F4  0829               	movf	pwm_calc@pwm_dc1^(0+384),w
  3433  13F5  0084               	movwf	4
  3434  13F6  0800               	movf	0,w
  3435  13F7  00AB               	movwf	??_pwm_calc^(0+384)
  3436  13F8  0A84               	incf	4,f
  3437  13F9  0800               	movf	0,w
  3438  13FA  00AC               	movwf	(??_pwm_calc^(0+384)+1)
  3439  13FB  3064               	movlw	100
  3440  13FC  00AD               	movwf	(??_pwm_calc+2)^(0+384)
  3441  13FD  082B               	movf	??_pwm_calc^(0+384),w
  3442  13FE  022D               	subwf	(??_pwm_calc+2)^(0+384),w
  3443  13FF  00AE               	movwf	(??_pwm_calc+3)^(0+384)
  3444  1400  092C               	comf	(??_pwm_calc+1)^(0+384),w
  3445  1401  1803               	skipnc
  3446  1402  3E01               	addlw	1
  3447  1403  00AF               	movwf	((??_pwm_calc+3)^(0+384)+1)
  3448  1404  082A               	movf	pwm_calc@pwm_dc2^(0+384),w
  3449  1405  0084               	movwf	4
  3450  1406  082E               	movf	(??_pwm_calc+3)^(0+384),w
  3451  1407  0080               	movwf	0
  3452  1408  0A84               	incf	4,f
  3453  1409  082F               	movf	(??_pwm_calc+4)^(0+384),w
  3454  140A  0080               	movwf	0
  3455  140B                     l3537:	
  3456                           
  3457                           ;pwm.c: 96: if (adc_value != 512) {
  3458  140B  3002               	movlw	2
  3459  140C  0628               	xorwf	(pwm_calc@adc_value+1)^(0+384),w
  3460  140D  0427               	iorwf	pwm_calc@adc_value^(0+384),w
  3461  140E  1903               	btfsc	3,2
  3462  140F  2C11               	goto	u6001
  3463  1410  2C12               	goto	u6000
  3464  1411                     u6001:	
  3465  1411  2C8C               	goto	l3547
  3466  1412                     u6000:	
  3467  1412                     l3539:	
  3468                           
  3469                           ;pwm.c: 97: radius = (int)(11250.0/((6*(*pwm_dc1)) - 300));
  3470  1412  3046               	movlw	70
  3471  1413  1683               	bsf	3,5	;RP0=1, select bank1
  3472  1414  1303               	bcf	3,6	;RP1=0, select bank1
  3473  1415  00BB               	movwf	(___fldiv@b+3)^(0+128)
  3474  1416  302F               	movlw	47
  3475  1417  00BA               	movwf	(___fldiv@b+2)^(0+128)
  3476  1418  30C8               	movlw	200
  3477  1419  00B9               	movwf	(___fldiv@b+1)^(0+128)
  3478  141A  3000               	movlw	0
  3479  141B  00B8               	movwf	___fldiv@b^(0+128)
  3480  141C  3006               	movlw	6
  3481  141D  00A2               	movwf	___wmul@multiplicand^(0+128)
  3482  141E  3000               	movlw	0
  3483  141F  00A3               	movwf	(___wmul@multiplicand^(0+128)+1)
  3484  1420  1683               	bsf	3,5	;RP0=1, select bank3
  3485  1421  1703               	bsf	3,6	;RP1=1, select bank3
  3486  1422  0829               	movf	pwm_calc@pwm_dc1^(0+384),w
  3487  1423  0084               	movwf	4
  3488  1424  0800               	movf	0,w
  3489  1425  1683               	bsf	3,5	;RP0=1, select bank1
  3490  1426  1303               	bcf	3,6	;RP1=0, select bank1
  3491  1427  00A0               	movwf	___wmul@multiplier^(0+128)
  3492  1428  0A84               	incf	4,f
  3493  1429  0800               	movf	0,w
  3494  142A  00A1               	movwf	(___wmul@multiplier+1)^(0+128)
  3495  142B  160A  158A  24F8  160A  118A  	fcall	___wmul
  3496  1430  1683               	bsf	3,5	;RP0=1, select bank1
  3497  1431  1303               	bcf	3,6	;RP1=0, select bank1
  3498  1432  0820               	movf	?___wmul^(0+128),w
  3499  1433  3ED4               	addlw	212
  3500  1434  1683               	bsf	3,5	;RP0=1, select bank3
  3501  1435  1703               	bsf	3,6	;RP1=1, select bank3
  3502  1436  00AB               	movwf	??_pwm_calc^(0+384)
  3503  1437  1683               	bsf	3,5	;RP0=1, select bank1
  3504  1438  1303               	bcf	3,6	;RP1=0, select bank1
  3505  1439  0821               	movf	(?___wmul+1)^(0+128),w
  3506  143A  1803               	skipnc
  3507  143B  3E01               	addlw	1
  3508  143C  3EFE               	addlw	254
  3509  143D  1683               	bsf	3,5	;RP0=1, select bank3
  3510  143E  1703               	bsf	3,6	;RP1=1, select bank3
  3511  143F  00AC               	movwf	(??_pwm_calc+1)^(0+384)
  3512  1440  082B               	movf	??_pwm_calc^(0+384),w
  3513  1441  1683               	bsf	3,5	;RP0=1, select bank1
  3514  1442  1303               	bcf	3,6	;RP1=0, select bank1
  3515  1443  00A6               	movwf	___xxtofl@val^(0+128)
  3516  1444  1683               	bsf	3,5	;RP0=1, select bank3
  3517  1445  1703               	bsf	3,6	;RP1=1, select bank3
  3518  1446  082C               	movf	(??_pwm_calc+1)^(0+384),w
  3519  1447  1683               	bsf	3,5	;RP0=1, select bank1
  3520  1448  1303               	bcf	3,6	;RP1=0, select bank1
  3521  1449  00A7               	movwf	(___xxtofl@val+1)^(0+128)
  3522  144A  3000               	movlw	0
  3523  144B  1BA7               	btfsc	(___xxtofl@val+1)^(0+128),7
  3524  144C  30FF               	movlw	255
  3525  144D  00A8               	movwf	(___xxtofl@val+2)^(0+128)
  3526  144E  00A9               	movwf	(___xxtofl@val+3)^(0+128)
  3527  144F  3001               	movlw	1
  3528  1450  120A  118A  2723  160A  118A  	fcall	___xxtofl
  3529  1455  1683               	bsf	3,5	;RP0=1, select bank1
  3530  1456  1303               	bcf	3,6	;RP1=0, select bank1
  3531  1457  0829               	movf	(?___xxtofl+3)^(0+128),w
  3532  1458  00B7               	movwf	(___fldiv@a+3)^(0+128)
  3533  1459  0828               	movf	(?___xxtofl+2)^(0+128),w
  3534  145A  00B6               	movwf	(___fldiv@a+2)^(0+128)
  3535  145B  0827               	movf	(?___xxtofl+1)^(0+128),w
  3536  145C  00B5               	movwf	(___fldiv@a+1)^(0+128)
  3537  145D  0826               	movf	?___xxtofl^(0+128),w
  3538  145E  00B4               	movwf	___fldiv@a^(0+128)
  3539  145F  120A  158A  203A  160A  118A  	fcall	___fldiv
  3540  1464  1683               	bsf	3,5	;RP0=1, select bank1
  3541  1465  1303               	bcf	3,6	;RP1=0, select bank1
  3542  1466  0837               	movf	(?___fldiv+3)^(0+128),w
  3543  1467  1683               	bsf	3,5	;RP0=1, select bank3
  3544  1468  1703               	bsf	3,6	;RP1=1, select bank3
  3545  1469  009F               	movwf	(___fltol@f1+3)^(0+384)
  3546  146A  1683               	bsf	3,5	;RP0=1, select bank1
  3547  146B  1303               	bcf	3,6	;RP1=0, select bank1
  3548  146C  0836               	movf	(?___fldiv+2)^(0+128),w
  3549  146D  1683               	bsf	3,5	;RP0=1, select bank3
  3550  146E  1703               	bsf	3,6	;RP1=1, select bank3
  3551  146F  009E               	movwf	(___fltol@f1+2)^(0+384)
  3552  1470  1683               	bsf	3,5	;RP0=1, select bank1
  3553  1471  1303               	bcf	3,6	;RP1=0, select bank1
  3554  1472  0835               	movf	(?___fldiv+1)^(0+128),w
  3555  1473  1683               	bsf	3,5	;RP0=1, select bank3
  3556  1474  1703               	bsf	3,6	;RP1=1, select bank3
  3557  1475  009D               	movwf	(___fltol@f1+1)^(0+384)
  3558  1476  1683               	bsf	3,5	;RP0=1, select bank1
  3559  1477  1303               	bcf	3,6	;RP1=0, select bank1
  3560  1478  0834               	movf	?___fldiv^(0+128),w
  3561  1479  1683               	bsf	3,5	;RP0=1, select bank3
  3562  147A  1703               	bsf	3,6	;RP1=1, select bank3
  3563  147B  009C               	movwf	___fltol@f1^(0+384)
  3564  147C  160A  118A  2032  160A  118A  	fcall	___fltol
  3565  1481  1683               	bsf	3,5	;RP0=1, select bank3
  3566  1482  1703               	bsf	3,6	;RP1=1, select bank3
  3567  1483  081D               	movf	(?___fltol+1)^(0+384),w
  3568  1484  00C0               	movwf	(pwm_calc@radius+1)^(0+384)
  3569  1485  081C               	movf	?___fltol^(0+384),w
  3570  1486  00BF               	movwf	pwm_calc@radius^(0+384)
  3571  1487                     l3541:	
  3572                           
  3573                           ;pwm.c: 98: return radius;
  3574  1487  0840               	movf	(pwm_calc@radius+1)^(0+384),w
  3575  1488  00A8               	movwf	(?_pwm_calc+1)^(0+384)
  3576  1489  083F               	movf	pwm_calc@radius^(0+384),w
  3577  148A  00A7               	movwf	?_pwm_calc^(0+384)
  3578  148B  2DB0               	goto	l285
  3579  148C                     l3547:	
  3580  148C  01A7               	clrf	?_pwm_calc^(0+384)
  3581  148D  01A8               	clrf	(?_pwm_calc+1)^(0+384)
  3582  148E  2DB0               	goto	l285
  3583  148F                     l3551:	
  3584                           
  3585                           ;pwm.c: 103: *pwm_dc1 = (int)((-adc_value/1023.0)*100 + 0.5);
  3586  148F  1683               	bsf	3,5	;RP0=1, select bank3
  3587  1490  1703               	bsf	3,6	;RP1=1, select bank3
  3588  1491  0927               	comf	pwm_calc@adc_value^(0+384),w
  3589  1492  00AB               	movwf	??_pwm_calc^(0+384)
  3590  1493  0928               	comf	(pwm_calc@adc_value+1)^(0+384),w
  3591  1494  00AC               	movwf	(??_pwm_calc^(0+384)+1)
  3592  1495  0AAB               	incf	??_pwm_calc^(0+384),f
  3593  1496  1903               	skipnz
  3594  1497  0AAC               	incf	(??_pwm_calc^(0+384)+1),f
  3595  1498  082B               	movf	??_pwm_calc^(0+384),w
  3596  1499  1683               	bsf	3,5	;RP0=1, select bank1
  3597  149A  1303               	bcf	3,6	;RP1=0, select bank1
  3598  149B  00A6               	movwf	___xxtofl@val^(0+128)
  3599  149C  1683               	bsf	3,5	;RP0=1, select bank3
  3600  149D  1703               	bsf	3,6	;RP1=1, select bank3
  3601  149E  082C               	movf	(??_pwm_calc+1)^(0+384),w
  3602  149F  1683               	bsf	3,5	;RP0=1, select bank1
  3603  14A0  1303               	bcf	3,6	;RP1=0, select bank1
  3604  14A1  00A7               	movwf	(___xxtofl@val+1)^(0+128)
  3605  14A2  3000               	movlw	0
  3606  14A3  1BA7               	btfsc	(___xxtofl@val+1)^(0+128),7
  3607  14A4  30FF               	movlw	255
  3608  14A5  00A8               	movwf	(___xxtofl@val+2)^(0+128)
  3609  14A6  00A9               	movwf	(___xxtofl@val+3)^(0+128)
  3610  14A7  3001               	movlw	1
  3611  14A8  120A  118A  2723  160A  118A  	fcall	___xxtofl
  3612  14AD  1683               	bsf	3,5	;RP0=1, select bank1
  3613  14AE  1303               	bcf	3,6	;RP1=0, select bank1
  3614  14AF  0829               	movf	(?___xxtofl+3)^(0+128),w
  3615  14B0  00BB               	movwf	(___fldiv@b+3)^(0+128)
  3616  14B1  0828               	movf	(?___xxtofl+2)^(0+128),w
  3617  14B2  00BA               	movwf	(___fldiv@b+2)^(0+128)
  3618  14B3  0827               	movf	(?___xxtofl+1)^(0+128),w
  3619  14B4  00B9               	movwf	(___fldiv@b+1)^(0+128)
  3620  14B5  0826               	movf	?___xxtofl^(0+128),w
  3621  14B6  00B8               	movwf	___fldiv@b^(0+128)
  3622  14B7  3044               	movlw	68
  3623  14B8  00B7               	movwf	(___fldiv@a+3)^(0+128)
  3624  14B9  307F               	movlw	127
  3625  14BA  00B6               	movwf	(___fldiv@a+2)^(0+128)
  3626  14BB  30C0               	movlw	192
  3627  14BC  00B5               	movwf	(___fldiv@a+1)^(0+128)
  3628  14BD  3000               	movlw	0
  3629  14BE  00B4               	movwf	___fldiv@a^(0+128)
  3630  14BF  120A  158A  203A  160A  118A  	fcall	___fldiv
  3631  14C4  1683               	bsf	3,5	;RP0=1, select bank1
  3632  14C5  1303               	bcf	3,6	;RP1=0, select bank1
  3633  14C6  0837               	movf	(?___fldiv+3)^(0+128),w
  3634  14C7  00D5               	movwf	(___flmul@a+3)^(0+128)
  3635  14C8  0836               	movf	(?___fldiv+2)^(0+128),w
  3636  14C9  00D4               	movwf	(___flmul@a+2)^(0+128)
  3637  14CA  0835               	movf	(?___fldiv+1)^(0+128),w
  3638  14CB  00D3               	movwf	(___flmul@a+1)^(0+128)
  3639  14CC  0834               	movf	?___fldiv^(0+128),w
  3640  14CD  00D2               	movwf	___flmul@a^(0+128)
  3641  14CE  3042               	movlw	66
  3642  14CF  00D1               	movwf	(___flmul@b+3)^(0+128)
  3643  14D0  30C8               	movlw	200
  3644  14D1  00D0               	movwf	(___flmul@b+2)^(0+128)
  3645  14D2  3000               	movlw	0
  3646  14D3  00CF               	movwf	(___flmul@b+1)^(0+128)
  3647  14D4  3000               	movlw	0
  3648  14D5  00CE               	movwf	___flmul@b^(0+128)
  3649  14D6  120A  118A  23C2  160A  118A  	fcall	___flmul
  3650  14DB  1683               	bsf	3,5	;RP0=1, select bank1
  3651  14DC  1303               	bcf	3,6	;RP1=0, select bank1
  3652  14DD  0851               	movf	(?___flmul+3)^(0+128),w
  3653  14DE  00EF               	movwf	(___fladd@a+3)^(0+128)
  3654  14DF  0850               	movf	(?___flmul+2)^(0+128),w
  3655  14E0  00EE               	movwf	(___fladd@a+2)^(0+128)
  3656  14E1  084F               	movf	(?___flmul+1)^(0+128),w
  3657  14E2  00ED               	movwf	(___fladd@a+1)^(0+128)
  3658  14E3  084E               	movf	?___flmul^(0+128),w
  3659  14E4  00EC               	movwf	___fladd@a^(0+128)
  3660  14E5  303F               	movlw	63
  3661  14E6  00EB               	movwf	(___fladd@b+3)^(0+128)
  3662  14E7  3000               	movlw	0
  3663  14E8  00EA               	movwf	(___fladd@b+2)^(0+128)
  3664  14E9  3000               	movlw	0
  3665  14EA  00E9               	movwf	(___fladd@b+1)^(0+128)
  3666  14EB  3000               	movlw	0
  3667  14EC  00E8               	movwf	___fladd@b^(0+128)
  3668  14ED  120A  118A  203E  160A  118A  	fcall	___fladd
  3669  14F2  1683               	bsf	3,5	;RP0=1, select bank1
  3670  14F3  1303               	bcf	3,6	;RP1=0, select bank1
  3671  14F4  086B               	movf	(?___fladd+3)^(0+128),w
  3672  14F5  1683               	bsf	3,5	;RP0=1, select bank3
  3673  14F6  1703               	bsf	3,6	;RP1=1, select bank3
  3674  14F7  009F               	movwf	(___fltol@f1+3)^(0+384)
  3675  14F8  1683               	bsf	3,5	;RP0=1, select bank1
  3676  14F9  1303               	bcf	3,6	;RP1=0, select bank1
  3677  14FA  086A               	movf	(?___fladd+2)^(0+128),w
  3678  14FB  1683               	bsf	3,5	;RP0=1, select bank3
  3679  14FC  1703               	bsf	3,6	;RP1=1, select bank3
  3680  14FD  009E               	movwf	(___fltol@f1+2)^(0+384)
  3681  14FE  1683               	bsf	3,5	;RP0=1, select bank1
  3682  14FF  1303               	bcf	3,6	;RP1=0, select bank1
  3683  1500  0869               	movf	(?___fladd+1)^(0+128),w
  3684  1501  1683               	bsf	3,5	;RP0=1, select bank3
  3685  1502  1703               	bsf	3,6	;RP1=1, select bank3
  3686  1503  009D               	movwf	(___fltol@f1+1)^(0+384)
  3687  1504  1683               	bsf	3,5	;RP0=1, select bank1
  3688  1505  1303               	bcf	3,6	;RP1=0, select bank1
  3689  1506  0868               	movf	?___fladd^(0+128),w
  3690  1507  1683               	bsf	3,5	;RP0=1, select bank3
  3691  1508  1703               	bsf	3,6	;RP1=1, select bank3
  3692  1509  009C               	movwf	___fltol@f1^(0+384)
  3693  150A  160A  118A  2032  160A  118A  	fcall	___fltol
  3694  150F  1683               	bsf	3,5	;RP0=1, select bank3
  3695  1510  1703               	bsf	3,6	;RP1=1, select bank3
  3696  1511  0829               	movf	pwm_calc@pwm_dc1^(0+384),w
  3697  1512  0084               	movwf	4
  3698  1513  081C               	movf	?___fltol^(0+384),w
  3699  1514  1383               	bcf	3,7	;select IRP bank0
  3700  1515  0080               	movwf	0
  3701  1516  0A84               	incf	4,f
  3702  1517  081D               	movf	(?___fltol+1)^(0+384),w
  3703  1518  0080               	movwf	0
  3704  1519                     l3553:	
  3705                           
  3706                           ;pwm.c: 104: *pwm_dc2 = - 100 - *pwm_dc1;
  3707  1519  0829               	movf	pwm_calc@pwm_dc1^(0+384),w
  3708  151A  0084               	movwf	4
  3709  151B  0800               	movf	0,w
  3710  151C  00AB               	movwf	??_pwm_calc^(0+384)
  3711  151D  0A84               	incf	4,f
  3712  151E  0800               	movf	0,w
  3713  151F  00AC               	movwf	(??_pwm_calc^(0+384)+1)
  3714  1520  309C               	movlw	156
  3715  1521  00AD               	movwf	(??_pwm_calc+2)^(0+384)
  3716  1522  30FF               	movlw	255
  3717  1523  00AE               	movwf	((??_pwm_calc+2)^(0+384)+1)
  3718  1524  082B               	movf	??_pwm_calc^(0+384),w
  3719  1525  022D               	subwf	(??_pwm_calc+2)^(0+384),w
  3720  1526  00AF               	movwf	(??_pwm_calc+4)^(0+384)
  3721  1527  082C               	movf	(??_pwm_calc+1)^(0+384),w
  3722  1528  1C03               	skipc
  3723  1529  0A2C               	incf	(??_pwm_calc+1)^(0+384),w
  3724  152A  022E               	subwf	(??_pwm_calc+3)^(0+384),w
  3725  152B  00B0               	movwf	(??_pwm_calc+5)^(0+384)
  3726  152C  082A               	movf	pwm_calc@pwm_dc2^(0+384),w
  3727  152D  0084               	movwf	4
  3728  152E  082F               	movf	(??_pwm_calc+4)^(0+384),w
  3729  152F  0080               	movwf	0
  3730  1530  0A84               	incf	4,f
  3731  1531  0830               	movf	(??_pwm_calc+5)^(0+384),w
  3732  1532  0080               	movwf	0
  3733  1533                     l3555:	
  3734                           
  3735                           ;pwm.c: 114: if (adc_value != 512) {
  3736  1533  3002               	movlw	2
  3737  1534  0628               	xorwf	(pwm_calc@adc_value+1)^(0+384),w
  3738  1535  0427               	iorwf	pwm_calc@adc_value^(0+384),w
  3739  1536  1903               	btfsc	3,2
  3740  1537  2D39               	goto	u6011
  3741  1538  2D3A               	goto	u6010
  3742  1539                     u6011:	
  3743  1539  2C8C               	goto	l3547
  3744  153A                     u6010:	
  3745  153A                     l3557:	
  3746                           
  3747                           ;pwm.c: 115: radius = (int)(-11250.0/((6*(*pwm_dc1)) - 300));
  3748  153A  30C6               	movlw	198
  3749  153B  1683               	bsf	3,5	;RP0=1, select bank1
  3750  153C  1303               	bcf	3,6	;RP1=0, select bank1
  3751  153D  00BB               	movwf	(___fldiv@b+3)^(0+128)
  3752  153E  302F               	movlw	47
  3753  153F  00BA               	movwf	(___fldiv@b+2)^(0+128)
  3754  1540  30C8               	movlw	200
  3755  1541  00B9               	movwf	(___fldiv@b+1)^(0+128)
  3756  1542  3000               	movlw	0
  3757  1543  00B8               	movwf	___fldiv@b^(0+128)
  3758  1544  3006               	movlw	6
  3759  1545  00A2               	movwf	___wmul@multiplicand^(0+128)
  3760  1546  3000               	movlw	0
  3761  1547  00A3               	movwf	(___wmul@multiplicand^(0+128)+1)
  3762  1548  1683               	bsf	3,5	;RP0=1, select bank3
  3763  1549  1703               	bsf	3,6	;RP1=1, select bank3
  3764  154A  0829               	movf	pwm_calc@pwm_dc1^(0+384),w
  3765  154B  0084               	movwf	4
  3766  154C  0800               	movf	0,w
  3767  154D  1683               	bsf	3,5	;RP0=1, select bank1
  3768  154E  1303               	bcf	3,6	;RP1=0, select bank1
  3769  154F  00A0               	movwf	___wmul@multiplier^(0+128)
  3770  1550  0A84               	incf	4,f
  3771  1551  0800               	movf	0,w
  3772  1552  00A1               	movwf	(___wmul@multiplier+1)^(0+128)
  3773  1553  160A  158A  24F8  160A  118A  	fcall	___wmul
  3774  1558  1683               	bsf	3,5	;RP0=1, select bank1
  3775  1559  1303               	bcf	3,6	;RP1=0, select bank1
  3776  155A  0820               	movf	?___wmul^(0+128),w
  3777  155B  3ED4               	addlw	212
  3778  155C  1683               	bsf	3,5	;RP0=1, select bank3
  3779  155D  1703               	bsf	3,6	;RP1=1, select bank3
  3780  155E  00AB               	movwf	??_pwm_calc^(0+384)
  3781  155F  1683               	bsf	3,5	;RP0=1, select bank1
  3782  1560  1303               	bcf	3,6	;RP1=0, select bank1
  3783  1561  0821               	movf	(?___wmul+1)^(0+128),w
  3784  1562  1803               	skipnc
  3785  1563  3E01               	addlw	1
  3786  1564  3EFE               	addlw	254
  3787  1565  1683               	bsf	3,5	;RP0=1, select bank3
  3788  1566  1703               	bsf	3,6	;RP1=1, select bank3
  3789  1567  00AC               	movwf	(??_pwm_calc+1)^(0+384)
  3790  1568  082B               	movf	??_pwm_calc^(0+384),w
  3791  1569  1683               	bsf	3,5	;RP0=1, select bank1
  3792  156A  1303               	bcf	3,6	;RP1=0, select bank1
  3793  156B  00A6               	movwf	___xxtofl@val^(0+128)
  3794  156C  1683               	bsf	3,5	;RP0=1, select bank3
  3795  156D  1703               	bsf	3,6	;RP1=1, select bank3
  3796  156E  082C               	movf	(??_pwm_calc+1)^(0+384),w
  3797  156F  1683               	bsf	3,5	;RP0=1, select bank1
  3798  1570  1303               	bcf	3,6	;RP1=0, select bank1
  3799  1571  00A7               	movwf	(___xxtofl@val+1)^(0+128)
  3800  1572  3000               	movlw	0
  3801  1573  1BA7               	btfsc	(___xxtofl@val+1)^(0+128),7
  3802  1574  30FF               	movlw	255
  3803  1575  00A8               	movwf	(___xxtofl@val+2)^(0+128)
  3804  1576  00A9               	movwf	(___xxtofl@val+3)^(0+128)
  3805  1577  3001               	movlw	1
  3806  1578  120A  118A  2723  160A  118A  	fcall	___xxtofl
  3807  157D  1683               	bsf	3,5	;RP0=1, select bank1
  3808  157E  1303               	bcf	3,6	;RP1=0, select bank1
  3809  157F  0829               	movf	(?___xxtofl+3)^(0+128),w
  3810  1580  00B7               	movwf	(___fldiv@a+3)^(0+128)
  3811  1581  0828               	movf	(?___xxtofl+2)^(0+128),w
  3812  1582  00B6               	movwf	(___fldiv@a+2)^(0+128)
  3813  1583  0827               	movf	(?___xxtofl+1)^(0+128),w
  3814  1584  00B5               	movwf	(___fldiv@a+1)^(0+128)
  3815  1585  0826               	movf	?___xxtofl^(0+128),w
  3816  1586  00B4               	movwf	___fldiv@a^(0+128)
  3817  1587  120A  158A  203A  160A  118A  	fcall	___fldiv
  3818  158C  1683               	bsf	3,5	;RP0=1, select bank1
  3819  158D  1303               	bcf	3,6	;RP1=0, select bank1
  3820  158E  0837               	movf	(?___fldiv+3)^(0+128),w
  3821  158F  1683               	bsf	3,5	;RP0=1, select bank3
  3822  1590  1703               	bsf	3,6	;RP1=1, select bank3
  3823  1591  009F               	movwf	(___fltol@f1+3)^(0+384)
  3824  1592  1683               	bsf	3,5	;RP0=1, select bank1
  3825  1593  1303               	bcf	3,6	;RP1=0, select bank1
  3826  1594  0836               	movf	(?___fldiv+2)^(0+128),w
  3827  1595  1683               	bsf	3,5	;RP0=1, select bank3
  3828  1596  1703               	bsf	3,6	;RP1=1, select bank3
  3829  1597  009E               	movwf	(___fltol@f1+2)^(0+384)
  3830  1598  1683               	bsf	3,5	;RP0=1, select bank1
  3831  1599  1303               	bcf	3,6	;RP1=0, select bank1
  3832  159A  0835               	movf	(?___fldiv+1)^(0+128),w
  3833  159B  1683               	bsf	3,5	;RP0=1, select bank3
  3834  159C  1703               	bsf	3,6	;RP1=1, select bank3
  3835  159D  009D               	movwf	(___fltol@f1+1)^(0+384)
  3836  159E  1683               	bsf	3,5	;RP0=1, select bank1
  3837  159F  1303               	bcf	3,6	;RP1=0, select bank1
  3838  15A0  0834               	movf	?___fldiv^(0+128),w
  3839  15A1  1683               	bsf	3,5	;RP0=1, select bank3
  3840  15A2  1703               	bsf	3,6	;RP1=1, select bank3
  3841  15A3  009C               	movwf	___fltol@f1^(0+384)
  3842  15A4  160A  118A  2032  160A  118A  	fcall	___fltol
  3843  15A9  1683               	bsf	3,5	;RP0=1, select bank3
  3844  15AA  1703               	bsf	3,6	;RP1=1, select bank3
  3845  15AB  081D               	movf	(?___fltol+1)^(0+384),w
  3846  15AC  00C0               	movwf	(pwm_calc@radius+1)^(0+384)
  3847  15AD  081C               	movf	?___fltol^(0+384),w
  3848  15AE  00BF               	movwf	pwm_calc@radius^(0+384)
  3849  15AF  2C87               	goto	l3541
  3850  15B0                     l285:	
  3851  15B0  0008               	return
  3852  15B1                     __end_of_pwm_calc:	
  3853                           
  3854                           	psect	text10
  3855  0723                     __ptext10:	
  3856 ;; *************** function ___xxtofl *****************
  3857 ;; Defined at:
  3858 ;;		line 10 in file "C:\Program Files (x86)\Microchip\xc8\v2.10\pic\sources\c90\common\xxtofl.c"
  3859 ;; Parameters:    Size  Location     Type
  3860 ;;  sign            1    wreg     unsigned char 
  3861 ;;  val             4    6[BANK1 ] long 
  3862 ;; Auto vars:     Size  Location     Type
  3863 ;;  sign            1   14[BANK1 ] unsigned char 
  3864 ;;  arg             4   16[BANK1 ] unsigned long 
  3865 ;;  exp             1   15[BANK1 ] unsigned char 
  3866 ;; Return value:  Size  Location     Type
  3867 ;;                  4    6[BANK1 ] unsigned char 
  3868 ;; Registers used:
  3869 ;;		wreg, status,2, status,0
  3870 ;; Tracked objects:
  3871 ;;		On entry : 0/0
  3872 ;;		On exit  : 0/0
  3873 ;;		Unchanged: 0/0
  3874 ;; Data sizes:     COMMON   BANK0   BANK1   BANK3   BANK2
  3875 ;;      Params:         0       0       4       0       0
  3876 ;;      Locals:         0       0       6       0       0
  3877 ;;      Temps:          0       0       4       0       0
  3878 ;;      Totals:         0       0      14       0       0
  3879 ;;Total ram usage:       14 bytes
  3880 ;; Hardware stack levels used:    1
  3881 ;; Hardware stack levels required when called:    4
  3882 ;; This function calls:
  3883 ;;		Nothing
  3884 ;; This function is called by:
  3885 ;;		_pwm_set
  3886 ;;		_pwm_calc
  3887 ;; This function uses a non-reentrant model
  3888 ;;
  3889                           
  3890                           
  3891                           ;psect for function ___xxtofl
  3892  0723                     ___xxtofl:	
  3893                           
  3894                           ;incstack = 0
  3895                           ; Regs used in ___xxtofl: [wreg+status,2+status,0]
  3896                           ;___xxtofl@sign stored from wreg
  3897  0723  1683               	bsf	3,5	;RP0=1, select bank1
  3898  0724  1303               	bcf	3,6	;RP1=0, select bank1
  3899  0725  00AE               	movwf	___xxtofl@sign^(0+128)
  3900  0726                     l2951:	
  3901  0726  082E               	movf	___xxtofl@sign^(0+128),w
  3902  0727  1903               	btfsc	3,2
  3903  0728  2F2A               	goto	u4701
  3904  0729  2F2B               	goto	u4700
  3905  072A                     u4701:	
  3906  072A  2F3F               	goto	l2957
  3907  072B                     u4700:	
  3908  072B                     l2953:	
  3909  072B  1FA9               	btfss	(___xxtofl@val+3)^(0+128),7
  3910  072C  2F2E               	goto	u4711
  3911  072D  2F2F               	goto	u4710
  3912  072E                     u4711:	
  3913  072E  2F3F               	goto	l2957
  3914  072F                     u4710:	
  3915  072F                     l2955:	
  3916  072F  0926               	comf	___xxtofl@val^(0+128),w
  3917  0730  00B0               	movwf	___xxtofl@arg^(0+128)
  3918  0731  0927               	comf	(___xxtofl@val^(0+128)+1),w
  3919  0732  00B1               	movwf	(___xxtofl@arg+1)^(0+128)
  3920  0733  0928               	comf	(___xxtofl@val^(0+128)+2),w
  3921  0734  00B2               	movwf	(___xxtofl@arg+2)^(0+128)
  3922  0735  0929               	comf	(___xxtofl@val^(0+128)+3),w
  3923  0736  00B3               	movwf	(___xxtofl@arg+3)^(0+128)
  3924  0737  0AB0               	incf	___xxtofl@arg^(0+128),f
  3925  0738  1903               	skipnz
  3926  0739  0AB1               	incf	(___xxtofl@arg+1)^(0+128),f
  3927  073A  1903               	skipnz
  3928  073B  0AB2               	incf	(___xxtofl@arg+2)^(0+128),f
  3929  073C  1903               	skipnz
  3930  073D  0AB3               	incf	(___xxtofl@arg+3)^(0+128),f
  3931  073E  2F47               	goto	l830
  3932  073F                     l2957:	
  3933  073F  0829               	movf	(___xxtofl@val+3)^(0+128),w
  3934  0740  00B3               	movwf	(___xxtofl@arg+3)^(0+128)
  3935  0741  0828               	movf	(___xxtofl@val+2)^(0+128),w
  3936  0742  00B2               	movwf	(___xxtofl@arg+2)^(0+128)
  3937  0743  0827               	movf	(___xxtofl@val+1)^(0+128),w
  3938  0744  00B1               	movwf	(___xxtofl@arg+1)^(0+128)
  3939  0745  0826               	movf	___xxtofl@val^(0+128),w
  3940  0746  00B0               	movwf	___xxtofl@arg^(0+128)
  3941  0747                     l830:	
  3942  0747  0829               	movf	(___xxtofl@val+3)^(0+128),w
  3943  0748  0428               	iorwf	(___xxtofl@val+2)^(0+128),w
  3944  0749  0427               	iorwf	(___xxtofl@val+1)^(0+128),w
  3945  074A  0426               	iorwf	___xxtofl@val^(0+128),w
  3946  074B  1D03               	skipz
  3947  074C  2F4E               	goto	u4721
  3948  074D  2F4F               	goto	u4720
  3949  074E                     u4721:	
  3950  074E  2F58               	goto	l2963
  3951  074F                     u4720:	
  3952  074F                     l2959:	
  3953  074F  3000               	movlw	0
  3954  0750  00A9               	movwf	(?___xxtofl+3)^(0+128)
  3955  0751  3000               	movlw	0
  3956  0752  00A8               	movwf	(?___xxtofl+2)^(0+128)
  3957  0753  3000               	movlw	0
  3958  0754  00A7               	movwf	(?___xxtofl+1)^(0+128)
  3959  0755  3000               	movlw	0
  3960  0756  00A6               	movwf	?___xxtofl^(0+128)
  3961  0757  2FDE               	goto	l832
  3962  0758                     l2963:	
  3963  0758  3096               	movlw	150
  3964  0759  00AA               	movwf	??___xxtofl^(0+128)
  3965  075A  082A               	movf	??___xxtofl^(0+128),w
  3966  075B  00AF               	movwf	___xxtofl@exp^(0+128)
  3967  075C  2F6A               	goto	l2967
  3968  075D                     l2965:	
  3969  075D  3001               	movlw	1
  3970  075E  00AA               	movwf	??___xxtofl^(0+128)
  3971  075F  082A               	movf	??___xxtofl^(0+128),w
  3972  0760  07AF               	addwf	___xxtofl@exp^(0+128),f
  3973  0761  3001               	movlw	1
  3974  0762                     u4735:	
  3975  0762  1003               	clrc
  3976  0763  0CB3               	rrf	(___xxtofl@arg+3)^(0+128),f
  3977  0764  0CB2               	rrf	(___xxtofl@arg+2)^(0+128),f
  3978  0765  0CB1               	rrf	(___xxtofl@arg+1)^(0+128),f
  3979  0766  0CB0               	rrf	___xxtofl@arg^(0+128),f
  3980  0767  3EFF               	addlw	-1
  3981  0768  1D03               	skipz
  3982  0769  2F62               	goto	u4735
  3983  076A                     l2967:	
  3984  076A  30FE               	movlw	254
  3985  076B  0533               	andwf	(___xxtofl@arg+3)^(0+128),w
  3986  076C  1D03               	btfss	3,2
  3987  076D  2F6F               	goto	u4741
  3988  076E  2F70               	goto	u4740
  3989  076F                     u4741:	
  3990  076F  2F5D               	goto	l2965
  3991  0770                     u4740:	
  3992  0770  2F8C               	goto	l836
  3993  0771                     l2969:	
  3994  0771  3001               	movlw	1
  3995  0772  00AA               	movwf	??___xxtofl^(0+128)
  3996  0773  082A               	movf	??___xxtofl^(0+128),w
  3997  0774  07AF               	addwf	___xxtofl@exp^(0+128),f
  3998  0775                     l2971:	
  3999  0775  3001               	movlw	1
  4000  0776  07B0               	addwf	___xxtofl@arg^(0+128),f
  4001  0777  3000               	movlw	0
  4002  0778  1803               	skipnc
  4003  0779  3001               	movlw	1
  4004  077A  07B1               	addwf	(___xxtofl@arg+1)^(0+128),f
  4005  077B  3000               	movlw	0
  4006  077C  1803               	skipnc
  4007  077D  3001               	movlw	1
  4008  077E  07B2               	addwf	(___xxtofl@arg+2)^(0+128),f
  4009  077F  3000               	movlw	0
  4010  0780  1803               	skipnc
  4011  0781  3001               	movlw	1
  4012  0782  07B3               	addwf	(___xxtofl@arg+3)^(0+128),f
  4013  0783                     l2973:	
  4014  0783  3001               	movlw	1
  4015  0784                     u4755:	
  4016  0784  1003               	clrc
  4017  0785  0CB3               	rrf	(___xxtofl@arg+3)^(0+128),f
  4018  0786  0CB2               	rrf	(___xxtofl@arg+2)^(0+128),f
  4019  0787  0CB1               	rrf	(___xxtofl@arg+1)^(0+128),f
  4020  0788  0CB0               	rrf	___xxtofl@arg^(0+128),f
  4021  0789  3EFF               	addlw	-1
  4022  078A  1D03               	skipz
  4023  078B  2F84               	goto	u4755
  4024  078C                     l836:	
  4025  078C  30FF               	movlw	255
  4026  078D  0533               	andwf	(___xxtofl@arg+3)^(0+128),w
  4027  078E  1D03               	btfss	3,2
  4028  078F  2F91               	goto	u4761
  4029  0790  2F92               	goto	u4760
  4030  0791                     u4761:	
  4031  0791  2F71               	goto	l2969
  4032  0792                     u4760:	
  4033  0792  2F9E               	goto	l2977
  4034  0793                     l2975:	
  4035  0793  3001               	movlw	1
  4036  0794  02AF               	subwf	___xxtofl@exp^(0+128),f
  4037  0795  3001               	movlw	1
  4038  0796  00AA               	movwf	??___xxtofl^(0+128)
  4039  0797                     u4775:	
  4040  0797  1003               	clrc
  4041  0798  0DB0               	rlf	___xxtofl@arg^(0+128),f
  4042  0799  0DB1               	rlf	(___xxtofl@arg+1)^(0+128),f
  4043  079A  0DB2               	rlf	(___xxtofl@arg+2)^(0+128),f
  4044  079B  0DB3               	rlf	(___xxtofl@arg+3)^(0+128),f
  4045  079C  0BAA               	decfsz	??___xxtofl^(0+128),f
  4046  079D  2F97               	goto	u4775
  4047  079E                     l2977:	
  4048  079E  1BB2               	btfsc	(___xxtofl@arg+2)^(0+128),7
  4049  079F  2FA1               	goto	u4781
  4050  07A0  2FA2               	goto	u4780
  4051  07A1                     u4781:	
  4052  07A1  2FA8               	goto	l843
  4053  07A2                     u4780:	
  4054  07A2                     l2979:	
  4055  07A2  3002               	movlw	2
  4056  07A3  022F               	subwf	___xxtofl@exp^(0+128),w
  4057  07A4  1803               	skipnc
  4058  07A5  2FA7               	goto	u4791
  4059  07A6  2FA8               	goto	u4790
  4060  07A7                     u4791:	
  4061  07A7  2F93               	goto	l2975
  4062  07A8                     u4790:	
  4063  07A8                     l843:	
  4064  07A8  182F               	btfsc	___xxtofl@exp^(0+128),0
  4065  07A9  2FAB               	goto	u4801
  4066  07AA  2FAC               	goto	u4800
  4067  07AB                     u4801:	
  4068  07AB  2FB4               	goto	l844
  4069  07AC                     u4800:	
  4070  07AC                     l2981:	
  4071  07AC  30FF               	movlw	255
  4072  07AD  05B0               	andwf	___xxtofl@arg^(0+128),f
  4073  07AE  30FF               	movlw	255
  4074  07AF  05B1               	andwf	(___xxtofl@arg+1)^(0+128),f
  4075  07B0  307F               	movlw	127
  4076  07B1  05B2               	andwf	(___xxtofl@arg+2)^(0+128),f
  4077  07B2  30FF               	movlw	255
  4078  07B3  05B3               	andwf	(___xxtofl@arg+3)^(0+128),f
  4079  07B4                     l844:	
  4080  07B4  1003               	clrc
  4081  07B5  0CAF               	rrf	___xxtofl@exp^(0+128),f
  4082  07B6                     l2983:	
  4083  07B6  082F               	movf	___xxtofl@exp^(0+128),w
  4084  07B7  00AA               	movwf	??___xxtofl^(0+128)
  4085  07B8  01AB               	clrf	(??___xxtofl^(0+128)+1)
  4086  07B9  01AC               	clrf	(??___xxtofl^(0+128)+2)
  4087  07BA  01AD               	clrf	(??___xxtofl^(0+128)+3)
  4088  07BB  3018               	movlw	24
  4089  07BC                     u4815:	
  4090  07BC  1003               	clrc
  4091  07BD  0DAA               	rlf	??___xxtofl^(0+128),f
  4092  07BE  0DAB               	rlf	(??___xxtofl^(0+128)+1),f
  4093  07BF  0DAC               	rlf	(??___xxtofl^(0+128)+2),f
  4094  07C0  0DAD               	rlf	(??___xxtofl^(0+128)+3),f
  4095  07C1                     u4810:	
  4096  07C1  3EFF               	addlw	-1
  4097  07C2  1D03               	skipz
  4098  07C3  2FBC               	goto	u4815
  4099  07C4  082A               	movf	??___xxtofl^(0+128),w
  4100  07C5  04B0               	iorwf	___xxtofl@arg^(0+128),f
  4101  07C6  082B               	movf	(??___xxtofl+1)^(0+128),w
  4102  07C7  04B1               	iorwf	(___xxtofl@arg+1)^(0+128),f
  4103  07C8  082C               	movf	(??___xxtofl+2)^(0+128),w
  4104  07C9  04B2               	iorwf	(___xxtofl@arg+2)^(0+128),f
  4105  07CA  082D               	movf	(??___xxtofl+3)^(0+128),w
  4106  07CB  04B3               	iorwf	(___xxtofl@arg+3)^(0+128),f
  4107  07CC                     l2985:	
  4108  07CC  082E               	movf	___xxtofl@sign^(0+128),w
  4109  07CD  1903               	btfsc	3,2
  4110  07CE  2FD0               	goto	u4821
  4111  07CF  2FD1               	goto	u4820
  4112  07D0                     u4821:	
  4113  07D0  2FD6               	goto	l2991
  4114  07D1                     u4820:	
  4115  07D1                     l2987:	
  4116  07D1  1FA9               	btfss	(___xxtofl@val+3)^(0+128),7
  4117  07D2  2FD4               	goto	u4831
  4118  07D3  2FD5               	goto	u4830
  4119  07D4                     u4831:	
  4120  07D4  2FD6               	goto	l2991
  4121  07D5                     u4830:	
  4122  07D5                     l2989:	
  4123  07D5  17B3               	bsf	(___xxtofl@arg^(0+128)+3),7
  4124  07D6                     l2991:	
  4125  07D6  0833               	movf	(___xxtofl@arg+3)^(0+128),w
  4126  07D7  00A9               	movwf	(?___xxtofl+3)^(0+128)
  4127  07D8  0832               	movf	(___xxtofl@arg+2)^(0+128),w
  4128  07D9  00A8               	movwf	(?___xxtofl+2)^(0+128)
  4129  07DA  0831               	movf	(___xxtofl@arg+1)^(0+128),w
  4130  07DB  00A7               	movwf	(?___xxtofl+1)^(0+128)
  4131  07DC  0830               	movf	___xxtofl@arg^(0+128),w
  4132  07DD  00A6               	movwf	?___xxtofl^(0+128)
  4133  07DE                     l832:	
  4134  07DE  0008               	return
  4135  07DF                     __end_of___xxtofl:	
  4136                           
  4137                           	psect	text11
  4138  1CF8                     __ptext11:	
  4139 ;; *************** function ___wmul *****************
  4140 ;; Defined at:
  4141 ;;		line 15 in file "C:\Program Files (x86)\Microchip\xc8\v2.10\pic\sources\c90\common\Umul16.c"
  4142 ;; Parameters:    Size  Location     Type
  4143 ;;  multiplier      2    0[BANK1 ] unsigned int 
  4144 ;;  multiplicand    2    2[BANK1 ] unsigned int 
  4145 ;; Auto vars:     Size  Location     Type
  4146 ;;  product         2    4[BANK1 ] unsigned int 
  4147 ;; Return value:  Size  Location     Type
  4148 ;;                  2    0[BANK1 ] unsigned int 
  4149 ;; Registers used:
  4150 ;;		wreg, status,2, status,0
  4151 ;; Tracked objects:
  4152 ;;		On entry : 0/0
  4153 ;;		On exit  : 0/0
  4154 ;;		Unchanged: 0/0
  4155 ;; Data sizes:     COMMON   BANK0   BANK1   BANK3   BANK2
  4156 ;;      Params:         0       0       4       0       0
  4157 ;;      Locals:         0       0       2       0       0
  4158 ;;      Temps:          0       0       0       0       0
  4159 ;;      Totals:         0       0       6       0       0
  4160 ;;Total ram usage:        6 bytes
  4161 ;; Hardware stack levels used:    1
  4162 ;; Hardware stack levels required when called:    4
  4163 ;; This function calls:
  4164 ;;		Nothing
  4165 ;; This function is called by:
  4166 ;;		_pwm_set
  4167 ;;		_pwm_calc
  4168 ;; This function uses a non-reentrant model
  4169 ;;
  4170                           
  4171                           
  4172                           ;psect for function ___wmul
  4173  1CF8                     ___wmul:	
  4174  1CF8                     l2377:	
  4175                           ;incstack = 0
  4176                           ; Regs used in ___wmul: [wreg+status,2+status,0]
  4177                           
  4178  1CF8  1683               	bsf	3,5	;RP0=1, select bank1
  4179  1CF9  1303               	bcf	3,6	;RP1=0, select bank1
  4180  1CFA  01A4               	clrf	___wmul@product^(0+128)
  4181  1CFB  01A5               	clrf	(___wmul@product+1)^(0+128)
  4182  1CFC                     l2379:	
  4183  1CFC  1C20               	btfss	___wmul@multiplier^(0+128),0
  4184  1CFD  2CFF               	goto	u3311
  4185  1CFE  2D00               	goto	u3310
  4186  1CFF                     u3311:	
  4187  1CFF  2D06               	goto	l403
  4188  1D00                     u3310:	
  4189  1D00                     l2381:	
  4190  1D00  0822               	movf	___wmul@multiplicand^(0+128),w
  4191  1D01  07A4               	addwf	___wmul@product^(0+128),f
  4192  1D02  1803               	skipnc
  4193  1D03  0AA5               	incf	(___wmul@product+1)^(0+128),f
  4194  1D04  0823               	movf	(___wmul@multiplicand+1)^(0+128),w
  4195  1D05  07A5               	addwf	(___wmul@product+1)^(0+128),f
  4196  1D06                     l403:	
  4197  1D06  3001               	movlw	1
  4198  1D07                     u3325:	
  4199  1D07  1003               	clrc
  4200  1D08  0DA2               	rlf	___wmul@multiplicand^(0+128),f
  4201  1D09  0DA3               	rlf	(___wmul@multiplicand+1)^(0+128),f
  4202  1D0A  3EFF               	addlw	-1
  4203  1D0B  1D03               	skipz
  4204  1D0C  2D07               	goto	u3325
  4205  1D0D                     l2383:	
  4206  1D0D  3001               	movlw	1
  4207  1D0E                     u3335:	
  4208  1D0E  1003               	clrc
  4209  1D0F  0CA1               	rrf	(___wmul@multiplier+1)^(0+128),f
  4210  1D10  0CA0               	rrf	___wmul@multiplier^(0+128),f
  4211  1D11  3EFF               	addlw	-1
  4212  1D12  1D03               	skipz
  4213  1D13  2D0E               	goto	u3335
  4214  1D14                     l2385:	
  4215  1D14  0820               	movf	___wmul@multiplier^(0+128),w
  4216  1D15  0421               	iorwf	(___wmul@multiplier+1)^(0+128),w
  4217  1D16  1D03               	btfss	3,2
  4218  1D17  2D19               	goto	u3341
  4219  1D18  2D1A               	goto	u3340
  4220  1D19                     u3341:	
  4221  1D19  2CFC               	goto	l2379
  4222  1D1A                     u3340:	
  4223  1D1A                     l2387:	
  4224  1D1A  0825               	movf	(___wmul@product+1)^(0+128),w
  4225  1D1B  00A1               	movwf	(?___wmul+1)^(0+128)
  4226  1D1C  0824               	movf	___wmul@product^(0+128),w
  4227  1D1D  00A0               	movwf	?___wmul^(0+128)
  4228  1D1E                     l405:	
  4229  1D1E  0008               	return
  4230  1D1F                     __end_of___wmul:	
  4231                           
  4232                           	psect	text12
  4233  1032                     __ptext12:	
  4234 ;; *************** function ___fltol *****************
  4235 ;; Defined at:
  4236 ;;		line 43 in file "C:\Program Files (x86)\Microchip\xc8\v2.10\pic\sources\c90\common\fltol.c"
  4237 ;; Parameters:    Size  Location     Type
  4238 ;;  f1              4   12[BANK3 ] unsigned int 
  4239 ;; Auto vars:     Size  Location     Type
  4240 ;;  exp1            1   22[BANK3 ] unsigned char 
  4241 ;;  sign1           1   21[BANK3 ] unsigned char 
  4242 ;; Return value:  Size  Location     Type
  4243 ;;                  4   12[BANK3 ] long 
  4244 ;; Registers used:
  4245 ;;		wreg, status,2, status,0
  4246 ;; Tracked objects:
  4247 ;;		On entry : 0/0
  4248 ;;		On exit  : 0/0
  4249 ;;		Unchanged: 0/0
  4250 ;; Data sizes:     COMMON   BANK0   BANK1   BANK3   BANK2
  4251 ;;      Params:         0       0       0       4       0
  4252 ;;      Locals:         0       0       0       2       0
  4253 ;;      Temps:          0       0       0       5       0
  4254 ;;      Totals:         0       0       0      11       0
  4255 ;;Total ram usage:       11 bytes
  4256 ;; Hardware stack levels used:    1
  4257 ;; Hardware stack levels required when called:    4
  4258 ;; This function calls:
  4259 ;;		Nothing
  4260 ;; This function is called by:
  4261 ;;		_pwm_set
  4262 ;;		_pwm_calc
  4263 ;; This function uses a non-reentrant model
  4264 ;;
  4265                           
  4266                           
  4267                           ;psect for function ___fltol
  4268  1032                     ___fltol:	
  4269  1032                     l2391:	
  4270                           ;incstack = 0
  4271                           ; Regs used in ___fltol: [wreg+status,2+status,0]
  4272                           
  4273  1032  1003               	clrc
  4274  1033  1683               	bsf	3,5	;RP0=1, select bank3
  4275  1034  1703               	bsf	3,6	;RP1=1, select bank3
  4276  1035  0D1E               	rlf	(___fltol@f1+2)^(0+384),w
  4277  1036  0D1F               	rlf	(___fltol@f1+3)^(0+384),w
  4278  1037  00A0               	movwf	??___fltol^(0+384)
  4279  1038  0820               	movf	??___fltol^(0+384),w
  4280  1039  00A6               	movwf	___fltol@exp1^(0+384)
  4281  103A  0826               	movf	___fltol@exp1^(0+384),w
  4282  103B  1D03               	btfss	3,2
  4283  103C  283E               	goto	u3351
  4284  103D  283F               	goto	u3350
  4285  103E                     u3351:	
  4286  103E  2848               	goto	l2397
  4287  103F                     u3350:	
  4288  103F                     l2393:	
  4289  103F  3000               	movlw	0
  4290  1040  009F               	movwf	(?___fltol+3)^(0+384)
  4291  1041  3000               	movlw	0
  4292  1042  009E               	movwf	(?___fltol+2)^(0+384)
  4293  1043  3000               	movlw	0
  4294  1044  009D               	movwf	(?___fltol+1)^(0+384)
  4295  1045  3000               	movlw	0
  4296  1046  009C               	movwf	?___fltol^(0+384)
  4297  1047  28AD               	goto	l589
  4298  1048                     l2397:	
  4299  1048  081C               	movf	___fltol@f1^(0+384),w
  4300  1049  00A0               	movwf	??___fltol^(0+384)
  4301  104A  081D               	movf	(___fltol@f1+1)^(0+384),w
  4302  104B  00A1               	movwf	(??___fltol^(0+384)+1)
  4303  104C  081E               	movf	(___fltol@f1+2)^(0+384),w
  4304  104D  00A2               	movwf	(??___fltol^(0+384)+2)
  4305  104E  081F               	movf	(___fltol@f1+3)^(0+384),w
  4306  104F  00A3               	movwf	(??___fltol^(0+384)+3)
  4307  1050  301F               	movlw	31
  4308  1051                     u3365:	
  4309  1051  1003               	clrc
  4310  1052  0CA3               	rrf	(??___fltol^(0+384)+3),f
  4311  1053  0CA2               	rrf	(??___fltol^(0+384)+2),f
  4312  1054  0CA1               	rrf	(??___fltol^(0+384)+1),f
  4313  1055  0CA0               	rrf	??___fltol^(0+384),f
  4314  1056                     u3360:	
  4315  1056  3EFF               	addlw	-1
  4316  1057  1D03               	skipz
  4317  1058  2851               	goto	u3365
  4318  1059  0820               	movf	??___fltol^(0+384),w
  4319  105A  00A4               	movwf	(??___fltol+4)^(0+384)
  4320  105B  0824               	movf	(??___fltol+4)^(0+384),w
  4321  105C  00A5               	movwf	___fltol@sign1^(0+384)
  4322  105D                     l2399:	
  4323  105D  179E               	bsf	(___fltol@f1^(0+384)+2),7
  4324  105E                     l2401:	
  4325  105E  30FF               	movlw	255
  4326  105F  059C               	andwf	___fltol@f1^(0+384),f
  4327  1060  30FF               	movlw	255
  4328  1061  059D               	andwf	(___fltol@f1+1)^(0+384),f
  4329  1062  30FF               	movlw	255
  4330  1063  059E               	andwf	(___fltol@f1+2)^(0+384),f
  4331  1064  3000               	movlw	0
  4332  1065  059F               	andwf	(___fltol@f1+3)^(0+384),f
  4333  1066                     l2403:	
  4334  1066  3096               	movlw	150
  4335  1067  02A6               	subwf	___fltol@exp1^(0+384),f
  4336  1068                     l2405:	
  4337  1068  1FA6               	btfss	___fltol@exp1^(0+384),7
  4338  1069  286B               	goto	u3371
  4339  106A  286C               	goto	u3370
  4340  106B                     u3371:	
  4341  106B  2886               	goto	l2415
  4342  106C                     u3370:	
  4343  106C                     l2407:	
  4344  106C  0826               	movf	___fltol@exp1^(0+384),w
  4345  106D  3A80               	xorlw	128
  4346  106E  3E97               	addlw	151
  4347  106F  1803               	skipnc
  4348  1070  2872               	goto	u3381
  4349  1071  2873               	goto	u3380
  4350  1072                     u3381:	
  4351  1072  2874               	goto	l2413
  4352  1073                     u3380:	
  4353  1073  283F               	goto	l2393
  4354  1074                     l2413:	
  4355  1074  3001               	movlw	1
  4356  1075                     u3395:	
  4357  1075  1003               	clrc
  4358  1076  0C9F               	rrf	(___fltol@f1+3)^(0+384),f
  4359  1077  0C9E               	rrf	(___fltol@f1+2)^(0+384),f
  4360  1078  0C9D               	rrf	(___fltol@f1+1)^(0+384),f
  4361  1079  0C9C               	rrf	___fltol@f1^(0+384),f
  4362  107A  3EFF               	addlw	-1
  4363  107B  1D03               	skipz
  4364  107C  2875               	goto	u3395
  4365  107D  3001               	movlw	1
  4366  107E  00A0               	movwf	??___fltol^(0+384)
  4367  107F  0820               	movf	??___fltol^(0+384),w
  4368  1080  07A6               	addwf	___fltol@exp1^(0+384),f
  4369  1081  1D03               	btfss	3,2
  4370  1082  2884               	goto	u3401
  4371  1083  2885               	goto	u3400
  4372  1084                     u3401:	
  4373  1084  2874               	goto	l2413
  4374  1085                     u3400:	
  4375  1085  289D               	goto	l2423
  4376  1086                     l2415:	
  4377  1086  3020               	movlw	32
  4378  1087  0226               	subwf	___fltol@exp1^(0+384),w
  4379  1088  1C03               	skipc
  4380  1089  288B               	goto	u3411
  4381  108A  288C               	goto	u3410
  4382  108B                     u3411:	
  4383  108B  2898               	goto	l596
  4384  108C                     u3410:	
  4385  108C  283F               	goto	l2393
  4386  108D                     l2421:	
  4387  108D  3001               	movlw	1
  4388  108E  00A0               	movwf	??___fltol^(0+384)
  4389  108F                     u3425:	
  4390  108F  1003               	clrc
  4391  1090  0D9C               	rlf	___fltol@f1^(0+384),f
  4392  1091  0D9D               	rlf	(___fltol@f1+1)^(0+384),f
  4393  1092  0D9E               	rlf	(___fltol@f1+2)^(0+384),f
  4394  1093  0D9F               	rlf	(___fltol@f1+3)^(0+384),f
  4395  1094  0BA0               	decfsz	??___fltol^(0+384),f
  4396  1095  288F               	goto	u3425
  4397  1096  3001               	movlw	1
  4398  1097  02A6               	subwf	___fltol@exp1^(0+384),f
  4399  1098                     l596:	
  4400  1098  0826               	movf	___fltol@exp1^(0+384),w
  4401  1099  1D03               	btfss	3,2
  4402  109A  289C               	goto	u3431
  4403  109B  289D               	goto	u3430
  4404  109C                     u3431:	
  4405  109C  288D               	goto	l2421
  4406  109D                     u3430:	
  4407  109D                     l2423:	
  4408  109D  0825               	movf	___fltol@sign1^(0+384),w
  4409  109E  1903               	btfsc	3,2
  4410  109F  28A1               	goto	u3441
  4411  10A0  28A2               	goto	u3440
  4412  10A1                     u3441:	
  4413  10A1  28AD               	goto	l599
  4414  10A2                     u3440:	
  4415  10A2                     l2425:	
  4416  10A2  099C               	comf	___fltol@f1^(0+384),f
  4417  10A3  099D               	comf	(___fltol@f1+1)^(0+384),f
  4418  10A4  099E               	comf	(___fltol@f1+2)^(0+384),f
  4419  10A5  099F               	comf	(___fltol@f1+3)^(0+384),f
  4420  10A6  0A9C               	incf	___fltol@f1^(0+384),f
  4421  10A7  1903               	skipnz
  4422  10A8  0A9D               	incf	(___fltol@f1+1)^(0+384),f
  4423  10A9  1903               	skipnz
  4424  10AA  0A9E               	incf	(___fltol@f1+2)^(0+384),f
  4425  10AB  1903               	skipnz
  4426  10AC  0A9F               	incf	(___fltol@f1+3)^(0+384),f
  4427  10AD                     l599:	
  4428  10AD                     l589:	
  4429  10AD  0008               	return
  4430  10AE                     __end_of___fltol:	
  4431                           
  4432                           	psect	text13
  4433  03C2                     __ptext13:	
  4434 ;; *************** function ___flmul *****************
  4435 ;; Defined at:
  4436 ;;		line 8 in file "C:\Program Files (x86)\Microchip\xc8\v2.10\pic\sources\c90\common\sprcmul.c"
  4437 ;; Parameters:    Size  Location     Type
  4438 ;;  b               4   46[BANK1 ] long 
  4439 ;;  a               4   50[BANK1 ] long 
  4440 ;; Auto vars:     Size  Location     Type
  4441 ;;  prod            4   66[BANK1 ] struct .
  4442 ;;  grs             4   60[BANK1 ] unsigned long 
  4443 ;;  temp            2   70[BANK1 ] struct .
  4444 ;;  bexp            1   65[BANK1 ] unsigned char 
  4445 ;;  aexp            1   64[BANK1 ] unsigned char 
  4446 ;;  sign            1   59[BANK1 ] unsigned char 
  4447 ;; Return value:  Size  Location     Type
  4448 ;;                  4   46[BANK1 ] unsigned char 
  4449 ;; Registers used:
  4450 ;;		wreg, status,2, status,0, btemp+1, pclath, cstack
  4451 ;; Tracked objects:
  4452 ;;		On entry : 0/0
  4453 ;;		On exit  : 0/0
  4454 ;;		Unchanged: 0/0
  4455 ;; Data sizes:     COMMON   BANK0   BANK1   BANK3   BANK2
  4456 ;;      Params:         0       0       8       0       0
  4457 ;;      Locals:         0       0      13       0       0
  4458 ;;      Temps:          0       0       5       0       0
  4459 ;;      Totals:         0       0      26       0       0
  4460 ;;Total ram usage:       26 bytes
  4461 ;; Hardware stack levels used:    1
  4462 ;; Hardware stack levels required when called:    5
  4463 ;; This function calls:
  4464 ;;		__Umul8_16
  4465 ;; This function is called by:
  4466 ;;		_pwm_set
  4467 ;;		_pwm_calc
  4468 ;; This function uses a non-reentrant model
  4469 ;;
  4470                           
  4471                           
  4472                           ;psect for function ___flmul
  4473  03C2                     ___flmul:	
  4474  03C2                     l2811:	
  4475                           ;incstack = 0
  4476                           ; Regs used in ___flmul: [wreg+status,2+status,0+btemp+1+pclath+cstack]
  4477                           
  4478  03C2  1683               	bsf	3,5	;RP0=1, select bank1
  4479  03C3  1303               	bcf	3,6	;RP1=0, select bank1
  4480  03C4  0851               	movf	(___flmul@b^(0+128)+3),w
  4481  03C5  3980               	andlw	128
  4482  03C6  00D6               	movwf	??___flmul^(0+128)
  4483  03C7  0856               	movf	??___flmul^(0+128),w
  4484  03C8  00DB               	movwf	___flmul@sign^(0+128)
  4485  03C9                     l2813:	
  4486  03C9  0851               	movf	(___flmul@b^(0+128)+3),w
  4487  03CA  00D6               	movwf	??___flmul^(0+128)
  4488  03CB  0756               	addwf	??___flmul^(0+128),w
  4489  03CC  00D7               	movwf	(??___flmul+1)^(0+128)
  4490  03CD  0857               	movf	(??___flmul+1)^(0+128),w
  4491  03CE  00E1               	movwf	___flmul@bexp^(0+128)
  4492  03CF                     l2815:	
  4493  03CF  1FD0               	btfss	(___flmul@b^(0+128)+2),7
  4494  03D0  2BD2               	goto	u4331
  4495  03D1  2BD3               	goto	u4330
  4496  03D2                     u4331:	
  4497  03D2  2BD4               	goto	l2819
  4498  03D3                     u4330:	
  4499  03D3                     l2817:	
  4500  03D3  1461               	bsf	___flmul@bexp^(0+128),0
  4501  03D4                     l2819:	
  4502  03D4  0861               	movf	___flmul@bexp^(0+128),w
  4503  03D5  1903               	btfsc	3,2
  4504  03D6  2BD8               	goto	u4341
  4505  03D7  2BD9               	goto	u4340
  4506  03D8                     u4341:	
  4507  03D8  2BE8               	goto	l2827
  4508  03D9                     u4340:	
  4509  03D9                     l2821:	
  4510  03D9  0A61               	incf	___flmul@bexp^(0+128),w
  4511  03DA  1D03               	btfss	3,2
  4512  03DB  2BDD               	goto	u4351
  4513  03DC  2BDE               	goto	u4350
  4514  03DD                     u4351:	
  4515  03DD  2BE6               	goto	l2825
  4516  03DE                     u4350:	
  4517  03DE                     l2823:	
  4518  03DE  3000               	movlw	0
  4519  03DF  00D1               	movwf	(___flmul@b+3)^(0+128)
  4520  03E0  3000               	movlw	0
  4521  03E1  00D0               	movwf	(___flmul@b+2)^(0+128)
  4522  03E2  3000               	movlw	0
  4523  03E3  00CF               	movwf	(___flmul@b+1)^(0+128)
  4524  03E4  3000               	movlw	0
  4525  03E5  00CE               	movwf	___flmul@b^(0+128)
  4526  03E6                     l2825:	
  4527  03E6  17D0               	bsf	(___flmul@b^(0+128)+2),7
  4528  03E7  2BF0               	goto	l2829
  4529  03E8                     l2827:	
  4530  03E8  3000               	movlw	0
  4531  03E9  00D1               	movwf	(___flmul@b+3)^(0+128)
  4532  03EA  3000               	movlw	0
  4533  03EB  00D0               	movwf	(___flmul@b+2)^(0+128)
  4534  03EC  3000               	movlw	0
  4535  03ED  00CF               	movwf	(___flmul@b+1)^(0+128)
  4536  03EE  3000               	movlw	0
  4537  03EF  00CE               	movwf	___flmul@b^(0+128)
  4538  03F0                     l2829:	
  4539  03F0  0855               	movf	(___flmul@a^(0+128)+3),w
  4540  03F1  3980               	andlw	128
  4541  03F2  00D6               	movwf	??___flmul^(0+128)
  4542  03F3  0856               	movf	??___flmul^(0+128),w
  4543  03F4  06DB               	xorwf	___flmul@sign^(0+128),f
  4544  03F5                     l2831:	
  4545  03F5  0855               	movf	(___flmul@a^(0+128)+3),w
  4546  03F6  00D6               	movwf	??___flmul^(0+128)
  4547  03F7  0756               	addwf	??___flmul^(0+128),w
  4548  03F8  00D7               	movwf	(??___flmul+1)^(0+128)
  4549  03F9  0857               	movf	(??___flmul+1)^(0+128),w
  4550  03FA  00E0               	movwf	___flmul@aexp^(0+128)
  4551  03FB                     l2833:	
  4552  03FB  1FD4               	btfss	(___flmul@a^(0+128)+2),7
  4553  03FC  2BFE               	goto	u4361
  4554  03FD  2BFF               	goto	u4360
  4555  03FE                     u4361:	
  4556  03FE  2C00               	goto	l2837
  4557  03FF                     u4360:	
  4558  03FF                     l2835:	
  4559  03FF  1460               	bsf	___flmul@aexp^(0+128),0
  4560  0400                     l2837:	
  4561  0400  0860               	movf	___flmul@aexp^(0+128),w
  4562  0401  1903               	btfsc	3,2
  4563  0402  2C04               	goto	u4371
  4564  0403  2C05               	goto	u4370
  4565  0404                     u4371:	
  4566  0404  2C14               	goto	l2845
  4567  0405                     u4370:	
  4568  0405                     l2839:	
  4569  0405  0A60               	incf	___flmul@aexp^(0+128),w
  4570  0406  1D03               	btfss	3,2
  4571  0407  2C09               	goto	u4381
  4572  0408  2C0A               	goto	u4380
  4573  0409                     u4381:	
  4574  0409  2C12               	goto	l2843
  4575  040A                     u4380:	
  4576  040A                     l2841:	
  4577  040A  3000               	movlw	0
  4578  040B  00D5               	movwf	(___flmul@a+3)^(0+128)
  4579  040C  3000               	movlw	0
  4580  040D  00D4               	movwf	(___flmul@a+2)^(0+128)
  4581  040E  3000               	movlw	0
  4582  040F  00D3               	movwf	(___flmul@a+1)^(0+128)
  4583  0410  3000               	movlw	0
  4584  0411  00D2               	movwf	___flmul@a^(0+128)
  4585  0412                     l2843:	
  4586  0412  17D4               	bsf	(___flmul@a^(0+128)+2),7
  4587  0413  2C1C               	goto	l2847
  4588  0414                     l2845:	
  4589  0414  3000               	movlw	0
  4590  0415  00D5               	movwf	(___flmul@a+3)^(0+128)
  4591  0416  3000               	movlw	0
  4592  0417  00D4               	movwf	(___flmul@a+2)^(0+128)
  4593  0418  3000               	movlw	0
  4594  0419  00D3               	movwf	(___flmul@a+1)^(0+128)
  4595  041A  3000               	movlw	0
  4596  041B  00D2               	movwf	___flmul@a^(0+128)
  4597  041C                     l2847:	
  4598  041C  0860               	movf	___flmul@aexp^(0+128),w
  4599  041D  1903               	btfsc	3,2
  4600  041E  2C20               	goto	u4391
  4601  041F  2C21               	goto	u4390
  4602  0420                     u4391:	
  4603  0420  2C26               	goto	l2851
  4604  0421                     u4390:	
  4605  0421                     l2849:	
  4606  0421  0861               	movf	___flmul@bexp^(0+128),w
  4607  0422  1D03               	btfss	3,2
  4608  0423  2C25               	goto	u4401
  4609  0424  2C26               	goto	u4400
  4610  0425                     u4401:	
  4611  0425  2C2F               	goto	l2855
  4612  0426                     u4400:	
  4613  0426                     l2851:	
  4614  0426  3000               	movlw	0
  4615  0427  00D1               	movwf	(?___flmul+3)^(0+128)
  4616  0428  3000               	movlw	0
  4617  0429  00D0               	movwf	(?___flmul+2)^(0+128)
  4618  042A  3000               	movlw	0
  4619  042B  00CF               	movwf	(?___flmul+1)^(0+128)
  4620  042C  3000               	movlw	0
  4621  042D  00CE               	movwf	?___flmul^(0+128)
  4622  042E  2F22               	goto	l792
  4623  042F                     l2855:	
  4624  042F  084E               	movf	___flmul@b^(0+128),w
  4625  0430  00D6               	movwf	??___flmul^(0+128)
  4626  0431  0856               	movf	??___flmul^(0+128),w
  4627  0432  00A0               	movwf	__Umul8_16@multiplicand^(0+128)
  4628  0433  0854               	movf	(___flmul@a^(0+128)+2),w
  4629  0434  160A  158A  251F  120A  118A  	fcall	__Umul8_16
  4630  0439  1683               	bsf	3,5	;RP0=1, select bank1
  4631  043A  1303               	bcf	3,6	;RP1=0, select bank1
  4632  043B  0821               	movf	(?__Umul8_16+1)^(0+128),w
  4633  043C  00E7               	movwf	(___flmul@temp+1)^(0+128)
  4634  043D  0820               	movf	?__Umul8_16^(0+128),w
  4635  043E  00E6               	movwf	___flmul@temp^(0+128)
  4636  043F                     l2857:	
  4637  043F  0866               	movf	___flmul@temp^(0+128),w
  4638  0440  00D6               	movwf	??___flmul^(0+128)
  4639  0441  01D7               	clrf	(??___flmul^(0+128)+1)
  4640  0442  01D8               	clrf	(??___flmul^(0+128)+2)
  4641  0443  01D9               	clrf	(??___flmul^(0+128)+3)
  4642  0444  0859               	movf	(??___flmul+3)^(0+128),w
  4643  0445  00DF               	movwf	(___flmul@grs+3)^(0+128)
  4644  0446  0858               	movf	(??___flmul+2)^(0+128),w
  4645  0447  00DE               	movwf	(___flmul@grs+2)^(0+128)
  4646  0448  0857               	movf	(??___flmul+1)^(0+128),w
  4647  0449  00DD               	movwf	(___flmul@grs+1)^(0+128)
  4648  044A  0856               	movf	??___flmul^(0+128),w
  4649  044B  00DC               	movwf	___flmul@grs^(0+128)
  4650  044C                     l2859:	
  4651  044C  0867               	movf	(___flmul@temp^(0+128)+1),w
  4652  044D  00D6               	movwf	??___flmul^(0+128)
  4653  044E  01D7               	clrf	(??___flmul^(0+128)+1)
  4654  044F  01D8               	clrf	(??___flmul^(0+128)+2)
  4655  0450  01D9               	clrf	(??___flmul^(0+128)+3)
  4656  0451  0859               	movf	(??___flmul+3)^(0+128),w
  4657  0452  00E5               	movwf	(___flmul@prod+3)^(0+128)
  4658  0453  0858               	movf	(??___flmul+2)^(0+128),w
  4659  0454  00E4               	movwf	(___flmul@prod+2)^(0+128)
  4660  0455  0857               	movf	(??___flmul+1)^(0+128),w
  4661  0456  00E3               	movwf	(___flmul@prod+1)^(0+128)
  4662  0457  0856               	movf	??___flmul^(0+128),w
  4663  0458  00E2               	movwf	___flmul@prod^(0+128)
  4664  0459  084F               	movf	(___flmul@b^(0+128)+1),w
  4665  045A  00D6               	movwf	??___flmul^(0+128)
  4666  045B  0856               	movf	??___flmul^(0+128),w
  4667  045C  00A0               	movwf	__Umul8_16@multiplicand^(0+128)
  4668  045D  0853               	movf	(___flmul@a^(0+128)+1),w
  4669  045E  160A  158A  251F  120A  118A  	fcall	__Umul8_16
  4670  0463  1683               	bsf	3,5	;RP0=1, select bank1
  4671  0464  1303               	bcf	3,6	;RP1=0, select bank1
  4672  0465  0821               	movf	(?__Umul8_16+1)^(0+128),w
  4673  0466  00E7               	movwf	(___flmul@temp+1)^(0+128)
  4674  0467  0820               	movf	?__Umul8_16^(0+128),w
  4675  0468  00E6               	movwf	___flmul@temp^(0+128)
  4676  0469                     l2861:	
  4677  0469  0866               	movf	___flmul@temp^(0+128),w
  4678  046A  00D6               	movwf	??___flmul^(0+128)
  4679  046B  01D7               	clrf	(??___flmul^(0+128)+1)
  4680  046C  01D8               	clrf	(??___flmul^(0+128)+2)
  4681  046D  01D9               	clrf	(??___flmul^(0+128)+3)
  4682  046E  0856               	movf	??___flmul^(0+128),w
  4683  046F  07DC               	addwf	___flmul@grs^(0+128),f
  4684  0470  0857               	movf	(??___flmul+1)^(0+128),w
  4685  0471  1103               	clrz
  4686  0472  1803               	skipnc
  4687  0473  3E01               	addlw	1
  4688  0474  1903               	skipnz
  4689  0475  2C77               	goto	u4411
  4690  0476  07DD               	addwf	(___flmul@grs+1)^(0+128),f
  4691  0477                     u4411:	
  4692  0477  0858               	movf	(??___flmul+2)^(0+128),w
  4693  0478  1103               	clrz
  4694  0479  1803               	skipnc
  4695  047A  3E01               	addlw	1
  4696  047B  1903               	skipnz
  4697  047C  2C7E               	goto	u4412
  4698  047D  07DE               	addwf	(___flmul@grs+2)^(0+128),f
  4699  047E                     u4412:	
  4700  047E  0859               	movf	(??___flmul+3)^(0+128),w
  4701  047F  1103               	clrz
  4702  0480  1803               	skipnc
  4703  0481  3E01               	addlw	1
  4704  0482  1903               	skipnz
  4705  0483  2C85               	goto	u4413
  4706  0484  07DF               	addwf	(___flmul@grs+3)^(0+128),f
  4707  0485                     u4413:	
  4708  0485                     l2863:	
  4709  0485  0867               	movf	(___flmul@temp^(0+128)+1),w
  4710  0486  00D6               	movwf	??___flmul^(0+128)
  4711  0487  01D7               	clrf	(??___flmul^(0+128)+1)
  4712  0488  01D8               	clrf	(??___flmul^(0+128)+2)
  4713  0489  01D9               	clrf	(??___flmul^(0+128)+3)
  4714  048A  0856               	movf	??___flmul^(0+128),w
  4715  048B  07E2               	addwf	___flmul@prod^(0+128),f
  4716  048C  0857               	movf	(??___flmul+1)^(0+128),w
  4717  048D  1103               	clrz
  4718  048E  1803               	skipnc
  4719  048F  3E01               	addlw	1
  4720  0490  1903               	skipnz
  4721  0491  2C93               	goto	u4421
  4722  0492  07E3               	addwf	(___flmul@prod+1)^(0+128),f
  4723  0493                     u4421:	
  4724  0493  0858               	movf	(??___flmul+2)^(0+128),w
  4725  0494  1103               	clrz
  4726  0495  1803               	skipnc
  4727  0496  3E01               	addlw	1
  4728  0497  1903               	skipnz
  4729  0498  2C9A               	goto	u4422
  4730  0499  07E4               	addwf	(___flmul@prod+2)^(0+128),f
  4731  049A                     u4422:	
  4732  049A  0859               	movf	(??___flmul+3)^(0+128),w
  4733  049B  1103               	clrz
  4734  049C  1803               	skipnc
  4735  049D  3E01               	addlw	1
  4736  049E  1903               	skipnz
  4737  049F  2CA1               	goto	u4423
  4738  04A0  07E5               	addwf	(___flmul@prod+3)^(0+128),f
  4739  04A1                     u4423:	
  4740  04A1  0850               	movf	(___flmul@b^(0+128)+2),w
  4741  04A2  00D6               	movwf	??___flmul^(0+128)
  4742  04A3  0856               	movf	??___flmul^(0+128),w
  4743  04A4  00A0               	movwf	__Umul8_16@multiplicand^(0+128)
  4744  04A5  0852               	movf	___flmul@a^(0+128),w
  4745  04A6  160A  158A  251F  120A  118A  	fcall	__Umul8_16
  4746  04AB  1683               	bsf	3,5	;RP0=1, select bank1
  4747  04AC  1303               	bcf	3,6	;RP1=0, select bank1
  4748  04AD  0821               	movf	(?__Umul8_16+1)^(0+128),w
  4749  04AE  00E7               	movwf	(___flmul@temp+1)^(0+128)
  4750  04AF  0820               	movf	?__Umul8_16^(0+128),w
  4751  04B0  00E6               	movwf	___flmul@temp^(0+128)
  4752  04B1                     l2865:	
  4753  04B1  0866               	movf	___flmul@temp^(0+128),w
  4754  04B2  00D6               	movwf	??___flmul^(0+128)
  4755  04B3  01D7               	clrf	(??___flmul^(0+128)+1)
  4756  04B4  01D8               	clrf	(??___flmul^(0+128)+2)
  4757  04B5  01D9               	clrf	(??___flmul^(0+128)+3)
  4758  04B6  0856               	movf	??___flmul^(0+128),w
  4759  04B7  07DC               	addwf	___flmul@grs^(0+128),f
  4760  04B8  0857               	movf	(??___flmul+1)^(0+128),w
  4761  04B9  1103               	clrz
  4762  04BA  1803               	skipnc
  4763  04BB  3E01               	addlw	1
  4764  04BC  1903               	skipnz
  4765  04BD  2CBF               	goto	u4431
  4766  04BE  07DD               	addwf	(___flmul@grs+1)^(0+128),f
  4767  04BF                     u4431:	
  4768  04BF  0858               	movf	(??___flmul+2)^(0+128),w
  4769  04C0  1103               	clrz
  4770  04C1  1803               	skipnc
  4771  04C2  3E01               	addlw	1
  4772  04C3  1903               	skipnz
  4773  04C4  2CC6               	goto	u4432
  4774  04C5  07DE               	addwf	(___flmul@grs+2)^(0+128),f
  4775  04C6                     u4432:	
  4776  04C6  0859               	movf	(??___flmul+3)^(0+128),w
  4777  04C7  1103               	clrz
  4778  04C8  1803               	skipnc
  4779  04C9  3E01               	addlw	1
  4780  04CA  1903               	skipnz
  4781  04CB  2CCD               	goto	u4433
  4782  04CC  07DF               	addwf	(___flmul@grs+3)^(0+128),f
  4783  04CD                     u4433:	
  4784  04CD                     l2867:	
  4785  04CD  0867               	movf	(___flmul@temp^(0+128)+1),w
  4786  04CE  00D6               	movwf	??___flmul^(0+128)
  4787  04CF  01D7               	clrf	(??___flmul^(0+128)+1)
  4788  04D0  01D8               	clrf	(??___flmul^(0+128)+2)
  4789  04D1  01D9               	clrf	(??___flmul^(0+128)+3)
  4790  04D2  0856               	movf	??___flmul^(0+128),w
  4791  04D3  07E2               	addwf	___flmul@prod^(0+128),f
  4792  04D4  0857               	movf	(??___flmul+1)^(0+128),w
  4793  04D5  1103               	clrz
  4794  04D6  1803               	skipnc
  4795  04D7  3E01               	addlw	1
  4796  04D8  1903               	skipnz
  4797  04D9  2CDB               	goto	u4441
  4798  04DA  07E3               	addwf	(___flmul@prod+1)^(0+128),f
  4799  04DB                     u4441:	
  4800  04DB  0858               	movf	(??___flmul+2)^(0+128),w
  4801  04DC  1103               	clrz
  4802  04DD  1803               	skipnc
  4803  04DE  3E01               	addlw	1
  4804  04DF  1903               	skipnz
  4805  04E0  2CE2               	goto	u4442
  4806  04E1  07E4               	addwf	(___flmul@prod+2)^(0+128),f
  4807  04E2                     u4442:	
  4808  04E2  0859               	movf	(??___flmul+3)^(0+128),w
  4809  04E3  1103               	clrz
  4810  04E4  1803               	skipnc
  4811  04E5  3E01               	addlw	1
  4812  04E6  1903               	skipnz
  4813  04E7  2CE9               	goto	u4443
  4814  04E8  07E5               	addwf	(___flmul@prod+3)^(0+128),f
  4815  04E9                     u4443:	
  4816  04E9                     l2869:	
  4817  04E9  3008               	movlw	8
  4818  04EA  00D6               	movwf	??___flmul^(0+128)
  4819  04EB                     u4455:	
  4820  04EB  1003               	clrc
  4821  04EC  0DDC               	rlf	___flmul@grs^(0+128),f
  4822  04ED  0DDD               	rlf	(___flmul@grs+1)^(0+128),f
  4823  04EE  0DDE               	rlf	(___flmul@grs+2)^(0+128),f
  4824  04EF  0DDF               	rlf	(___flmul@grs+3)^(0+128),f
  4825  04F0  0BD6               	decfsz	??___flmul^(0+128),f
  4826  04F1  2CEB               	goto	u4455
  4827  04F2                     l2871:	
  4828  04F2  084F               	movf	(___flmul@b^(0+128)+1),w
  4829  04F3  00D6               	movwf	??___flmul^(0+128)
  4830  04F4  0856               	movf	??___flmul^(0+128),w
  4831  04F5  00A0               	movwf	__Umul8_16@multiplicand^(0+128)
  4832  04F6  0852               	movf	___flmul@a^(0+128),w
  4833  04F7  160A  158A  251F  120A  118A  	fcall	__Umul8_16
  4834  04FC  1683               	bsf	3,5	;RP0=1, select bank1
  4835  04FD  1303               	bcf	3,6	;RP1=0, select bank1
  4836  04FE  0821               	movf	(?__Umul8_16+1)^(0+128),w
  4837  04FF  00E7               	movwf	(___flmul@temp+1)^(0+128)
  4838  0500  0820               	movf	?__Umul8_16^(0+128),w
  4839  0501  00E6               	movwf	___flmul@temp^(0+128)
  4840  0502                     l2873:	
  4841  0502  0866               	movf	___flmul@temp^(0+128),w
  4842  0503  00D6               	movwf	??___flmul^(0+128)
  4843  0504  0867               	movf	(___flmul@temp+1)^(0+128),w
  4844  0505  00D7               	movwf	(??___flmul^(0+128)+1)
  4845  0506  01D8               	clrf	(??___flmul^(0+128)+2)
  4846  0507  01D9               	clrf	(??___flmul^(0+128)+3)
  4847  0508  0856               	movf	??___flmul^(0+128),w
  4848  0509  07DC               	addwf	___flmul@grs^(0+128),f
  4849  050A  0857               	movf	(??___flmul+1)^(0+128),w
  4850  050B  1103               	clrz
  4851  050C  1803               	skipnc
  4852  050D  3E01               	addlw	1
  4853  050E  1903               	skipnz
  4854  050F  2D11               	goto	u4461
  4855  0510  07DD               	addwf	(___flmul@grs+1)^(0+128),f
  4856  0511                     u4461:	
  4857  0511  0858               	movf	(??___flmul+2)^(0+128),w
  4858  0512  1103               	clrz
  4859  0513  1803               	skipnc
  4860  0514  3E01               	addlw	1
  4861  0515  1903               	skipnz
  4862  0516  2D18               	goto	u4462
  4863  0517  07DE               	addwf	(___flmul@grs+2)^(0+128),f
  4864  0518                     u4462:	
  4865  0518  0859               	movf	(??___flmul+3)^(0+128),w
  4866  0519  1103               	clrz
  4867  051A  1803               	skipnc
  4868  051B  3E01               	addlw	1
  4869  051C  1903               	skipnz
  4870  051D  2D1F               	goto	u4463
  4871  051E  07DF               	addwf	(___flmul@grs+3)^(0+128),f
  4872  051F                     u4463:	
  4873  051F                     l2875:	
  4874  051F  084E               	movf	___flmul@b^(0+128),w
  4875  0520  00D6               	movwf	??___flmul^(0+128)
  4876  0521  0856               	movf	??___flmul^(0+128),w
  4877  0522  00A0               	movwf	__Umul8_16@multiplicand^(0+128)
  4878  0523  0853               	movf	(___flmul@a^(0+128)+1),w
  4879  0524  160A  158A  251F  120A  118A  	fcall	__Umul8_16
  4880  0529  1683               	bsf	3,5	;RP0=1, select bank1
  4881  052A  1303               	bcf	3,6	;RP1=0, select bank1
  4882  052B  0821               	movf	(?__Umul8_16+1)^(0+128),w
  4883  052C  00E7               	movwf	(___flmul@temp+1)^(0+128)
  4884  052D  0820               	movf	?__Umul8_16^(0+128),w
  4885  052E  00E6               	movwf	___flmul@temp^(0+128)
  4886  052F                     l2877:	
  4887  052F  0866               	movf	___flmul@temp^(0+128),w
  4888  0530  00D6               	movwf	??___flmul^(0+128)
  4889  0531  0867               	movf	(___flmul@temp+1)^(0+128),w
  4890  0532  00D7               	movwf	(??___flmul^(0+128)+1)
  4891  0533  01D8               	clrf	(??___flmul^(0+128)+2)
  4892  0534  01D9               	clrf	(??___flmul^(0+128)+3)
  4893  0535  0856               	movf	??___flmul^(0+128),w
  4894  0536  07DC               	addwf	___flmul@grs^(0+128),f
  4895  0537  0857               	movf	(??___flmul+1)^(0+128),w
  4896  0538  1103               	clrz
  4897  0539  1803               	skipnc
  4898  053A  3E01               	addlw	1
  4899  053B  1903               	skipnz
  4900  053C  2D3E               	goto	u4471
  4901  053D  07DD               	addwf	(___flmul@grs+1)^(0+128),f
  4902  053E                     u4471:	
  4903  053E  0858               	movf	(??___flmul+2)^(0+128),w
  4904  053F  1103               	clrz
  4905  0540  1803               	skipnc
  4906  0541  3E01               	addlw	1
  4907  0542  1903               	skipnz
  4908  0543  2D45               	goto	u4472
  4909  0544  07DE               	addwf	(___flmul@grs+2)^(0+128),f
  4910  0545                     u4472:	
  4911  0545  0859               	movf	(??___flmul+3)^(0+128),w
  4912  0546  1103               	clrz
  4913  0547  1803               	skipnc
  4914  0548  3E01               	addlw	1
  4915  0549  1903               	skipnz
  4916  054A  2D4C               	goto	u4473
  4917  054B  07DF               	addwf	(___flmul@grs+3)^(0+128),f
  4918  054C                     u4473:	
  4919  054C                     l2879:	
  4920  054C  3008               	movlw	8
  4921  054D  00D6               	movwf	??___flmul^(0+128)
  4922  054E                     u4485:	
  4923  054E  1003               	clrc
  4924  054F  0DDC               	rlf	___flmul@grs^(0+128),f
  4925  0550  0DDD               	rlf	(___flmul@grs+1)^(0+128),f
  4926  0551  0DDE               	rlf	(___flmul@grs+2)^(0+128),f
  4927  0552  0DDF               	rlf	(___flmul@grs+3)^(0+128),f
  4928  0553  0BD6               	decfsz	??___flmul^(0+128),f
  4929  0554  2D4E               	goto	u4485
  4930  0555  084E               	movf	___flmul@b^(0+128),w
  4931  0556  00D6               	movwf	??___flmul^(0+128)
  4932  0557  0856               	movf	??___flmul^(0+128),w
  4933  0558  00A0               	movwf	__Umul8_16@multiplicand^(0+128)
  4934  0559  0852               	movf	___flmul@a^(0+128),w
  4935  055A  160A  158A  251F  120A  118A  	fcall	__Umul8_16
  4936  055F  1683               	bsf	3,5	;RP0=1, select bank1
  4937  0560  1303               	bcf	3,6	;RP1=0, select bank1
  4938  0561  0821               	movf	(?__Umul8_16+1)^(0+128),w
  4939  0562  00E7               	movwf	(___flmul@temp+1)^(0+128)
  4940  0563  0820               	movf	?__Umul8_16^(0+128),w
  4941  0564  00E6               	movwf	___flmul@temp^(0+128)
  4942  0565                     l2881:	
  4943  0565  0866               	movf	___flmul@temp^(0+128),w
  4944  0566  00D6               	movwf	??___flmul^(0+128)
  4945  0567  0867               	movf	(___flmul@temp+1)^(0+128),w
  4946  0568  00D7               	movwf	(??___flmul^(0+128)+1)
  4947  0569  01D8               	clrf	(??___flmul^(0+128)+2)
  4948  056A  01D9               	clrf	(??___flmul^(0+128)+3)
  4949  056B  0856               	movf	??___flmul^(0+128),w
  4950  056C  07DC               	addwf	___flmul@grs^(0+128),f
  4951  056D  0857               	movf	(??___flmul+1)^(0+128),w
  4952  056E  1103               	clrz
  4953  056F  1803               	skipnc
  4954  0570  3E01               	addlw	1
  4955  0571  1903               	skipnz
  4956  0572  2D74               	goto	u4491
  4957  0573  07DD               	addwf	(___flmul@grs+1)^(0+128),f
  4958  0574                     u4491:	
  4959  0574  0858               	movf	(??___flmul+2)^(0+128),w
  4960  0575  1103               	clrz
  4961  0576  1803               	skipnc
  4962  0577  3E01               	addlw	1
  4963  0578  1903               	skipnz
  4964  0579  2D7B               	goto	u4492
  4965  057A  07DE               	addwf	(___flmul@grs+2)^(0+128),f
  4966  057B                     u4492:	
  4967  057B  0859               	movf	(??___flmul+3)^(0+128),w
  4968  057C  1103               	clrz
  4969  057D  1803               	skipnc
  4970  057E  3E01               	addlw	1
  4971  057F  1903               	skipnz
  4972  0580  2D82               	goto	u4493
  4973  0581  07DF               	addwf	(___flmul@grs+3)^(0+128),f
  4974  0582                     u4493:	
  4975  0582                     l2883:	
  4976  0582  084F               	movf	(___flmul@b^(0+128)+1),w
  4977  0583  00D6               	movwf	??___flmul^(0+128)
  4978  0584  0856               	movf	??___flmul^(0+128),w
  4979  0585  00A0               	movwf	__Umul8_16@multiplicand^(0+128)
  4980  0586  0854               	movf	(___flmul@a^(0+128)+2),w
  4981  0587  160A  158A  251F  120A  118A  	fcall	__Umul8_16
  4982  058C  1683               	bsf	3,5	;RP0=1, select bank1
  4983  058D  1303               	bcf	3,6	;RP1=0, select bank1
  4984  058E  0821               	movf	(?__Umul8_16+1)^(0+128),w
  4985  058F  00E7               	movwf	(___flmul@temp+1)^(0+128)
  4986  0590  0820               	movf	?__Umul8_16^(0+128),w
  4987  0591  00E6               	movwf	___flmul@temp^(0+128)
  4988  0592  0866               	movf	___flmul@temp^(0+128),w
  4989  0593  00D6               	movwf	??___flmul^(0+128)
  4990  0594  0867               	movf	(___flmul@temp+1)^(0+128),w
  4991  0595  00D7               	movwf	(??___flmul^(0+128)+1)
  4992  0596  01D8               	clrf	(??___flmul^(0+128)+2)
  4993  0597  01D9               	clrf	(??___flmul^(0+128)+3)
  4994  0598  0856               	movf	??___flmul^(0+128),w
  4995  0599  07E2               	addwf	___flmul@prod^(0+128),f
  4996  059A  0857               	movf	(??___flmul+1)^(0+128),w
  4997  059B  1103               	clrz
  4998  059C  1803               	skipnc
  4999  059D  3E01               	addlw	1
  5000  059E  1903               	skipnz
  5001  059F  2DA1               	goto	u4501
  5002  05A0  07E3               	addwf	(___flmul@prod+1)^(0+128),f
  5003  05A1                     u4501:	
  5004  05A1  0858               	movf	(??___flmul+2)^(0+128),w
  5005  05A2  1103               	clrz
  5006  05A3  1803               	skipnc
  5007  05A4  3E01               	addlw	1
  5008  05A5  1903               	skipnz
  5009  05A6  2DA8               	goto	u4502
  5010  05A7  07E4               	addwf	(___flmul@prod+2)^(0+128),f
  5011  05A8                     u4502:	
  5012  05A8  0859               	movf	(??___flmul+3)^(0+128),w
  5013  05A9  1103               	clrz
  5014  05AA  1803               	skipnc
  5015  05AB  3E01               	addlw	1
  5016  05AC  1903               	skipnz
  5017  05AD  2DAF               	goto	u4503
  5018  05AE  07E5               	addwf	(___flmul@prod+3)^(0+128),f
  5019  05AF                     u4503:	
  5020  05AF                     l2885:	
  5021  05AF  0850               	movf	(___flmul@b^(0+128)+2),w
  5022  05B0  00D6               	movwf	??___flmul^(0+128)
  5023  05B1  0856               	movf	??___flmul^(0+128),w
  5024  05B2  00A0               	movwf	__Umul8_16@multiplicand^(0+128)
  5025  05B3  0853               	movf	(___flmul@a^(0+128)+1),w
  5026  05B4  160A  158A  251F  120A  118A  	fcall	__Umul8_16
  5027  05B9  1683               	bsf	3,5	;RP0=1, select bank1
  5028  05BA  1303               	bcf	3,6	;RP1=0, select bank1
  5029  05BB  0821               	movf	(?__Umul8_16+1)^(0+128),w
  5030  05BC  00E7               	movwf	(___flmul@temp+1)^(0+128)
  5031  05BD  0820               	movf	?__Umul8_16^(0+128),w
  5032  05BE  00E6               	movwf	___flmul@temp^(0+128)
  5033  05BF                     l2887:	
  5034  05BF  0866               	movf	___flmul@temp^(0+128),w
  5035  05C0  00D6               	movwf	??___flmul^(0+128)
  5036  05C1  0867               	movf	(___flmul@temp+1)^(0+128),w
  5037  05C2  00D7               	movwf	(??___flmul^(0+128)+1)
  5038  05C3  01D8               	clrf	(??___flmul^(0+128)+2)
  5039  05C4  01D9               	clrf	(??___flmul^(0+128)+3)
  5040  05C5  0856               	movf	??___flmul^(0+128),w
  5041  05C6  07E2               	addwf	___flmul@prod^(0+128),f
  5042  05C7  0857               	movf	(??___flmul+1)^(0+128),w
  5043  05C8  1103               	clrz
  5044  05C9  1803               	skipnc
  5045  05CA  3E01               	addlw	1
  5046  05CB  1903               	skipnz
  5047  05CC  2DCE               	goto	u4511
  5048  05CD  07E3               	addwf	(___flmul@prod+1)^(0+128),f
  5049  05CE                     u4511:	
  5050  05CE  0858               	movf	(??___flmul+2)^(0+128),w
  5051  05CF  1103               	clrz
  5052  05D0  1803               	skipnc
  5053  05D1  3E01               	addlw	1
  5054  05D2  1903               	skipnz
  5055  05D3  2DD5               	goto	u4512
  5056  05D4  07E4               	addwf	(___flmul@prod+2)^(0+128),f
  5057  05D5                     u4512:	
  5058  05D5  0859               	movf	(??___flmul+3)^(0+128),w
  5059  05D6  1103               	clrz
  5060  05D7  1803               	skipnc
  5061  05D8  3E01               	addlw	1
  5062  05D9  1903               	skipnz
  5063  05DA  2DDC               	goto	u4513
  5064  05DB  07E5               	addwf	(___flmul@prod+3)^(0+128),f
  5065  05DC                     u4513:	
  5066  05DC  0850               	movf	(___flmul@b^(0+128)+2),w
  5067  05DD  00D6               	movwf	??___flmul^(0+128)
  5068  05DE  0856               	movf	??___flmul^(0+128),w
  5069  05DF  00A0               	movwf	__Umul8_16@multiplicand^(0+128)
  5070  05E0  0854               	movf	(___flmul@a^(0+128)+2),w
  5071  05E1  160A  158A  251F  120A  118A  	fcall	__Umul8_16
  5072  05E6  1683               	bsf	3,5	;RP0=1, select bank1
  5073  05E7  1303               	bcf	3,6	;RP1=0, select bank1
  5074  05E8  0821               	movf	(?__Umul8_16+1)^(0+128),w
  5075  05E9  00E7               	movwf	(___flmul@temp+1)^(0+128)
  5076  05EA  0820               	movf	?__Umul8_16^(0+128),w
  5077  05EB  00E6               	movwf	___flmul@temp^(0+128)
  5078  05EC                     l2889:	
  5079  05EC  0866               	movf	___flmul@temp^(0+128),w
  5080  05ED  00D6               	movwf	??___flmul^(0+128)
  5081  05EE  0867               	movf	(___flmul@temp+1)^(0+128),w
  5082  05EF  00D7               	movwf	(??___flmul^(0+128)+1)
  5083  05F0  01D8               	clrf	(??___flmul^(0+128)+2)
  5084  05F1  01D9               	clrf	(??___flmul^(0+128)+3)
  5085  05F2  3008               	movlw	8
  5086  05F3                     u4525:	
  5087  05F3  1003               	clrc
  5088  05F4  0DD6               	rlf	??___flmul^(0+128),f
  5089  05F5  0DD7               	rlf	(??___flmul^(0+128)+1),f
  5090  05F6  0DD8               	rlf	(??___flmul^(0+128)+2),f
  5091  05F7  0DD9               	rlf	(??___flmul^(0+128)+3),f
  5092  05F8                     u4520:	
  5093  05F8  3EFF               	addlw	-1
  5094  05F9  1D03               	skipz
  5095  05FA  2DF3               	goto	u4525
  5096  05FB  0856               	movf	??___flmul^(0+128),w
  5097  05FC  07E2               	addwf	___flmul@prod^(0+128),f
  5098  05FD  0857               	movf	(??___flmul+1)^(0+128),w
  5099  05FE  1103               	clrz
  5100  05FF  1803               	skipnc
  5101  0600  3E01               	addlw	1
  5102  0601  1903               	skipnz
  5103  0602  2E04               	goto	u4531
  5104  0603  07E3               	addwf	(___flmul@prod+1)^(0+128),f
  5105  0604                     u4531:	
  5106  0604  0858               	movf	(??___flmul+2)^(0+128),w
  5107  0605  1103               	clrz
  5108  0606  1803               	skipnc
  5109  0607  3E01               	addlw	1
  5110  0608  1903               	skipnz
  5111  0609  2E0B               	goto	u4532
  5112  060A  07E4               	addwf	(___flmul@prod+2)^(0+128),f
  5113  060B                     u4532:	
  5114  060B  0859               	movf	(??___flmul+3)^(0+128),w
  5115  060C  1103               	clrz
  5116  060D  1803               	skipnc
  5117  060E  3E01               	addlw	1
  5118  060F  1903               	skipnz
  5119  0610  2E12               	goto	u4533
  5120  0611  07E5               	addwf	(___flmul@prod+3)^(0+128),f
  5121  0612                     u4533:	
  5122  0612                     l2891:	
  5123  0612  085C               	movf	___flmul@grs^(0+128),w
  5124  0613  00D6               	movwf	??___flmul^(0+128)
  5125  0614  085D               	movf	(___flmul@grs+1)^(0+128),w
  5126  0615  00D7               	movwf	(??___flmul^(0+128)+1)
  5127  0616  085E               	movf	(___flmul@grs+2)^(0+128),w
  5128  0617  00D8               	movwf	(??___flmul^(0+128)+2)
  5129  0618  085F               	movf	(___flmul@grs+3)^(0+128),w
  5130  0619  00D9               	movwf	(??___flmul^(0+128)+3)
  5131  061A  3018               	movlw	24
  5132  061B                     u4545:	
  5133  061B  1003               	clrc
  5134  061C  0CD9               	rrf	(??___flmul^(0+128)+3),f
  5135  061D  0CD8               	rrf	(??___flmul^(0+128)+2),f
  5136  061E  0CD7               	rrf	(??___flmul^(0+128)+1),f
  5137  061F  0CD6               	rrf	??___flmul^(0+128),f
  5138  0620                     u4540:	
  5139  0620  3EFF               	addlw	-1
  5140  0621  1D03               	skipz
  5141  0622  2E1B               	goto	u4545
  5142  0623  0856               	movf	??___flmul^(0+128),w
  5143  0624  07E2               	addwf	___flmul@prod^(0+128),f
  5144  0625  0857               	movf	(??___flmul+1)^(0+128),w
  5145  0626  1103               	clrz
  5146  0627  1803               	skipnc
  5147  0628  3E01               	addlw	1
  5148  0629  1903               	skipnz
  5149  062A  2E2C               	goto	u4551
  5150  062B  07E3               	addwf	(___flmul@prod+1)^(0+128),f
  5151  062C                     u4551:	
  5152  062C  0858               	movf	(??___flmul+2)^(0+128),w
  5153  062D  1103               	clrz
  5154  062E  1803               	skipnc
  5155  062F  3E01               	addlw	1
  5156  0630  1903               	skipnz
  5157  0631  2E33               	goto	u4552
  5158  0632  07E4               	addwf	(___flmul@prod+2)^(0+128),f
  5159  0633                     u4552:	
  5160  0633  0859               	movf	(??___flmul+3)^(0+128),w
  5161  0634  1103               	clrz
  5162  0635  1803               	skipnc
  5163  0636  3E01               	addlw	1
  5164  0637  1903               	skipnz
  5165  0638  2E3A               	goto	u4553
  5166  0639  07E5               	addwf	(___flmul@prod+3)^(0+128),f
  5167  063A                     u4553:	
  5168  063A                     l2893:	
  5169  063A  3008               	movlw	8
  5170  063B  00D6               	movwf	??___flmul^(0+128)
  5171  063C                     u4565:	
  5172  063C  1003               	clrc
  5173  063D  0DDC               	rlf	___flmul@grs^(0+128),f
  5174  063E  0DDD               	rlf	(___flmul@grs+1)^(0+128),f
  5175  063F  0DDE               	rlf	(___flmul@grs+2)^(0+128),f
  5176  0640  0DDF               	rlf	(___flmul@grs+3)^(0+128),f
  5177  0641  0BD6               	decfsz	??___flmul^(0+128),f
  5178  0642  2E3C               	goto	u4565
  5179  0643                     l2895:	
  5180  0643  0861               	movf	___flmul@bexp^(0+128),w
  5181  0644  0760               	addwf	___flmul@aexp^(0+128),w
  5182  0645  00D6               	movwf	??___flmul^(0+128)
  5183  0646  01D7               	clrf	(??___flmul^(0+128)+1)
  5184  0647  0DD7               	rlf	(??___flmul+1)^(0+128),f
  5185  0648  0856               	movf	??___flmul^(0+128),w
  5186  0649  3E82               	addlw	130
  5187  064A  00E6               	movwf	___flmul@temp^(0+128)
  5188  064B  0857               	movf	(??___flmul+1)^(0+128),w
  5189  064C  1803               	skipnc
  5190  064D  3E01               	addlw	1
  5191  064E  3EFF               	addlw	255
  5192  064F  00E7               	movwf	(___flmul@temp+1)^(0+128)
  5193  0650  2E6E               	goto	l2907
  5194  0651                     l2897:	
  5195  0651  3001               	movlw	1
  5196  0652  00D6               	movwf	??___flmul^(0+128)
  5197  0653                     u4575:	
  5198  0653  1003               	clrc
  5199  0654  0DE2               	rlf	___flmul@prod^(0+128),f
  5200  0655  0DE3               	rlf	(___flmul@prod+1)^(0+128),f
  5201  0656  0DE4               	rlf	(___flmul@prod+2)^(0+128),f
  5202  0657  0DE5               	rlf	(___flmul@prod+3)^(0+128),f
  5203  0658  0BD6               	decfsz	??___flmul^(0+128),f
  5204  0659  2E53               	goto	u4575
  5205  065A                     l2899:	
  5206  065A  1FDF               	btfss	(___flmul@grs+3)^(0+128),7
  5207  065B  2E5D               	goto	u4581
  5208  065C  2E5E               	goto	u4580
  5209  065D                     u4581:	
  5210  065D  2E5F               	goto	l2903
  5211  065E                     u4580:	
  5212  065E                     l2901:	
  5213  065E  1462               	bsf	___flmul@prod^(0+128),0
  5214  065F                     l2903:	
  5215  065F  3001               	movlw	1
  5216  0660  00D6               	movwf	??___flmul^(0+128)
  5217  0661                     u4595:	
  5218  0661  1003               	clrc
  5219  0662  0DDC               	rlf	___flmul@grs^(0+128),f
  5220  0663  0DDD               	rlf	(___flmul@grs+1)^(0+128),f
  5221  0664  0DDE               	rlf	(___flmul@grs+2)^(0+128),f
  5222  0665  0DDF               	rlf	(___flmul@grs+3)^(0+128),f
  5223  0666  0BD6               	decfsz	??___flmul^(0+128),f
  5224  0667  2E61               	goto	u4595
  5225  0668                     l2905:	
  5226  0668  30FF               	movlw	255
  5227  0669  07E6               	addwf	___flmul@temp^(0+128),f
  5228  066A  1803               	skipnc
  5229  066B  0AE7               	incf	(___flmul@temp+1)^(0+128),f
  5230  066C  30FF               	movlw	255
  5231  066D  07E7               	addwf	(___flmul@temp+1)^(0+128),f
  5232  066E                     l2907:	
  5233  066E  1FE4               	btfss	(___flmul@prod+2)^(0+128),7
  5234  066F  2E71               	goto	u4601
  5235  0670  2E72               	goto	u4600
  5236  0671                     u4601:	
  5237  0671  2E51               	goto	l2897
  5238  0672                     u4600:	
  5239  0672                     l2909:	
  5240  0672  01E0               	clrf	___flmul@aexp^(0+128)
  5241  0673                     l2911:	
  5242  0673  1FDF               	btfss	(___flmul@grs+3)^(0+128),7
  5243  0674  2E76               	goto	u4611
  5244  0675  2E77               	goto	u4610
  5245  0676                     u4611:	
  5246  0676  2E93               	goto	l2919
  5247  0677                     u4610:	
  5248  0677                     l2913:	
  5249  0677  30FF               	movlw	255
  5250  0678  055C               	andwf	___flmul@grs^(0+128),w
  5251  0679  00D6               	movwf	??___flmul^(0+128)
  5252  067A  30FF               	movlw	255
  5253  067B  055D               	andwf	(___flmul@grs+1)^(0+128),w
  5254  067C  00D7               	movwf	(??___flmul^(0+128)+1)
  5255  067D  30FF               	movlw	255
  5256  067E  055E               	andwf	(___flmul@grs+2)^(0+128),w
  5257  067F  00D8               	movwf	(??___flmul^(0+128)+2)
  5258  0680  307F               	movlw	127
  5259  0681  055F               	andwf	(___flmul@grs+3)^(0+128),w
  5260  0682  00D9               	movwf	(??___flmul^(0+128)+3)
  5261  0683  0859               	movf	(??___flmul+3)^(0+128),w
  5262  0684  0458               	iorwf	(??___flmul+2)^(0+128),w
  5263  0685  0457               	iorwf	(??___flmul+1)^(0+128),w
  5264  0686  0456               	iorwf	??___flmul^(0+128),w
  5265  0687  1903               	skipnz
  5266  0688  2E8A               	goto	u4621
  5267  0689  2E8B               	goto	u4620
  5268  068A                     u4621:	
  5269  068A  2E8E               	goto	l798
  5270  068B                     u4620:	
  5271  068B                     l2915:	
  5272  068B  01E0               	clrf	___flmul@aexp^(0+128)
  5273  068C  0AE0               	incf	___flmul@aexp^(0+128),f
  5274  068D  2E93               	goto	l2919
  5275  068E                     l798:	
  5276  068E  1C62               	btfss	___flmul@prod^(0+128),0
  5277  068F  2E91               	goto	u4631
  5278  0690  2E92               	goto	u4630
  5279  0691                     u4631:	
  5280  0691  2E93               	goto	l2919
  5281  0692                     u4630:	
  5282  0692  2E8B               	goto	l2915
  5283  0693                     l2919:	
  5284  0693  0860               	movf	___flmul@aexp^(0+128),w
  5285  0694  1903               	btfsc	3,2
  5286  0695  2E97               	goto	u4641
  5287  0696  2E98               	goto	u4640
  5288  0697                     u4641:	
  5289  0697  2EC9               	goto	l2929
  5290  0698                     u4640:	
  5291  0698                     l2921:	
  5292  0698  3001               	movlw	1
  5293  0699  07E2               	addwf	___flmul@prod^(0+128),f
  5294  069A  3000               	movlw	0
  5295  069B  1803               	skipnc
  5296  069C  3001               	movlw	1
  5297  069D  07E3               	addwf	(___flmul@prod+1)^(0+128),f
  5298  069E  3000               	movlw	0
  5299  069F  1803               	skipnc
  5300  06A0  3001               	movlw	1
  5301  06A1  07E4               	addwf	(___flmul@prod+2)^(0+128),f
  5302  06A2  3000               	movlw	0
  5303  06A3  1803               	skipnc
  5304  06A4  3001               	movlw	1
  5305  06A5  07E5               	addwf	(___flmul@prod+3)^(0+128),f
  5306  06A6                     l2923:	
  5307  06A6  1C65               	btfss	(___flmul@prod+3)^(0+128),0
  5308  06A7  2EA9               	goto	u4651
  5309  06A8  2EAA               	goto	u4650
  5310  06A9                     u4651:	
  5311  06A9  2EC9               	goto	l2929
  5312  06AA                     u4650:	
  5313  06AA                     l2925:	
  5314  06AA  0862               	movf	___flmul@prod^(0+128),w
  5315  06AB  00D6               	movwf	??___flmul^(0+128)
  5316  06AC  0863               	movf	(___flmul@prod+1)^(0+128),w
  5317  06AD  00D7               	movwf	(??___flmul^(0+128)+1)
  5318  06AE  0864               	movf	(___flmul@prod+2)^(0+128),w
  5319  06AF  00D8               	movwf	(??___flmul^(0+128)+2)
  5320  06B0  0865               	movf	(___flmul@prod+3)^(0+128),w
  5321  06B1  00D9               	movwf	(??___flmul^(0+128)+3)
  5322  06B2  3001               	movlw	1
  5323  06B3  00DA               	movwf	(??___flmul+4)^(0+128)
  5324  06B4                     u4665:	
  5325  06B4  0D59               	rlf	(??___flmul^(0+128)+3),w
  5326  06B5  0CD9               	rrf	(??___flmul^(0+128)+3),f
  5327  06B6  0CD8               	rrf	(??___flmul^(0+128)+2),f
  5328  06B7  0CD7               	rrf	(??___flmul^(0+128)+1),f
  5329  06B8  0CD6               	rrf	??___flmul^(0+128),f
  5330  06B9                     u4660:	
  5331  06B9  0BDA               	decfsz	(??___flmul+4)^(0+128),f
  5332  06BA  2EB4               	goto	u4665
  5333  06BB  0859               	movf	(??___flmul+3)^(0+128),w
  5334  06BC  00E5               	movwf	(___flmul@prod+3)^(0+128)
  5335  06BD  0858               	movf	(??___flmul+2)^(0+128),w
  5336  06BE  00E4               	movwf	(___flmul@prod+2)^(0+128)
  5337  06BF  0857               	movf	(??___flmul+1)^(0+128),w
  5338  06C0  00E3               	movwf	(___flmul@prod+1)^(0+128)
  5339  06C1  0856               	movf	??___flmul^(0+128),w
  5340  06C2  00E2               	movwf	___flmul@prod^(0+128)
  5341  06C3                     l2927:	
  5342  06C3  3001               	movlw	1
  5343  06C4  07E6               	addwf	___flmul@temp^(0+128),f
  5344  06C5  1803               	skipnc
  5345  06C6  0AE7               	incf	(___flmul@temp+1)^(0+128),f
  5346  06C7  3000               	movlw	0
  5347  06C8  07E7               	addwf	(___flmul@temp+1)^(0+128),f
  5348  06C9                     l2929:	
  5349  06C9  0867               	movf	(___flmul@temp+1)^(0+128),w
  5350  06CA  3A80               	xorlw	128
  5351  06CB  00FF               	movwf	btemp+1
  5352  06CC  3080               	movlw	128
  5353  06CD  027F               	subwf	btemp+1,w
  5354  06CE  1D03               	skipz
  5355  06CF  2ED2               	goto	u4675
  5356  06D0  30FF               	movlw	255
  5357  06D1  0266               	subwf	___flmul@temp^(0+128),w
  5358  06D2                     u4675:	
  5359  06D2  1C03               	skipc
  5360  06D3  2ED5               	goto	u4671
  5361  06D4  2ED6               	goto	u4670
  5362  06D5                     u4671:	
  5363  06D5  2EE1               	goto	l2933
  5364  06D6                     u4670:	
  5365  06D6                     l2931:	
  5366  06D6  307F               	movlw	127
  5367  06D7  1683               	bsf	3,5	;RP0=1, select bank1
  5368  06D8  1303               	bcf	3,6	;RP1=0, select bank1
  5369  06D9  00E5               	movwf	(___flmul@prod+3)^(0+128)
  5370  06DA  3080               	movlw	128
  5371  06DB  00E4               	movwf	(___flmul@prod+2)^(0+128)
  5372  06DC  3000               	movlw	0
  5373  06DD  00E3               	movwf	(___flmul@prod+1)^(0+128)
  5374  06DE  3000               	movlw	0
  5375  06DF  00E2               	movwf	___flmul@prod^(0+128)
  5376  06E0  2F16               	goto	l804
  5377  06E1                     l2933:	
  5378  06E1  1683               	bsf	3,5	;RP0=1, select bank1
  5379  06E2  1303               	bcf	3,6	;RP1=0, select bank1
  5380  06E3  0867               	movf	(___flmul@temp+1)^(0+128),w
  5381  06E4  3A80               	xorlw	128
  5382  06E5  00FF               	movwf	btemp+1
  5383  06E6  3080               	movlw	128
  5384  06E7  027F               	subwf	btemp+1,w
  5385  06E8  1D03               	skipz
  5386  06E9  2EEC               	goto	u4685
  5387  06EA  3001               	movlw	1
  5388  06EB  0266               	subwf	___flmul@temp^(0+128),w
  5389  06EC                     u4685:	
  5390  06EC  1803               	skipnc
  5391  06ED  2EEF               	goto	u4681
  5392  06EE  2EF0               	goto	u4680
  5393  06EF                     u4681:	
  5394  06EF  2EFC               	goto	l2939
  5395  06F0                     u4680:	
  5396  06F0                     l2935:	
  5397  06F0  3000               	movlw	0
  5398  06F1  1683               	bsf	3,5	;RP0=1, select bank1
  5399  06F2  1303               	bcf	3,6	;RP1=0, select bank1
  5400  06F3  00E5               	movwf	(___flmul@prod+3)^(0+128)
  5401  06F4  3000               	movlw	0
  5402  06F5  00E4               	movwf	(___flmul@prod+2)^(0+128)
  5403  06F6  3000               	movlw	0
  5404  06F7  00E3               	movwf	(___flmul@prod+1)^(0+128)
  5405  06F8  3000               	movlw	0
  5406  06F9  00E2               	movwf	___flmul@prod^(0+128)
  5407  06FA                     l2937:	
  5408  06FA  01DB               	clrf	___flmul@sign^(0+128)
  5409  06FB  2F16               	goto	l804
  5410  06FC                     l2939:	
  5411  06FC  1683               	bsf	3,5	;RP0=1, select bank1
  5412  06FD  1303               	bcf	3,6	;RP1=0, select bank1
  5413  06FE  0866               	movf	___flmul@temp^(0+128),w
  5414  06FF  00D6               	movwf	??___flmul^(0+128)
  5415  0700  0856               	movf	??___flmul^(0+128),w
  5416  0701  00E1               	movwf	___flmul@bexp^(0+128)
  5417  0702  30FF               	movlw	255
  5418  0703  05E2               	andwf	___flmul@prod^(0+128),f
  5419  0704  30FF               	movlw	255
  5420  0705  05E3               	andwf	(___flmul@prod+1)^(0+128),f
  5421  0706  307F               	movlw	127
  5422  0707  05E4               	andwf	(___flmul@prod+2)^(0+128),f
  5423  0708  3000               	movlw	0
  5424  0709  05E5               	andwf	(___flmul@prod+3)^(0+128),f
  5425  070A                     l2941:	
  5426  070A  1C61               	btfss	___flmul@bexp^(0+128),0
  5427  070B  2F0D               	goto	u4691
  5428  070C  2F0E               	goto	u4690
  5429  070D                     u4691:	
  5430  070D  2F0F               	goto	l2945
  5431  070E                     u4690:	
  5432  070E                     l2943:	
  5433  070E  17E4               	bsf	(___flmul@prod^(0+128)+2),7
  5434  070F                     l2945:	
  5435  070F  0861               	movf	___flmul@bexp^(0+128),w
  5436  0710  00D6               	movwf	??___flmul^(0+128)
  5437  0711  1003               	clrc
  5438  0712  0C56               	rrf	??___flmul^(0+128),w
  5439  0713  00D7               	movwf	(??___flmul+1)^(0+128)
  5440  0714  0857               	movf	(??___flmul+1)^(0+128),w
  5441  0715  00E5               	movwf	(___flmul@prod^(0+128)+3)
  5442  0716                     l804:	
  5443  0716  085B               	movf	___flmul@sign^(0+128),w
  5444  0717  00D6               	movwf	??___flmul^(0+128)
  5445  0718  0856               	movf	??___flmul^(0+128),w
  5446  0719  04E5               	iorwf	(___flmul@prod^(0+128)+3),f
  5447  071A                     l2947:	
  5448  071A  0865               	movf	(___flmul@prod+3)^(0+128),w
  5449  071B  00D1               	movwf	(?___flmul+3)^(0+128)
  5450  071C  0864               	movf	(___flmul@prod+2)^(0+128),w
  5451  071D  00D0               	movwf	(?___flmul+2)^(0+128)
  5452  071E  0863               	movf	(___flmul@prod+1)^(0+128),w
  5453  071F  00CF               	movwf	(?___flmul+1)^(0+128)
  5454  0720  0862               	movf	___flmul@prod^(0+128),w
  5455  0721  00CE               	movwf	?___flmul^(0+128)
  5456  0722                     l792:	
  5457  0722  0008               	return
  5458  0723                     __end_of___flmul:	
  5459                           
  5460                           	psect	text14
  5461  1D1F                     __ptext14:	
  5462 ;; *************** function __Umul8_16 *****************
  5463 ;; Defined at:
  5464 ;;		line 4 in file "C:\Program Files (x86)\Microchip\xc8\v2.10\pic\sources\c90\common\Umul8_16.c"
  5465 ;; Parameters:    Size  Location     Type
  5466 ;;  multiplier      1    wreg     unsigned char 
  5467 ;;  multiplicand    1    0[BANK1 ] unsigned char 
  5468 ;; Auto vars:     Size  Location     Type
  5469 ;;  multiplier      1    8[BANK1 ] unsigned char 
  5470 ;;  word_mpld       2    6[BANK1 ] unsigned int 
  5471 ;;  product         2    4[BANK1 ] unsigned int 
  5472 ;; Return value:  Size  Location     Type
  5473 ;;                  2    0[BANK1 ] unsigned int 
  5474 ;; Registers used:
  5475 ;;		wreg, status,2, status,0
  5476 ;; Tracked objects:
  5477 ;;		On entry : 0/0
  5478 ;;		On exit  : 0/0
  5479 ;;		Unchanged: 0/0
  5480 ;; Data sizes:     COMMON   BANK0   BANK1   BANK3   BANK2
  5481 ;;      Params:         0       0       2       0       0
  5482 ;;      Locals:         0       0       5       0       0
  5483 ;;      Temps:          0       0       2       0       0
  5484 ;;      Totals:         0       0       9       0       0
  5485 ;;Total ram usage:        9 bytes
  5486 ;; Hardware stack levels used:    1
  5487 ;; Hardware stack levels required when called:    4
  5488 ;; This function calls:
  5489 ;;		Nothing
  5490 ;; This function is called by:
  5491 ;;		___flmul
  5492 ;; This function uses a non-reentrant model
  5493 ;;
  5494                           
  5495                           
  5496                           ;psect for function __Umul8_16
  5497  1D1F                     __Umul8_16:	
  5498                           
  5499                           ;incstack = 0
  5500                           ; Regs used in __Umul8_16: [wreg+status,2+status,0]
  5501                           ;__Umul8_16@multiplier stored from wreg
  5502  1D1F  1683               	bsf	3,5	;RP0=1, select bank1
  5503  1D20  1303               	bcf	3,6	;RP1=0, select bank1
  5504  1D21  00A8               	movwf	__Umul8_16@multiplier^(0+128)
  5505  1D22                     l2333:	
  5506  1D22  01A4               	clrf	__Umul8_16@product^(0+128)
  5507  1D23  01A5               	clrf	(__Umul8_16@product+1)^(0+128)
  5508  1D24                     l2335:	
  5509  1D24  0820               	movf	__Umul8_16@multiplicand^(0+128),w
  5510  1D25  00A2               	movwf	??__Umul8_16^(0+128)
  5511  1D26  01A3               	clrf	(??__Umul8_16^(0+128)+1)
  5512  1D27  0822               	movf	??__Umul8_16^(0+128),w
  5513  1D28  00A6               	movwf	__Umul8_16@word_mpld^(0+128)
  5514  1D29  0823               	movf	(??__Umul8_16+1)^(0+128),w
  5515  1D2A  00A7               	movwf	(__Umul8_16@word_mpld+1)^(0+128)
  5516  1D2B                     l2337:	
  5517  1D2B  1C28               	btfss	__Umul8_16@multiplier^(0+128),0
  5518  1D2C  2D2E               	goto	u3231
  5519  1D2D  2D2F               	goto	u3230
  5520  1D2E                     u3231:	
  5521  1D2E  2D35               	goto	l853
  5522  1D2F                     u3230:	
  5523  1D2F                     l2339:	
  5524  1D2F  0826               	movf	__Umul8_16@word_mpld^(0+128),w
  5525  1D30  07A4               	addwf	__Umul8_16@product^(0+128),f
  5526  1D31  1803               	skipnc
  5527  1D32  0AA5               	incf	(__Umul8_16@product+1)^(0+128),f
  5528  1D33  0827               	movf	(__Umul8_16@word_mpld+1)^(0+128),w
  5529  1D34  07A5               	addwf	(__Umul8_16@product+1)^(0+128),f
  5530  1D35                     l853:	
  5531  1D35  3001               	movlw	1
  5532  1D36                     u3245:	
  5533  1D36  1003               	clrc
  5534  1D37  0DA6               	rlf	__Umul8_16@word_mpld^(0+128),f
  5535  1D38  0DA7               	rlf	(__Umul8_16@word_mpld+1)^(0+128),f
  5536  1D39  3EFF               	addlw	-1
  5537  1D3A  1D03               	skipz
  5538  1D3B  2D36               	goto	u3245
  5539  1D3C  1003               	clrc
  5540  1D3D  0CA8               	rrf	__Umul8_16@multiplier^(0+128),f
  5541  1D3E                     l2341:	
  5542  1D3E  0828               	movf	__Umul8_16@multiplier^(0+128),w
  5543  1D3F  1D03               	btfss	3,2
  5544  1D40  2D42               	goto	u3251
  5545  1D41  2D43               	goto	u3250
  5546  1D42                     u3251:	
  5547  1D42  2D2B               	goto	l2337
  5548  1D43                     u3250:	
  5549  1D43                     l2343:	
  5550  1D43  0825               	movf	(__Umul8_16@product+1)^(0+128),w
  5551  1D44  00A1               	movwf	(?__Umul8_16+1)^(0+128)
  5552  1D45  0824               	movf	__Umul8_16@product^(0+128),w
  5553  1D46  00A0               	movwf	?__Umul8_16^(0+128)
  5554  1D47                     l855:	
  5555  1D47  0008               	return
  5556  1D48                     __end_of__Umul8_16:	
  5557                           
  5558                           	psect	text15
  5559  083A                     __ptext15:	
  5560 ;; *************** function ___fldiv *****************
  5561 ;; Defined at:
  5562 ;;		line 8 in file "C:\Program Files (x86)\Microchip\xc8\v2.10\pic\sources\c90\common\sprcdiv.c"
  5563 ;; Parameters:    Size  Location     Type
  5564 ;;  a               4   20[BANK1 ] unsigned int 
  5565 ;;  b               4   24[BANK1 ] unsigned int 
  5566 ;; Auto vars:     Size  Location     Type
  5567 ;;  grs             4   40[BANK1 ] unsigned long 
  5568 ;;  rem             4   33[BANK1 ] unsigned long 
  5569 ;;  new_exp         2   38[BANK1 ] int 
  5570 ;;  aexp            1   45[BANK1 ] unsigned char 
  5571 ;;  bexp            1   44[BANK1 ] unsigned char 
  5572 ;;  sign            1   37[BANK1 ] unsigned char 
  5573 ;; Return value:  Size  Location     Type
  5574 ;;                  4   20[BANK1 ] unsigned char 
  5575 ;; Registers used:
  5576 ;;		wreg, status,2, status,0, btemp+1
  5577 ;; Tracked objects:
  5578 ;;		On entry : 0/0
  5579 ;;		On exit  : 0/0
  5580 ;;		Unchanged: 0/0
  5581 ;; Data sizes:     COMMON   BANK0   BANK1   BANK3   BANK2
  5582 ;;      Params:         0       0       8       0       0
  5583 ;;      Locals:         0       0      13       0       0
  5584 ;;      Temps:          0       0       5       0       0
  5585 ;;      Totals:         0       0      26       0       0
  5586 ;;Total ram usage:       26 bytes
  5587 ;; Hardware stack levels used:    1
  5588 ;; Hardware stack levels required when called:    4
  5589 ;; This function calls:
  5590 ;;		Nothing
  5591 ;; This function is called by:
  5592 ;;		_pwm_set
  5593 ;;		_pwm_calc
  5594 ;; This function uses a non-reentrant model
  5595 ;;
  5596                           
  5597                           
  5598                           ;psect for function ___fldiv
  5599  083A                     ___fldiv:	
  5600  083A                     l2669:	
  5601                           ;incstack = 0
  5602                           ; Regs used in ___fldiv: [wreg+status,2+status,0+btemp+1]
  5603                           
  5604  083A  1683               	bsf	3,5	;RP0=1, select bank1
  5605  083B  1303               	bcf	3,6	;RP1=0, select bank1
  5606  083C  083B               	movf	(___fldiv@b^(0+128)+3),w
  5607  083D  3980               	andlw	128
  5608  083E  00BC               	movwf	??___fldiv^(0+128)
  5609  083F  083C               	movf	??___fldiv^(0+128),w
  5610  0840  00C5               	movwf	___fldiv@sign^(0+128)
  5611  0841                     l2671:	
  5612  0841  083B               	movf	(___fldiv@b^(0+128)+3),w
  5613  0842  00BC               	movwf	??___fldiv^(0+128)
  5614  0843  073C               	addwf	??___fldiv^(0+128),w
  5615  0844  00BD               	movwf	(??___fldiv+1)^(0+128)
  5616  0845  083D               	movf	(??___fldiv+1)^(0+128),w
  5617  0846  00CC               	movwf	___fldiv@bexp^(0+128)
  5618  0847                     l2673:	
  5619  0847  1FBA               	btfss	(___fldiv@b^(0+128)+2),7
  5620  0848  284A               	goto	u4041
  5621  0849  284B               	goto	u4040
  5622  084A                     u4041:	
  5623  084A  284C               	goto	l2677
  5624  084B                     u4040:	
  5625  084B                     l2675:	
  5626  084B  144C               	bsf	___fldiv@bexp^(0+128),0
  5627  084C                     l2677:	
  5628  084C  084C               	movf	___fldiv@bexp^(0+128),w
  5629  084D  1903               	btfsc	3,2
  5630  084E  2850               	goto	u4051
  5631  084F  2851               	goto	u4050
  5632  0850                     u4051:	
  5633  0850  2861               	goto	l2687
  5634  0851                     u4050:	
  5635  0851                     l2679:	
  5636  0851  0A4C               	incf	___fldiv@bexp^(0+128),w
  5637  0852  1D03               	btfss	3,2
  5638  0853  2855               	goto	u4061
  5639  0854  2856               	goto	u4060
  5640  0855                     u4061:	
  5641  0855  285E               	goto	l2683
  5642  0856                     u4060:	
  5643  0856                     l2681:	
  5644  0856  3000               	movlw	0
  5645  0857  00BB               	movwf	(___fldiv@b+3)^(0+128)
  5646  0858  3000               	movlw	0
  5647  0859  00BA               	movwf	(___fldiv@b+2)^(0+128)
  5648  085A  3000               	movlw	0
  5649  085B  00B9               	movwf	(___fldiv@b+1)^(0+128)
  5650  085C  3000               	movlw	0
  5651  085D  00B8               	movwf	___fldiv@b^(0+128)
  5652  085E                     l2683:	
  5653  085E  17BA               	bsf	(___fldiv@b^(0+128)+2),7
  5654  085F                     l2685:	
  5655  085F  01BB               	clrf	(___fldiv@b^(0+128)+3)
  5656  0860  2869               	goto	l2689
  5657  0861                     l2687:	
  5658  0861  3000               	movlw	0
  5659  0862  00BB               	movwf	(___fldiv@b+3)^(0+128)
  5660  0863  3000               	movlw	0
  5661  0864  00BA               	movwf	(___fldiv@b+2)^(0+128)
  5662  0865  3000               	movlw	0
  5663  0866  00B9               	movwf	(___fldiv@b+1)^(0+128)
  5664  0867  3000               	movlw	0
  5665  0868  00B8               	movwf	___fldiv@b^(0+128)
  5666  0869                     l2689:	
  5667  0869  0837               	movf	(___fldiv@a^(0+128)+3),w
  5668  086A  3980               	andlw	128
  5669  086B  00BC               	movwf	??___fldiv^(0+128)
  5670  086C  083C               	movf	??___fldiv^(0+128),w
  5671  086D  06C5               	xorwf	___fldiv@sign^(0+128),f
  5672  086E                     l2691:	
  5673  086E  0837               	movf	(___fldiv@a^(0+128)+3),w
  5674  086F  00BC               	movwf	??___fldiv^(0+128)
  5675  0870  073C               	addwf	??___fldiv^(0+128),w
  5676  0871  00BD               	movwf	(??___fldiv+1)^(0+128)
  5677  0872  083D               	movf	(??___fldiv+1)^(0+128),w
  5678  0873  00CD               	movwf	___fldiv@aexp^(0+128)
  5679  0874                     l2693:	
  5680  0874  1FB6               	btfss	(___fldiv@a^(0+128)+2),7
  5681  0875  2877               	goto	u4071
  5682  0876  2878               	goto	u4070
  5683  0877                     u4071:	
  5684  0877  2879               	goto	l2697
  5685  0878                     u4070:	
  5686  0878                     l2695:	
  5687  0878  144D               	bsf	___fldiv@aexp^(0+128),0
  5688  0879                     l2697:	
  5689  0879  084D               	movf	___fldiv@aexp^(0+128),w
  5690  087A  1903               	btfsc	3,2
  5691  087B  287D               	goto	u4081
  5692  087C  287E               	goto	u4080
  5693  087D                     u4081:	
  5694  087D  288E               	goto	l2707
  5695  087E                     u4080:	
  5696  087E                     l2699:	
  5697  087E  0A4D               	incf	___fldiv@aexp^(0+128),w
  5698  087F  1D03               	btfss	3,2
  5699  0880  2882               	goto	u4091
  5700  0881  2883               	goto	u4090
  5701  0882                     u4091:	
  5702  0882  288B               	goto	l2703
  5703  0883                     u4090:	
  5704  0883                     l2701:	
  5705  0883  3000               	movlw	0
  5706  0884  00B7               	movwf	(___fldiv@a+3)^(0+128)
  5707  0885  3000               	movlw	0
  5708  0886  00B6               	movwf	(___fldiv@a+2)^(0+128)
  5709  0887  3000               	movlw	0
  5710  0888  00B5               	movwf	(___fldiv@a+1)^(0+128)
  5711  0889  3000               	movlw	0
  5712  088A  00B4               	movwf	___fldiv@a^(0+128)
  5713  088B                     l2703:	
  5714  088B  17B6               	bsf	(___fldiv@a^(0+128)+2),7
  5715  088C                     l2705:	
  5716  088C  01B7               	clrf	(___fldiv@a^(0+128)+3)
  5717  088D  2896               	goto	l752
  5718  088E                     l2707:	
  5719  088E  3000               	movlw	0
  5720  088F  00B7               	movwf	(___fldiv@a+3)^(0+128)
  5721  0890  3000               	movlw	0
  5722  0891  00B6               	movwf	(___fldiv@a+2)^(0+128)
  5723  0892  3000               	movlw	0
  5724  0893  00B5               	movwf	(___fldiv@a+1)^(0+128)
  5725  0894  3000               	movlw	0
  5726  0895  00B4               	movwf	___fldiv@a^(0+128)
  5727  0896                     l752:	
  5728  0896  0837               	movf	(___fldiv@a+3)^(0+128),w
  5729  0897  0436               	iorwf	(___fldiv@a+2)^(0+128),w
  5730  0898  0435               	iorwf	(___fldiv@a+1)^(0+128),w
  5731  0899  0434               	iorwf	___fldiv@a^(0+128),w
  5732  089A  1D03               	skipz
  5733  089B  289D               	goto	u4101
  5734  089C  289E               	goto	u4100
  5735  089D                     u4101:	
  5736  089D  28B7               	goto	l2717
  5737  089E                     u4100:	
  5738  089E                     l2709:	
  5739  089E  3000               	movlw	0
  5740  089F  00BB               	movwf	(___fldiv@b+3)^(0+128)
  5741  08A0  3000               	movlw	0
  5742  08A1  00BA               	movwf	(___fldiv@b+2)^(0+128)
  5743  08A2  3000               	movlw	0
  5744  08A3  00B9               	movwf	(___fldiv@b+1)^(0+128)
  5745  08A4  3000               	movlw	0
  5746  08A5  00B8               	movwf	___fldiv@b^(0+128)
  5747  08A6  3080               	movlw	128
  5748  08A7  04BA               	iorwf	(___fldiv@b^(0+128)+2),f
  5749  08A8  307F               	movlw	127
  5750  08A9  04BB               	iorwf	((___fldiv@b+1)^(0+128)+2),f
  5751  08AA                     l2711:	
  5752  08AA  0845               	movf	___fldiv@sign^(0+128),w
  5753  08AB  00BC               	movwf	??___fldiv^(0+128)
  5754  08AC  083C               	movf	??___fldiv^(0+128),w
  5755  08AD  04BB               	iorwf	(___fldiv@b^(0+128)+3),f
  5756  08AE                     l2713:	
  5757  08AE  083B               	movf	(___fldiv@b+3)^(0+128),w
  5758  08AF  00B7               	movwf	(?___fldiv+3)^(0+128)
  5759  08B0  083A               	movf	(___fldiv@b+2)^(0+128),w
  5760  08B1  00B6               	movwf	(?___fldiv+2)^(0+128)
  5761  08B2  0839               	movf	(___fldiv@b+1)^(0+128),w
  5762  08B3  00B5               	movwf	(?___fldiv+1)^(0+128)
  5763  08B4  0838               	movf	___fldiv@b^(0+128),w
  5764  08B5  00B4               	movwf	?___fldiv^(0+128)
  5765  08B6  2A16               	goto	l754
  5766  08B7                     l2717:	
  5767  08B7  084C               	movf	___fldiv@bexp^(0+128),w
  5768  08B8  1D03               	btfss	3,2
  5769  08B9  28BB               	goto	u4111
  5770  08BA  28BC               	goto	u4110
  5771  08BB                     u4111:	
  5772  08BB  28C5               	goto	l2723
  5773  08BC                     u4110:	
  5774  08BC                     l2719:	
  5775  08BC  3000               	movlw	0
  5776  08BD  00B7               	movwf	(?___fldiv+3)^(0+128)
  5777  08BE  3000               	movlw	0
  5778  08BF  00B6               	movwf	(?___fldiv+2)^(0+128)
  5779  08C0  3000               	movlw	0
  5780  08C1  00B5               	movwf	(?___fldiv+1)^(0+128)
  5781  08C2  3000               	movlw	0
  5782  08C3  00B4               	movwf	?___fldiv^(0+128)
  5783  08C4  2A16               	goto	l754
  5784  08C5                     l2723:	
  5785  08C5  084C               	movf	___fldiv@bexp^(0+128),w
  5786  08C6  00BC               	movwf	??___fldiv^(0+128)
  5787  08C7  01BD               	clrf	(??___fldiv^(0+128)+1)
  5788  08C8  083D               	movf	(??___fldiv+1)^(0+128),w
  5789  08C9  00BF               	movwf	((??___fldiv+2)^(0+128)+1)
  5790  08CA  084D               	movf	___fldiv@aexp^(0+128),w
  5791  08CB  023C               	subwf	??___fldiv^(0+128),w
  5792  08CC  00BE               	movwf	(??___fldiv+2)^(0+128)
  5793  08CD  1C03               	skipc
  5794  08CE  03BF               	decf	((??___fldiv+2)^(0+128)+1),f
  5795  08CF  083E               	movf	(??___fldiv+2)^(0+128),w
  5796  08D0  3E7F               	addlw	127
  5797  08D1  00C6               	movwf	___fldiv@new_exp^(0+128)
  5798  08D2  083F               	movf	(??___fldiv+3)^(0+128),w
  5799  08D3  1803               	skipnc
  5800  08D4  3E01               	addlw	1
  5801  08D5  3E00               	addlw	0
  5802  08D6  00C7               	movwf	(___fldiv@new_exp+1)^(0+128)
  5803  08D7                     l2725:	
  5804  08D7  083B               	movf	(___fldiv@b+3)^(0+128),w
  5805  08D8  00C4               	movwf	(___fldiv@rem+3)^(0+128)
  5806  08D9  083A               	movf	(___fldiv@b+2)^(0+128),w
  5807  08DA  00C3               	movwf	(___fldiv@rem+2)^(0+128)
  5808  08DB  0839               	movf	(___fldiv@b+1)^(0+128),w
  5809  08DC  00C2               	movwf	(___fldiv@rem+1)^(0+128)
  5810  08DD  0838               	movf	___fldiv@b^(0+128),w
  5811  08DE  00C1               	movwf	___fldiv@rem^(0+128)
  5812  08DF                     l2727:	
  5813  08DF  3000               	movlw	0
  5814  08E0  00BB               	movwf	(___fldiv@b+3)^(0+128)
  5815  08E1  3000               	movlw	0
  5816  08E2  00BA               	movwf	(___fldiv@b+2)^(0+128)
  5817  08E3  3000               	movlw	0
  5818  08E4  00B9               	movwf	(___fldiv@b+1)^(0+128)
  5819  08E5  3000               	movlw	0
  5820  08E6  00B8               	movwf	___fldiv@b^(0+128)
  5821  08E7                     l2729:	
  5822  08E7  3000               	movlw	0
  5823  08E8  00CB               	movwf	(___fldiv@grs+3)^(0+128)
  5824  08E9  3000               	movlw	0
  5825  08EA  00CA               	movwf	(___fldiv@grs+2)^(0+128)
  5826  08EB  3000               	movlw	0
  5827  08EC  00C9               	movwf	(___fldiv@grs+1)^(0+128)
  5828  08ED  3000               	movlw	0
  5829  08EE  00C8               	movwf	___fldiv@grs^(0+128)
  5830  08EF                     l2731:	
  5831  08EF  01CD               	clrf	___fldiv@aexp^(0+128)
  5832  08F0  293B               	goto	l2751
  5833  08F1                     l2733:	
  5834  08F1  084D               	movf	___fldiv@aexp^(0+128),w
  5835  08F2  1903               	btfsc	3,2
  5836  08F3  28F5               	goto	u4121
  5837  08F4  28F6               	goto	u4120
  5838  08F5                     u4121:	
  5839  08F5  2916               	goto	l2743
  5840  08F6                     u4120:	
  5841  08F6                     l2735:	
  5842  08F6  3001               	movlw	1
  5843  08F7  00BC               	movwf	??___fldiv^(0+128)
  5844  08F8                     u4135:	
  5845  08F8  1003               	clrc
  5846  08F9  0DC1               	rlf	___fldiv@rem^(0+128),f
  5847  08FA  0DC2               	rlf	(___fldiv@rem+1)^(0+128),f
  5848  08FB  0DC3               	rlf	(___fldiv@rem+2)^(0+128),f
  5849  08FC  0DC4               	rlf	(___fldiv@rem+3)^(0+128),f
  5850  08FD  0BBC               	decfsz	??___fldiv^(0+128),f
  5851  08FE  28F8               	goto	u4135
  5852  08FF  3001               	movlw	1
  5853  0900  00BC               	movwf	??___fldiv^(0+128)
  5854  0901                     u4145:	
  5855  0901  1003               	clrc
  5856  0902  0DB8               	rlf	___fldiv@b^(0+128),f
  5857  0903  0DB9               	rlf	(___fldiv@b+1)^(0+128),f
  5858  0904  0DBA               	rlf	(___fldiv@b+2)^(0+128),f
  5859  0905  0DBB               	rlf	(___fldiv@b+3)^(0+128),f
  5860  0906  0BBC               	decfsz	??___fldiv^(0+128),f
  5861  0907  2901               	goto	u4145
  5862  0908                     l2737:	
  5863  0908  1FCB               	btfss	(___fldiv@grs+3)^(0+128),7
  5864  0909  290B               	goto	u4151
  5865  090A  290C               	goto	u4150
  5866  090B                     u4151:	
  5867  090B  290D               	goto	l2741
  5868  090C                     u4150:	
  5869  090C                     l2739:	
  5870  090C  1438               	bsf	___fldiv@b^(0+128),0
  5871  090D                     l2741:	
  5872  090D  3001               	movlw	1
  5873  090E  00BC               	movwf	??___fldiv^(0+128)
  5874  090F                     u4165:	
  5875  090F  1003               	clrc
  5876  0910  0DC8               	rlf	___fldiv@grs^(0+128),f
  5877  0911  0DC9               	rlf	(___fldiv@grs+1)^(0+128),f
  5878  0912  0DCA               	rlf	(___fldiv@grs+2)^(0+128),f
  5879  0913  0DCB               	rlf	(___fldiv@grs+3)^(0+128),f
  5880  0914  0BBC               	decfsz	??___fldiv^(0+128),f
  5881  0915  290F               	goto	u4165
  5882  0916                     l2743:	
  5883  0916  0837               	movf	(___fldiv@a+3)^(0+128),w
  5884  0917  0244               	subwf	(___fldiv@rem+3)^(0+128),w
  5885  0918  1D03               	skipz
  5886  0919  2924               	goto	u4175
  5887  091A  0836               	movf	(___fldiv@a+2)^(0+128),w
  5888  091B  0243               	subwf	(___fldiv@rem+2)^(0+128),w
  5889  091C  1D03               	skipz
  5890  091D  2924               	goto	u4175
  5891  091E  0835               	movf	(___fldiv@a+1)^(0+128),w
  5892  091F  0242               	subwf	(___fldiv@rem+1)^(0+128),w
  5893  0920  1D03               	skipz
  5894  0921  2924               	goto	u4175
  5895  0922  0834               	movf	___fldiv@a^(0+128),w
  5896  0923  0241               	subwf	___fldiv@rem^(0+128),w
  5897  0924                     u4175:	
  5898  0924  1C03               	skipc
  5899  0925  2927               	goto	u4171
  5900  0926  2928               	goto	u4170
  5901  0927                     u4171:	
  5902  0927  2937               	goto	l2749
  5903  0928                     u4170:	
  5904  0928                     l2745:	
  5905  0928  174B               	bsf	(___fldiv@grs^(0+128)+3),6
  5906  0929                     l2747:	
  5907  0929  0834               	movf	___fldiv@a^(0+128),w
  5908  092A  02C1               	subwf	___fldiv@rem^(0+128),f
  5909  092B  0835               	movf	(___fldiv@a+1)^(0+128),w
  5910  092C  1C03               	skipc
  5911  092D  0F35               	incfsz	(___fldiv@a+1)^(0+128),w
  5912  092E  02C2               	subwf	(___fldiv@rem+1)^(0+128),f
  5913  092F  0836               	movf	(___fldiv@a+2)^(0+128),w
  5914  0930  1C03               	skipc
  5915  0931  0F36               	incfsz	(___fldiv@a+2)^(0+128),w
  5916  0932  02C3               	subwf	(___fldiv@rem+2)^(0+128),f
  5917  0933  0837               	movf	(___fldiv@a+3)^(0+128),w
  5918  0934  1C03               	skipc
  5919  0935  0F37               	incfsz	(___fldiv@a+3)^(0+128),w
  5920  0936  02C4               	subwf	(___fldiv@rem+3)^(0+128),f
  5921  0937                     l2749:	
  5922  0937  3001               	movlw	1
  5923  0938  00BC               	movwf	??___fldiv^(0+128)
  5924  0939  083C               	movf	??___fldiv^(0+128),w
  5925  093A  07CD               	addwf	___fldiv@aexp^(0+128),f
  5926  093B                     l2751:	
  5927  093B  301A               	movlw	26
  5928  093C  024D               	subwf	___fldiv@aexp^(0+128),w
  5929  093D  1C03               	skipc
  5930  093E  2940               	goto	u4181
  5931  093F  2941               	goto	u4180
  5932  0940                     u4181:	
  5933  0940  28F1               	goto	l2733
  5934  0941                     u4180:	
  5935  0941                     l2753:	
  5936  0941  0844               	movf	(___fldiv@rem+3)^(0+128),w
  5937  0942  0443               	iorwf	(___fldiv@rem+2)^(0+128),w
  5938  0943  0442               	iorwf	(___fldiv@rem+1)^(0+128),w
  5939  0944  0441               	iorwf	___fldiv@rem^(0+128),w
  5940  0945  1903               	skipnz
  5941  0946  2948               	goto	u4191
  5942  0947  2949               	goto	u4190
  5943  0948                     u4191:	
  5944  0948  2968               	goto	l2767
  5945  0949                     u4190:	
  5946  0949                     l2755:	
  5947  0949  1448               	bsf	___fldiv@grs^(0+128),0
  5948  094A  2968               	goto	l2767
  5949  094B                     l2757:	
  5950  094B  3001               	movlw	1
  5951  094C  00BC               	movwf	??___fldiv^(0+128)
  5952  094D                     u4205:	
  5953  094D  1003               	clrc
  5954  094E  0DB8               	rlf	___fldiv@b^(0+128),f
  5955  094F  0DB9               	rlf	(___fldiv@b+1)^(0+128),f
  5956  0950  0DBA               	rlf	(___fldiv@b+2)^(0+128),f
  5957  0951  0DBB               	rlf	(___fldiv@b+3)^(0+128),f
  5958  0952  0BBC               	decfsz	??___fldiv^(0+128),f
  5959  0953  294D               	goto	u4205
  5960  0954                     l2759:	
  5961  0954  1FCB               	btfss	(___fldiv@grs+3)^(0+128),7
  5962  0955  2957               	goto	u4211
  5963  0956  2958               	goto	u4210
  5964  0957                     u4211:	
  5965  0957  2959               	goto	l2763
  5966  0958                     u4210:	
  5967  0958                     l2761:	
  5968  0958  1438               	bsf	___fldiv@b^(0+128),0
  5969  0959                     l2763:	
  5970  0959  3001               	movlw	1
  5971  095A  00BC               	movwf	??___fldiv^(0+128)
  5972  095B                     u4225:	
  5973  095B  1003               	clrc
  5974  095C  0DC8               	rlf	___fldiv@grs^(0+128),f
  5975  095D  0DC9               	rlf	(___fldiv@grs+1)^(0+128),f
  5976  095E  0DCA               	rlf	(___fldiv@grs+2)^(0+128),f
  5977  095F  0DCB               	rlf	(___fldiv@grs+3)^(0+128),f
  5978  0960  0BBC               	decfsz	??___fldiv^(0+128),f
  5979  0961  295B               	goto	u4225
  5980  0962                     l2765:	
  5981  0962  30FF               	movlw	255
  5982  0963  07C6               	addwf	___fldiv@new_exp^(0+128),f
  5983  0964  1803               	skipnc
  5984  0965  0AC7               	incf	(___fldiv@new_exp+1)^(0+128),f
  5985  0966  30FF               	movlw	255
  5986  0967  07C7               	addwf	(___fldiv@new_exp+1)^(0+128),f
  5987  0968                     l2767:	
  5988  0968  1FBA               	btfss	(___fldiv@b+2)^(0+128),7
  5989  0969  296B               	goto	u4231
  5990  096A  296C               	goto	u4230
  5991  096B                     u4231:	
  5992  096B  294B               	goto	l2757
  5993  096C                     u4230:	
  5994  096C                     l2769:	
  5995  096C  01CD               	clrf	___fldiv@aexp^(0+128)
  5996  096D                     l2771:	
  5997  096D  1FCB               	btfss	(___fldiv@grs+3)^(0+128),7
  5998  096E  2970               	goto	u4241
  5999  096F  2971               	goto	u4240
  6000  0970                     u4241:	
  6001  0970  298D               	goto	l2779
  6002  0971                     u4240:	
  6003  0971                     l2773:	
  6004  0971  30FF               	movlw	255
  6005  0972  0548               	andwf	___fldiv@grs^(0+128),w
  6006  0973  00BC               	movwf	??___fldiv^(0+128)
  6007  0974  30FF               	movlw	255
  6008  0975  0549               	andwf	(___fldiv@grs+1)^(0+128),w
  6009  0976  00BD               	movwf	(??___fldiv^(0+128)+1)
  6010  0977  30FF               	movlw	255
  6011  0978  054A               	andwf	(___fldiv@grs+2)^(0+128),w
  6012  0979  00BE               	movwf	(??___fldiv^(0+128)+2)
  6013  097A  307F               	movlw	127
  6014  097B  054B               	andwf	(___fldiv@grs+3)^(0+128),w
  6015  097C  00BF               	movwf	(??___fldiv^(0+128)+3)
  6016  097D  083F               	movf	(??___fldiv+3)^(0+128),w
  6017  097E  043E               	iorwf	(??___fldiv+2)^(0+128),w
  6018  097F  043D               	iorwf	(??___fldiv+1)^(0+128),w
  6019  0980  043C               	iorwf	??___fldiv^(0+128),w
  6020  0981  1903               	skipnz
  6021  0982  2984               	goto	u4251
  6022  0983  2985               	goto	u4250
  6023  0984                     u4251:	
  6024  0984  2988               	goto	l768
  6025  0985                     u4250:	
  6026  0985                     l2775:	
  6027  0985  01CD               	clrf	___fldiv@aexp^(0+128)
  6028  0986  0ACD               	incf	___fldiv@aexp^(0+128),f
  6029  0987  298D               	goto	l2779
  6030  0988                     l768:	
  6031  0988  1C38               	btfss	___fldiv@b^(0+128),0
  6032  0989  298B               	goto	u4261
  6033  098A  298C               	goto	u4260
  6034  098B                     u4261:	
  6035  098B  298D               	goto	l2779
  6036  098C                     u4260:	
  6037  098C  2985               	goto	l2775
  6038  098D                     l2779:	
  6039  098D  084D               	movf	___fldiv@aexp^(0+128),w
  6040  098E  1903               	btfsc	3,2
  6041  098F  2991               	goto	u4271
  6042  0990  2992               	goto	u4270
  6043  0991                     u4271:	
  6044  0991  29C3               	goto	l2789
  6045  0992                     u4270:	
  6046  0992                     l2781:	
  6047  0992  3001               	movlw	1
  6048  0993  07B8               	addwf	___fldiv@b^(0+128),f
  6049  0994  3000               	movlw	0
  6050  0995  1803               	skipnc
  6051  0996  3001               	movlw	1
  6052  0997  07B9               	addwf	(___fldiv@b+1)^(0+128),f
  6053  0998  3000               	movlw	0
  6054  0999  1803               	skipnc
  6055  099A  3001               	movlw	1
  6056  099B  07BA               	addwf	(___fldiv@b+2)^(0+128),f
  6057  099C  3000               	movlw	0
  6058  099D  1803               	skipnc
  6059  099E  3001               	movlw	1
  6060  099F  07BB               	addwf	(___fldiv@b+3)^(0+128),f
  6061  09A0                     l2783:	
  6062  09A0  1C3B               	btfss	(___fldiv@b+3)^(0+128),0
  6063  09A1  29A3               	goto	u4281
  6064  09A2  29A4               	goto	u4280
  6065  09A3                     u4281:	
  6066  09A3  29C3               	goto	l2789
  6067  09A4                     u4280:	
  6068  09A4                     l2785:	
  6069  09A4  0838               	movf	___fldiv@b^(0+128),w
  6070  09A5  00BC               	movwf	??___fldiv^(0+128)
  6071  09A6  0839               	movf	(___fldiv@b+1)^(0+128),w
  6072  09A7  00BD               	movwf	(??___fldiv^(0+128)+1)
  6073  09A8  083A               	movf	(___fldiv@b+2)^(0+128),w
  6074  09A9  00BE               	movwf	(??___fldiv^(0+128)+2)
  6075  09AA  083B               	movf	(___fldiv@b+3)^(0+128),w
  6076  09AB  00BF               	movwf	(??___fldiv^(0+128)+3)
  6077  09AC  3001               	movlw	1
  6078  09AD  00C0               	movwf	(??___fldiv+4)^(0+128)
  6079  09AE                     u4295:	
  6080  09AE  0D3F               	rlf	(??___fldiv^(0+128)+3),w
  6081  09AF  0CBF               	rrf	(??___fldiv^(0+128)+3),f
  6082  09B0  0CBE               	rrf	(??___fldiv^(0+128)+2),f
  6083  09B1  0CBD               	rrf	(??___fldiv^(0+128)+1),f
  6084  09B2  0CBC               	rrf	??___fldiv^(0+128),f
  6085  09B3                     u4290:	
  6086  09B3  0BC0               	decfsz	(??___fldiv+4)^(0+128),f
  6087  09B4  29AE               	goto	u4295
  6088  09B5  083F               	movf	(??___fldiv+3)^(0+128),w
  6089  09B6  00BB               	movwf	(___fldiv@b+3)^(0+128)
  6090  09B7  083E               	movf	(??___fldiv+2)^(0+128),w
  6091  09B8  00BA               	movwf	(___fldiv@b+2)^(0+128)
  6092  09B9  083D               	movf	(??___fldiv+1)^(0+128),w
  6093  09BA  00B9               	movwf	(___fldiv@b+1)^(0+128)
  6094  09BB  083C               	movf	??___fldiv^(0+128),w
  6095  09BC  00B8               	movwf	___fldiv@b^(0+128)
  6096  09BD                     l2787:	
  6097  09BD  3001               	movlw	1
  6098  09BE  07C6               	addwf	___fldiv@new_exp^(0+128),f
  6099  09BF  1803               	skipnc
  6100  09C0  0AC7               	incf	(___fldiv@new_exp+1)^(0+128),f
  6101  09C1  3000               	movlw	0
  6102  09C2  07C7               	addwf	(___fldiv@new_exp+1)^(0+128),f
  6103  09C3                     l2789:	
  6104  09C3  0847               	movf	(___fldiv@new_exp+1)^(0+128),w
  6105  09C4  3A80               	xorlw	128
  6106  09C5  00FF               	movwf	btemp+1
  6107  09C6  3080               	movlw	128
  6108  09C7  027F               	subwf	btemp+1,w
  6109  09C8  1D03               	skipz
  6110  09C9  29CC               	goto	u4305
  6111  09CA  30FF               	movlw	255
  6112  09CB  0246               	subwf	___fldiv@new_exp^(0+128),w
  6113  09CC                     u4305:	
  6114  09CC  1C03               	skipc
  6115  09CD  29CF               	goto	u4301
  6116  09CE  29D0               	goto	u4300
  6117  09CF                     u4301:	
  6118  09CF  29DE               	goto	l2793
  6119  09D0                     u4300:	
  6120  09D0                     l2791:	
  6121  09D0  30FF               	movlw	255
  6122  09D1  1683               	bsf	3,5	;RP0=1, select bank1
  6123  09D2  1303               	bcf	3,6	;RP1=0, select bank1
  6124  09D3  00C6               	movwf	___fldiv@new_exp^(0+128)
  6125  09D4  3000               	movlw	0
  6126  09D5  00C7               	movwf	(___fldiv@new_exp^(0+128)+1)
  6127  09D6  3000               	movlw	0
  6128  09D7  00BB               	movwf	(___fldiv@b+3)^(0+128)
  6129  09D8  3000               	movlw	0
  6130  09D9  00BA               	movwf	(___fldiv@b+2)^(0+128)
  6131  09DA  3000               	movlw	0
  6132  09DB  00B9               	movwf	(___fldiv@b+1)^(0+128)
  6133  09DC  3000               	movlw	0
  6134  09DD  00B8               	movwf	___fldiv@b^(0+128)
  6135  09DE                     l2793:	
  6136  09DE  1683               	bsf	3,5	;RP0=1, select bank1
  6137  09DF  1303               	bcf	3,6	;RP1=0, select bank1
  6138  09E0  0847               	movf	(___fldiv@new_exp+1)^(0+128),w
  6139  09E1  3A80               	xorlw	128
  6140  09E2  00FF               	movwf	btemp+1
  6141  09E3  3080               	movlw	128
  6142  09E4  027F               	subwf	btemp+1,w
  6143  09E5  1D03               	skipz
  6144  09E6  29E9               	goto	u4315
  6145  09E7  3001               	movlw	1
  6146  09E8  0246               	subwf	___fldiv@new_exp^(0+128),w
  6147  09E9                     u4315:	
  6148  09E9  1803               	skipnc
  6149  09EA  29EC               	goto	u4311
  6150  09EB  29ED               	goto	u4310
  6151  09EC                     u4311:	
  6152  09EC  29FA               	goto	l774
  6153  09ED                     u4310:	
  6154  09ED                     l2795:	
  6155  09ED  1683               	bsf	3,5	;RP0=1, select bank1
  6156  09EE  1303               	bcf	3,6	;RP1=0, select bank1
  6157  09EF  01C6               	clrf	___fldiv@new_exp^(0+128)
  6158  09F0  01C7               	clrf	(___fldiv@new_exp+1)^(0+128)
  6159  09F1                     l2797:	
  6160  09F1  3000               	movlw	0
  6161  09F2  00BB               	movwf	(___fldiv@b+3)^(0+128)
  6162  09F3  3000               	movlw	0
  6163  09F4  00BA               	movwf	(___fldiv@b+2)^(0+128)
  6164  09F5  3000               	movlw	0
  6165  09F6  00B9               	movwf	(___fldiv@b+1)^(0+128)
  6166  09F7  3000               	movlw	0
  6167  09F8  00B8               	movwf	___fldiv@b^(0+128)
  6168  09F9                     l2799:	
  6169  09F9  01C5               	clrf	___fldiv@sign^(0+128)
  6170  09FA                     l774:	
  6171  09FA  1683               	bsf	3,5	;RP0=1, select bank1
  6172  09FB  1303               	bcf	3,6	;RP1=0, select bank1
  6173  09FC  0846               	movf	___fldiv@new_exp^(0+128),w
  6174  09FD  00BC               	movwf	??___fldiv^(0+128)
  6175  09FE  083C               	movf	??___fldiv^(0+128),w
  6176  09FF  00CC               	movwf	___fldiv@bexp^(0+128)
  6177  0A00                     l2801:	
  6178  0A00  1C4C               	btfss	___fldiv@bexp^(0+128),0
  6179  0A01  2A03               	goto	u4321
  6180  0A02  2A04               	goto	u4320
  6181  0A03                     u4321:	
  6182  0A03  2A06               	goto	l2805
  6183  0A04                     u4320:	
  6184  0A04                     l2803:	
  6185  0A04  17BA               	bsf	(___fldiv@b^(0+128)+2),7
  6186  0A05  2A0A               	goto	l776
  6187  0A06                     l2805:	
  6188  0A06  307F               	movlw	127
  6189  0A07  00BC               	movwf	??___fldiv^(0+128)
  6190  0A08  083C               	movf	??___fldiv^(0+128),w
  6191  0A09  05BA               	andwf	(___fldiv@b^(0+128)+2),f
  6192  0A0A                     l776:	
  6193  0A0A  084C               	movf	___fldiv@bexp^(0+128),w
  6194  0A0B  00BC               	movwf	??___fldiv^(0+128)
  6195  0A0C  1003               	clrc
  6196  0A0D  0C3C               	rrf	??___fldiv^(0+128),w
  6197  0A0E  00BD               	movwf	(??___fldiv+1)^(0+128)
  6198  0A0F  083D               	movf	(??___fldiv+1)^(0+128),w
  6199  0A10  00BB               	movwf	(___fldiv@b^(0+128)+3)
  6200  0A11  0845               	movf	___fldiv@sign^(0+128),w
  6201  0A12  00BC               	movwf	??___fldiv^(0+128)
  6202  0A13  083C               	movf	??___fldiv^(0+128),w
  6203  0A14  04BB               	iorwf	(___fldiv@b^(0+128)+3),f
  6204  0A15  28AE               	goto	l2713
  6205  0A16                     l754:	
  6206  0A16  0008               	return
  6207  0A17                     __end_of___fldiv:	
  6208                           
  6209                           	psect	text16
  6210  003E                     __ptext16:	
  6211 ;; *************** function ___fladd *****************
  6212 ;; Defined at:
  6213 ;;		line 10 in file "C:\Program Files (x86)\Microchip\xc8\v2.10\pic\sources\c90\common\sprcadd.c"
  6214 ;; Parameters:    Size  Location     Type
  6215 ;;  b               4   72[BANK1 ] unsigned char 
  6216 ;;  a               4   76[BANK1 ] unsigned char 
  6217 ;; Auto vars:     Size  Location     Type
  6218 ;;  grs             1   11[BANK3 ] unsigned char 
  6219 ;;  bexp            1   10[BANK3 ] unsigned char 
  6220 ;;  aexp            1    9[BANK3 ] unsigned char 
  6221 ;;  signs           1    8[BANK3 ] unsigned char 
  6222 ;; Return value:  Size  Location     Type
  6223 ;;                  4   72[BANK1 ] unsigned char 
  6224 ;; Registers used:
  6225 ;;		wreg, status,2, status,0, btemp+1
  6226 ;; Tracked objects:
  6227 ;;		On entry : 0/0
  6228 ;;		On exit  : 0/0
  6229 ;;		Unchanged: 0/0
  6230 ;; Data sizes:     COMMON   BANK0   BANK1   BANK3   BANK2
  6231 ;;      Params:         0       0       8       0       0
  6232 ;;      Locals:         0       0       0       4       0
  6233 ;;      Temps:          0       0       0       8       0
  6234 ;;      Totals:         0       0       8      12       0
  6235 ;;Total ram usage:       20 bytes
  6236 ;; Hardware stack levels used:    1
  6237 ;; Hardware stack levels required when called:    4
  6238 ;; This function calls:
  6239 ;;		Nothing
  6240 ;; This function is called by:
  6241 ;;		_pwm_set
  6242 ;;		_pwm_calc
  6243 ;; This function uses a non-reentrant model
  6244 ;;
  6245                           
  6246                           
  6247                           ;psect for function ___fladd
  6248  003E                     ___fladd:	
  6249  003E                     l2475:	
  6250                           ;incstack = 0
  6251                           ; Regs used in ___fladd: [wreg+status,2+status,0+btemp+1]
  6252                           
  6253  003E  1683               	bsf	3,5	;RP0=1, select bank1
  6254  003F  1303               	bcf	3,6	;RP1=0, select bank1
  6255  0040  086B               	movf	(___fladd@b^(0+128)+3),w
  6256  0041  3980               	andlw	128
  6257  0042  1683               	bsf	3,5	;RP0=1, select bank3
  6258  0043  1703               	bsf	3,6	;RP1=1, select bank3
  6259  0044  0090               	movwf	??___fladd^(0+384)
  6260  0045  0810               	movf	??___fladd^(0+384),w
  6261  0046  0098               	movwf	___fladd@signs^(0+384)
  6262  0047                     l2477:	
  6263  0047  1683               	bsf	3,5	;RP0=1, select bank1
  6264  0048  1303               	bcf	3,6	;RP1=0, select bank1
  6265  0049  086B               	movf	(___fladd@b^(0+128)+3),w
  6266  004A  1683               	bsf	3,5	;RP0=1, select bank3
  6267  004B  1703               	bsf	3,6	;RP1=1, select bank3
  6268  004C  0090               	movwf	??___fladd^(0+384)
  6269  004D  0710               	addwf	??___fladd^(0+384),w
  6270  004E  0091               	movwf	(??___fladd+1)^(0+384)
  6271  004F  0811               	movf	(??___fladd+1)^(0+384),w
  6272  0050  009A               	movwf	___fladd@bexp^(0+384)
  6273  0051                     l2479:	
  6274  0051  1683               	bsf	3,5	;RP0=1, select bank1
  6275  0052  1303               	bcf	3,6	;RP1=0, select bank1
  6276  0053  1FEA               	btfss	(___fladd@b^(0+128)+2),7
  6277  0054  2856               	goto	u3581
  6278  0055  2857               	goto	u3580
  6279  0056                     u3581:	
  6280  0056  285A               	goto	l2483
  6281  0057                     u3580:	
  6282  0057                     l2481:	
  6283  0057  1683               	bsf	3,5	;RP0=1, select bank3
  6284  0058  1703               	bsf	3,6	;RP1=1, select bank3
  6285  0059  141A               	bsf	___fladd@bexp^(0+384),0
  6286  005A                     l2483:	
  6287  005A  1683               	bsf	3,5	;RP0=1, select bank3
  6288  005B  1703               	bsf	3,6	;RP1=1, select bank3
  6289  005C  081A               	movf	___fladd@bexp^(0+384),w
  6290  005D  1903               	btfsc	3,2
  6291  005E  2860               	goto	u3591
  6292  005F  2861               	goto	u3590
  6293  0060                     u3591:	
  6294  0060  2874               	goto	l2493
  6295  0061                     u3590:	
  6296  0061                     l2485:	
  6297  0061  0A1A               	incf	___fladd@bexp^(0+384),w
  6298  0062  1D03               	btfss	3,2
  6299  0063  2865               	goto	u3601
  6300  0064  2866               	goto	u3600
  6301  0065                     u3601:	
  6302  0065  2870               	goto	l2489
  6303  0066                     u3600:	
  6304  0066                     l2487:	
  6305  0066  3000               	movlw	0
  6306  0067  1683               	bsf	3,5	;RP0=1, select bank1
  6307  0068  1303               	bcf	3,6	;RP1=0, select bank1
  6308  0069  00EB               	movwf	(___fladd@b+3)^(0+128)
  6309  006A  3000               	movlw	0
  6310  006B  00EA               	movwf	(___fladd@b+2)^(0+128)
  6311  006C  3000               	movlw	0
  6312  006D  00E9               	movwf	(___fladd@b+1)^(0+128)
  6313  006E  3000               	movlw	0
  6314  006F  00E8               	movwf	___fladd@b^(0+128)
  6315  0070                     l2489:	
  6316  0070  1303               	bcf	3,6	;RP1=0, select bank1
  6317  0071  17EA               	bsf	(___fladd@b^(0+128)+2),7
  6318  0072                     l2491:	
  6319  0072  01EB               	clrf	(___fladd@b^(0+128)+3)
  6320  0073  287E               	goto	l2495
  6321  0074                     l2493:	
  6322  0074  3000               	movlw	0
  6323  0075  1683               	bsf	3,5	;RP0=1, select bank1
  6324  0076  1303               	bcf	3,6	;RP1=0, select bank1
  6325  0077  00EB               	movwf	(___fladd@b+3)^(0+128)
  6326  0078  3000               	movlw	0
  6327  0079  00EA               	movwf	(___fladd@b+2)^(0+128)
  6328  007A  3000               	movlw	0
  6329  007B  00E9               	movwf	(___fladd@b+1)^(0+128)
  6330  007C  3000               	movlw	0
  6331  007D  00E8               	movwf	___fladd@b^(0+128)
  6332  007E                     l2495:	
  6333  007E  086F               	movf	(___fladd@a^(0+128)+3),w
  6334  007F  3980               	andlw	128
  6335  0080  1683               	bsf	3,5	;RP0=1, select bank3
  6336  0081  1703               	bsf	3,6	;RP1=1, select bank3
  6337  0082  0090               	movwf	??___fladd^(0+384)
  6338  0083  0810               	movf	??___fladd^(0+384),w
  6339  0084  0099               	movwf	___fladd@aexp^(0+384)
  6340  0085                     l2497:	
  6341  0085  0819               	movf	___fladd@aexp^(0+384),w
  6342  0086  0618               	xorwf	___fladd@signs^(0+384),w
  6343  0087  1903               	skipnz
  6344  0088  288A               	goto	u3611
  6345  0089  288B               	goto	u3610
  6346  008A                     u3611:	
  6347  008A  288C               	goto	l2501
  6348  008B                     u3610:	
  6349  008B                     l2499:	
  6350  008B  1718               	bsf	___fladd@signs^(0+384),6
  6351  008C                     l2501:	
  6352  008C  1683               	bsf	3,5	;RP0=1, select bank1
  6353  008D  1303               	bcf	3,6	;RP1=0, select bank1
  6354  008E  086F               	movf	(___fladd@a^(0+128)+3),w
  6355  008F  1683               	bsf	3,5	;RP0=1, select bank3
  6356  0090  1703               	bsf	3,6	;RP1=1, select bank3
  6357  0091  0090               	movwf	??___fladd^(0+384)
  6358  0092  0710               	addwf	??___fladd^(0+384),w
  6359  0093  0091               	movwf	(??___fladd+1)^(0+384)
  6360  0094  0811               	movf	(??___fladd+1)^(0+384),w
  6361  0095  0099               	movwf	___fladd@aexp^(0+384)
  6362  0096                     l2503:	
  6363  0096  1683               	bsf	3,5	;RP0=1, select bank1
  6364  0097  1303               	bcf	3,6	;RP1=0, select bank1
  6365  0098  1FEE               	btfss	(___fladd@a^(0+128)+2),7
  6366  0099  289B               	goto	u3621
  6367  009A  289C               	goto	u3620
  6368  009B                     u3621:	
  6369  009B  289F               	goto	l2507
  6370  009C                     u3620:	
  6371  009C                     l2505:	
  6372  009C  1683               	bsf	3,5	;RP0=1, select bank3
  6373  009D  1703               	bsf	3,6	;RP1=1, select bank3
  6374  009E  1419               	bsf	___fladd@aexp^(0+384),0
  6375  009F                     l2507:	
  6376  009F  1683               	bsf	3,5	;RP0=1, select bank3
  6377  00A0  1703               	bsf	3,6	;RP1=1, select bank3
  6378  00A1  0819               	movf	___fladd@aexp^(0+384),w
  6379  00A2  1903               	btfsc	3,2
  6380  00A3  28A5               	goto	u3631
  6381  00A4  28A6               	goto	u3630
  6382  00A5                     u3631:	
  6383  00A5  28B9               	goto	l2517
  6384  00A6                     u3630:	
  6385  00A6                     l2509:	
  6386  00A6  0A19               	incf	___fladd@aexp^(0+384),w
  6387  00A7  1D03               	btfss	3,2
  6388  00A8  28AA               	goto	u3641
  6389  00A9  28AB               	goto	u3640
  6390  00AA                     u3641:	
  6391  00AA  28B5               	goto	l2513
  6392  00AB                     u3640:	
  6393  00AB                     l2511:	
  6394  00AB  3000               	movlw	0
  6395  00AC  1683               	bsf	3,5	;RP0=1, select bank1
  6396  00AD  1303               	bcf	3,6	;RP1=0, select bank1
  6397  00AE  00EF               	movwf	(___fladd@a+3)^(0+128)
  6398  00AF  3000               	movlw	0
  6399  00B0  00EE               	movwf	(___fladd@a+2)^(0+128)
  6400  00B1  3000               	movlw	0
  6401  00B2  00ED               	movwf	(___fladd@a+1)^(0+128)
  6402  00B3  3000               	movlw	0
  6403  00B4  00EC               	movwf	___fladd@a^(0+128)
  6404  00B5                     l2513:	
  6405  00B5  1303               	bcf	3,6	;RP1=0, select bank1
  6406  00B6  17EE               	bsf	(___fladd@a^(0+128)+2),7
  6407  00B7                     l2515:	
  6408  00B7  01EF               	clrf	(___fladd@a^(0+128)+3)
  6409  00B8  28C3               	goto	l696
  6410  00B9                     l2517:	
  6411  00B9  3000               	movlw	0
  6412  00BA  1683               	bsf	3,5	;RP0=1, select bank1
  6413  00BB  1303               	bcf	3,6	;RP1=0, select bank1
  6414  00BC  00EF               	movwf	(___fladd@a+3)^(0+128)
  6415  00BD  3000               	movlw	0
  6416  00BE  00EE               	movwf	(___fladd@a+2)^(0+128)
  6417  00BF  3000               	movlw	0
  6418  00C0  00ED               	movwf	(___fladd@a+1)^(0+128)
  6419  00C1  3000               	movlw	0
  6420  00C2  00EC               	movwf	___fladd@a^(0+128)
  6421  00C3                     l696:	
  6422  00C3  1683               	bsf	3,5	;RP0=1, select bank3
  6423  00C4  1703               	bsf	3,6	;RP1=1, select bank3
  6424  00C5  081A               	movf	___fladd@bexp^(0+384),w
  6425  00C6  0219               	subwf	___fladd@aexp^(0+384),w
  6426  00C7  1803               	skipnc
  6427  00C8  28CA               	goto	u3651
  6428  00C9  28CB               	goto	u3650
  6429  00CA                     u3651:	
  6430  00CA  2941               	goto	l2553
  6431  00CB                     u3650:	
  6432  00CB                     l2519:	
  6433  00CB  1F18               	btfss	___fladd@signs^(0+384),6
  6434  00CC  28CE               	goto	u3661
  6435  00CD  28CF               	goto	u3660
  6436  00CE                     u3661:	
  6437  00CE  28D3               	goto	l2523
  6438  00CF                     u3660:	
  6439  00CF                     l2521:	
  6440  00CF  3080               	movlw	128
  6441  00D0  0090               	movwf	??___fladd^(0+384)
  6442  00D1  0810               	movf	??___fladd^(0+384),w
  6443  00D2  0698               	xorwf	___fladd@signs^(0+384),f
  6444  00D3                     l2523:	
  6445  00D3  081A               	movf	___fladd@bexp^(0+384),w
  6446  00D4  0090               	movwf	??___fladd^(0+384)
  6447  00D5  0810               	movf	??___fladd^(0+384),w
  6448  00D6  009B               	movwf	___fladd@grs^(0+384)
  6449  00D7                     l2525:	
  6450  00D7  0819               	movf	___fladd@aexp^(0+384),w
  6451  00D8  0090               	movwf	??___fladd^(0+384)
  6452  00D9  0810               	movf	??___fladd^(0+384),w
  6453  00DA  009A               	movwf	___fladd@bexp^(0+384)
  6454  00DB                     l2527:	
  6455  00DB  081B               	movf	___fladd@grs^(0+384),w
  6456  00DC  0090               	movwf	??___fladd^(0+384)
  6457  00DD  0810               	movf	??___fladd^(0+384),w
  6458  00DE  0099               	movwf	___fladd@aexp^(0+384)
  6459  00DF                     l2529:	
  6460  00DF  1683               	bsf	3,5	;RP0=1, select bank1
  6461  00E0  1303               	bcf	3,6	;RP1=0, select bank1
  6462  00E1  0868               	movf	___fladd@b^(0+128),w
  6463  00E2  1683               	bsf	3,5	;RP0=1, select bank3
  6464  00E3  1703               	bsf	3,6	;RP1=1, select bank3
  6465  00E4  0090               	movwf	??___fladd^(0+384)
  6466  00E5  0810               	movf	??___fladd^(0+384),w
  6467  00E6  009B               	movwf	___fladd@grs^(0+384)
  6468  00E7                     l2531:	
  6469  00E7  1683               	bsf	3,5	;RP0=1, select bank1
  6470  00E8  1303               	bcf	3,6	;RP1=0, select bank1
  6471  00E9  086C               	movf	___fladd@a^(0+128),w
  6472  00EA  1683               	bsf	3,5	;RP0=1, select bank3
  6473  00EB  1703               	bsf	3,6	;RP1=1, select bank3
  6474  00EC  0090               	movwf	??___fladd^(0+384)
  6475  00ED  0810               	movf	??___fladd^(0+384),w
  6476  00EE  1683               	bsf	3,5	;RP0=1, select bank1
  6477  00EF  1303               	bcf	3,6	;RP1=0, select bank1
  6478  00F0  00E8               	movwf	___fladd@b^(0+128)
  6479  00F1                     l2533:	
  6480  00F1  1683               	bsf	3,5	;RP0=1, select bank3
  6481  00F2  1703               	bsf	3,6	;RP1=1, select bank3
  6482  00F3  081B               	movf	___fladd@grs^(0+384),w
  6483  00F4  0090               	movwf	??___fladd^(0+384)
  6484  00F5  0810               	movf	??___fladd^(0+384),w
  6485  00F6  1683               	bsf	3,5	;RP0=1, select bank1
  6486  00F7  1303               	bcf	3,6	;RP1=0, select bank1
  6487  00F8  00EC               	movwf	___fladd@a^(0+128)
  6488  00F9                     l2535:	
  6489  00F9  0869               	movf	(___fladd@b^(0+128)+1),w
  6490  00FA  1683               	bsf	3,5	;RP0=1, select bank3
  6491  00FB  1703               	bsf	3,6	;RP1=1, select bank3
  6492  00FC  0090               	movwf	??___fladd^(0+384)
  6493  00FD  0810               	movf	??___fladd^(0+384),w
  6494  00FE  009B               	movwf	___fladd@grs^(0+384)
  6495  00FF                     l2537:	
  6496  00FF  1683               	bsf	3,5	;RP0=1, select bank1
  6497  0100  1303               	bcf	3,6	;RP1=0, select bank1
  6498  0101  086D               	movf	(___fladd@a^(0+128)+1),w
  6499  0102  1683               	bsf	3,5	;RP0=1, select bank3
  6500  0103  1703               	bsf	3,6	;RP1=1, select bank3
  6501  0104  0090               	movwf	??___fladd^(0+384)
  6502  0105  0810               	movf	??___fladd^(0+384),w
  6503  0106  1683               	bsf	3,5	;RP0=1, select bank1
  6504  0107  1303               	bcf	3,6	;RP1=0, select bank1
  6505  0108  00E9               	movwf	(___fladd@b^(0+128)+1)
  6506  0109                     l2539:	
  6507  0109  1683               	bsf	3,5	;RP0=1, select bank3
  6508  010A  1703               	bsf	3,6	;RP1=1, select bank3
  6509  010B  081B               	movf	___fladd@grs^(0+384),w
  6510  010C  0090               	movwf	??___fladd^(0+384)
  6511  010D  0810               	movf	??___fladd^(0+384),w
  6512  010E  1683               	bsf	3,5	;RP0=1, select bank1
  6513  010F  1303               	bcf	3,6	;RP1=0, select bank1
  6514  0110  00ED               	movwf	(___fladd@a^(0+128)+1)
  6515  0111                     l2541:	
  6516  0111  086A               	movf	(___fladd@b^(0+128)+2),w
  6517  0112  1683               	bsf	3,5	;RP0=1, select bank3
  6518  0113  1703               	bsf	3,6	;RP1=1, select bank3
  6519  0114  0090               	movwf	??___fladd^(0+384)
  6520  0115  0810               	movf	??___fladd^(0+384),w
  6521  0116  009B               	movwf	___fladd@grs^(0+384)
  6522  0117                     l2543:	
  6523  0117  1683               	bsf	3,5	;RP0=1, select bank1
  6524  0118  1303               	bcf	3,6	;RP1=0, select bank1
  6525  0119  086E               	movf	(___fladd@a^(0+128)+2),w
  6526  011A  1683               	bsf	3,5	;RP0=1, select bank3
  6527  011B  1703               	bsf	3,6	;RP1=1, select bank3
  6528  011C  0090               	movwf	??___fladd^(0+384)
  6529  011D  0810               	movf	??___fladd^(0+384),w
  6530  011E  1683               	bsf	3,5	;RP0=1, select bank1
  6531  011F  1303               	bcf	3,6	;RP1=0, select bank1
  6532  0120  00EA               	movwf	(___fladd@b^(0+128)+2)
  6533  0121                     l2545:	
  6534  0121  1683               	bsf	3,5	;RP0=1, select bank3
  6535  0122  1703               	bsf	3,6	;RP1=1, select bank3
  6536  0123  081B               	movf	___fladd@grs^(0+384),w
  6537  0124  0090               	movwf	??___fladd^(0+384)
  6538  0125  0810               	movf	??___fladd^(0+384),w
  6539  0126  1683               	bsf	3,5	;RP0=1, select bank1
  6540  0127  1303               	bcf	3,6	;RP1=0, select bank1
  6541  0128  00EE               	movwf	(___fladd@a^(0+128)+2)
  6542  0129                     l2547:	
  6543  0129  086B               	movf	(___fladd@b^(0+128)+3),w
  6544  012A  1683               	bsf	3,5	;RP0=1, select bank3
  6545  012B  1703               	bsf	3,6	;RP1=1, select bank3
  6546  012C  0090               	movwf	??___fladd^(0+384)
  6547  012D  0810               	movf	??___fladd^(0+384),w
  6548  012E  009B               	movwf	___fladd@grs^(0+384)
  6549  012F                     l2549:	
  6550  012F  1683               	bsf	3,5	;RP0=1, select bank1
  6551  0130  1303               	bcf	3,6	;RP1=0, select bank1
  6552  0131  086F               	movf	(___fladd@a^(0+128)+3),w
  6553  0132  1683               	bsf	3,5	;RP0=1, select bank3
  6554  0133  1703               	bsf	3,6	;RP1=1, select bank3
  6555  0134  0090               	movwf	??___fladd^(0+384)
  6556  0135  0810               	movf	??___fladd^(0+384),w
  6557  0136  1683               	bsf	3,5	;RP0=1, select bank1
  6558  0137  1303               	bcf	3,6	;RP1=0, select bank1
  6559  0138  00EB               	movwf	(___fladd@b^(0+128)+3)
  6560  0139                     l2551:	
  6561  0139  1683               	bsf	3,5	;RP0=1, select bank3
  6562  013A  1703               	bsf	3,6	;RP1=1, select bank3
  6563  013B  081B               	movf	___fladd@grs^(0+384),w
  6564  013C  0090               	movwf	??___fladd^(0+384)
  6565  013D  0810               	movf	??___fladd^(0+384),w
  6566  013E  1683               	bsf	3,5	;RP0=1, select bank1
  6567  013F  1303               	bcf	3,6	;RP1=0, select bank1
  6568  0140  00EF               	movwf	(___fladd@a^(0+128)+3)
  6569  0141                     l2553:	
  6570  0141  1683               	bsf	3,5	;RP0=1, select bank3
  6571  0142  1703               	bsf	3,6	;RP1=1, select bank3
  6572  0143  019B               	clrf	___fladd@grs^(0+384)
  6573  0144                     l2555:	
  6574  0144  0819               	movf	___fladd@aexp^(0+384),w
  6575  0145  0090               	movwf	??___fladd^(0+384)
  6576  0146  0191               	clrf	(??___fladd^(0+384)+1)
  6577  0147  0811               	movf	(??___fladd+1)^(0+384),w
  6578  0148  0093               	movwf	((??___fladd+2)^(0+384)+1)
  6579  0149  081A               	movf	___fladd@bexp^(0+384),w
  6580  014A  0210               	subwf	??___fladd^(0+384),w
  6581  014B  0092               	movwf	(??___fladd+2)^(0+384)
  6582  014C  1C03               	skipc
  6583  014D  0393               	decf	((??___fladd+2)^(0+384)+1),f
  6584  014E  0813               	movf	(??___fladd+3)^(0+384),w
  6585  014F  3A80               	xorlw	128
  6586  0150  00FF               	movwf	btemp+1
  6587  0151  3080               	movlw	128
  6588  0152  027F               	subwf	btemp+1,w
  6589  0153  1D03               	skipz
  6590  0154  2957               	goto	u3675
  6591  0155  301A               	movlw	26
  6592  0156  0212               	subwf	(??___fladd+2)^(0+384),w
  6593  0157                     u3675:	
  6594  0157  1C03               	skipc
  6595  0158  295A               	goto	u3671
  6596  0159  295B               	goto	u3670
  6597  015A                     u3671:	
  6598  015A  29A8               	goto	l2571
  6599  015B                     u3670:	
  6600  015B                     l2557:	
  6601  015B  1683               	bsf	3,5	;RP0=1, select bank1
  6602  015C  1303               	bcf	3,6	;RP1=0, select bank1
  6603  015D  086B               	movf	(___fladd@b+3)^(0+128),w
  6604  015E  046A               	iorwf	(___fladd@b+2)^(0+128),w
  6605  015F  0469               	iorwf	(___fladd@b+1)^(0+128),w
  6606  0160  0468               	iorwf	___fladd@b^(0+128),w
  6607  0161  1D03               	skipz
  6608  0162  2964               	goto	u3681
  6609  0163  2966               	goto	u3680
  6610  0164                     u3681:	
  6611  0164  3001               	movlw	1
  6612  0165  2967               	goto	u3690
  6613  0166                     u3680:	
  6614  0166  3000               	movlw	0
  6615  0167                     u3690:	
  6616  0167  1683               	bsf	3,5	;RP0=1, select bank3
  6617  0168  1703               	bsf	3,6	;RP1=1, select bank3
  6618  0169  0090               	movwf	??___fladd^(0+384)
  6619  016A  0810               	movf	??___fladd^(0+384),w
  6620  016B  009B               	movwf	___fladd@grs^(0+384)
  6621  016C  3000               	movlw	0
  6622  016D  1683               	bsf	3,5	;RP0=1, select bank1
  6623  016E  1303               	bcf	3,6	;RP1=0, select bank1
  6624  016F  00EB               	movwf	(___fladd@b+3)^(0+128)
  6625  0170  3000               	movlw	0
  6626  0171  00EA               	movwf	(___fladd@b+2)^(0+128)
  6627  0172  3000               	movlw	0
  6628  0173  00E9               	movwf	(___fladd@b+1)^(0+128)
  6629  0174  3000               	movlw	0
  6630  0175  00E8               	movwf	___fladd@b^(0+128)
  6631  0176  1683               	bsf	3,5	;RP0=1, select bank3
  6632  0177  1703               	bsf	3,6	;RP1=1, select bank3
  6633  0178  0819               	movf	___fladd@aexp^(0+384),w
  6634  0179  0090               	movwf	??___fladd^(0+384)
  6635  017A  0810               	movf	??___fladd^(0+384),w
  6636  017B  009A               	movwf	___fladd@bexp^(0+384)
  6637  017C  29B0               	goto	l700
  6638  017D                     l702:	
  6639  017D  1C1B               	btfss	___fladd@grs^(0+384),0
  6640  017E  2980               	goto	u3701
  6641  017F  2981               	goto	u3700
  6642  0180                     u3701:	
  6643  0180  298A               	goto	l2561
  6644  0181                     u3700:	
  6645  0181                     l2559:	
  6646  0181  081B               	movf	___fladd@grs^(0+384),w
  6647  0182  0090               	movwf	??___fladd^(0+384)
  6648  0183  1003               	clrc
  6649  0184  0C10               	rrf	??___fladd^(0+384),w
  6650  0185  3801               	iorlw	1
  6651  0186  0091               	movwf	(??___fladd+1)^(0+384)
  6652  0187  0811               	movf	(??___fladd+1)^(0+384),w
  6653  0188  009B               	movwf	___fladd@grs^(0+384)
  6654  0189  298C               	goto	l2563
  6655  018A                     l2561:	
  6656  018A  1003               	clrc
  6657  018B  0C9B               	rrf	___fladd@grs^(0+384),f
  6658  018C                     l2563:	
  6659  018C  1683               	bsf	3,5	;RP0=1, select bank1
  6660  018D  1303               	bcf	3,6	;RP1=0, select bank1
  6661  018E  1C68               	btfss	___fladd@b^(0+128),0
  6662  018F  2991               	goto	u3711
  6663  0190  2992               	goto	u3710
  6664  0191                     u3711:	
  6665  0191  2995               	goto	l2567
  6666  0192                     u3710:	
  6667  0192                     l2565:	
  6668  0192  1683               	bsf	3,5	;RP0=1, select bank3
  6669  0193  1703               	bsf	3,6	;RP1=1, select bank3
  6670  0194  179B               	bsf	___fladd@grs^(0+384),7
  6671  0195                     l2567:	
  6672  0195  3001               	movlw	1
  6673  0196  1683               	bsf	3,5	;RP0=1, select bank3
  6674  0197  1703               	bsf	3,6	;RP1=1, select bank3
  6675  0198  0090               	movwf	??___fladd^(0+384)
  6676  0199                     u3725:	
  6677  0199  1683               	bsf	3,5	;RP0=1, select bank1
  6678  019A  1303               	bcf	3,6	;RP1=0, select bank1
  6679  019B  0D6B               	rlf	(___fladd@b+3)^(0+128),w
  6680  019C  0CEB               	rrf	(___fladd@b+3)^(0+128),f
  6681  019D  0CEA               	rrf	(___fladd@b+2)^(0+128),f
  6682  019E  0CE9               	rrf	(___fladd@b+1)^(0+128),f
  6683  019F  0CE8               	rrf	___fladd@b^(0+128),f
  6684  01A0  1683               	bsf	3,5	;RP0=1, select bank3
  6685  01A1  1703               	bsf	3,6	;RP1=1, select bank3
  6686  01A2  0B90               	decfsz	(??___fladd^(0+384))& (0+127),f
  6687  01A3  2999               	goto	u3725
  6688  01A4                     l2569:	
  6689  01A4  3001               	movlw	1
  6690  01A5  0090               	movwf	??___fladd^(0+384)
  6691  01A6  0810               	movf	??___fladd^(0+384),w
  6692  01A7  079A               	addwf	___fladd@bexp^(0+384),f
  6693  01A8                     l2571:	
  6694  01A8  1683               	bsf	3,5	;RP0=1, select bank3
  6695  01A9  1703               	bsf	3,6	;RP1=1, select bank3
  6696  01AA  0819               	movf	___fladd@aexp^(0+384),w
  6697  01AB  021A               	subwf	___fladd@bexp^(0+384),w
  6698  01AC  1C03               	skipc
  6699  01AD  29AF               	goto	u3731
  6700  01AE  29B0               	goto	u3730
  6701  01AF                     u3731:	
  6702  01AF  297D               	goto	l702
  6703  01B0                     u3730:	
  6704  01B0                     l700:	
  6705  01B0  1B18               	btfsc	___fladd@signs^(0+384),6
  6706  01B1  29B3               	goto	u3741
  6707  01B2  29B4               	goto	u3740
  6708  01B3                     u3741:	
  6709  01B3  2A0F               	goto	l2597
  6710  01B4                     u3740:	
  6711  01B4                     l2573:	
  6712  01B4  081A               	movf	___fladd@bexp^(0+384),w
  6713  01B5  1D03               	btfss	3,2
  6714  01B6  29B8               	goto	u3751
  6715  01B7  29B9               	goto	u3750
  6716  01B8                     u3751:	
  6717  01B8  29C4               	goto	l2579
  6718  01B9                     u3750:	
  6719  01B9                     l2575:	
  6720  01B9  3000               	movlw	0
  6721  01BA  1683               	bsf	3,5	;RP0=1, select bank1
  6722  01BB  1303               	bcf	3,6	;RP1=0, select bank1
  6723  01BC  00EB               	movwf	(?___fladd+3)^(0+128)
  6724  01BD  3000               	movlw	0
  6725  01BE  00EA               	movwf	(?___fladd+2)^(0+128)
  6726  01BF  3000               	movlw	0
  6727  01C0  00E9               	movwf	(?___fladd+1)^(0+128)
  6728  01C1  3000               	movlw	0
  6729  01C2  00E8               	movwf	?___fladd^(0+128)
  6730  01C3  2BC1               	goto	l709
  6731  01C4                     l2579:	
  6732  01C4  1683               	bsf	3,5	;RP0=1, select bank1
  6733  01C5  1303               	bcf	3,6	;RP1=0, select bank1
  6734  01C6  086C               	movf	___fladd@a^(0+128),w
  6735  01C7  07E8               	addwf	___fladd@b^(0+128),f
  6736  01C8  086D               	movf	(___fladd@a+1)^(0+128),w
  6737  01C9  1103               	clrz
  6738  01CA  1803               	skipnc
  6739  01CB  3E01               	addlw	1
  6740  01CC  1903               	skipnz
  6741  01CD  29CF               	goto	u3761
  6742  01CE  07E9               	addwf	(___fladd@b+1)^(0+128),f
  6743  01CF                     u3761:	
  6744  01CF  086E               	movf	(___fladd@a+2)^(0+128),w
  6745  01D0  1103               	clrz
  6746  01D1  1803               	skipnc
  6747  01D2  3E01               	addlw	1
  6748  01D3  1903               	skipnz
  6749  01D4  29D6               	goto	u3762
  6750  01D5  07EA               	addwf	(___fladd@b+2)^(0+128),f
  6751  01D6                     u3762:	
  6752  01D6  086F               	movf	(___fladd@a+3)^(0+128),w
  6753  01D7  1103               	clrz
  6754  01D8  1803               	skipnc
  6755  01D9  3E01               	addlw	1
  6756  01DA  1903               	skipnz
  6757  01DB  29DD               	goto	u3763
  6758  01DC  07EB               	addwf	(___fladd@b+3)^(0+128),f
  6759  01DD                     u3763:	
  6760  01DD                     l2581:	
  6761  01DD  1C6B               	btfss	(___fladd@b+3)^(0+128),0
  6762  01DE  29E0               	goto	u3771
  6763  01DF  29E1               	goto	u3770
  6764  01E0                     u3771:	
  6765  01E0  2B0D               	goto	l2631
  6766  01E1                     u3770:	
  6767  01E1                     l2583:	
  6768  01E1  1683               	bsf	3,5	;RP0=1, select bank3
  6769  01E2  1703               	bsf	3,6	;RP1=1, select bank3
  6770  01E3  1C1B               	btfss	___fladd@grs^(0+384),0
  6771  01E4  29E6               	goto	u3781
  6772  01E5  29E7               	goto	u3780
  6773  01E6                     u3781:	
  6774  01E6  29F0               	goto	l2587
  6775  01E7                     u3780:	
  6776  01E7                     l2585:	
  6777  01E7  081B               	movf	___fladd@grs^(0+384),w
  6778  01E8  0090               	movwf	??___fladd^(0+384)
  6779  01E9  1003               	clrc
  6780  01EA  0C10               	rrf	??___fladd^(0+384),w
  6781  01EB  3801               	iorlw	1
  6782  01EC  0091               	movwf	(??___fladd+1)^(0+384)
  6783  01ED  0811               	movf	(??___fladd+1)^(0+384),w
  6784  01EE  009B               	movwf	___fladd@grs^(0+384)
  6785  01EF  29F2               	goto	l2589
  6786  01F0                     l2587:	
  6787  01F0  1003               	clrc
  6788  01F1  0C9B               	rrf	___fladd@grs^(0+384),f
  6789  01F2                     l2589:	
  6790  01F2  1683               	bsf	3,5	;RP0=1, select bank1
  6791  01F3  1303               	bcf	3,6	;RP1=0, select bank1
  6792  01F4  1C68               	btfss	___fladd@b^(0+128),0
  6793  01F5  29F7               	goto	u3791
  6794  01F6  29F8               	goto	u3790
  6795  01F7                     u3791:	
  6796  01F7  29FB               	goto	l2593
  6797  01F8                     u3790:	
  6798  01F8                     l2591:	
  6799  01F8  1683               	bsf	3,5	;RP0=1, select bank3
  6800  01F9  1703               	bsf	3,6	;RP1=1, select bank3
  6801  01FA  179B               	bsf	___fladd@grs^(0+384),7
  6802  01FB                     l2593:	
  6803  01FB  3001               	movlw	1
  6804  01FC  1683               	bsf	3,5	;RP0=1, select bank3
  6805  01FD  1703               	bsf	3,6	;RP1=1, select bank3
  6806  01FE  0090               	movwf	??___fladd^(0+384)
  6807  01FF                     u3805:	
  6808  01FF  1683               	bsf	3,5	;RP0=1, select bank1
  6809  0200  1303               	bcf	3,6	;RP1=0, select bank1
  6810  0201  0D6B               	rlf	(___fladd@b+3)^(0+128),w
  6811  0202  0CEB               	rrf	(___fladd@b+3)^(0+128),f
  6812  0203  0CEA               	rrf	(___fladd@b+2)^(0+128),f
  6813  0204  0CE9               	rrf	(___fladd@b+1)^(0+128),f
  6814  0205  0CE8               	rrf	___fladd@b^(0+128),f
  6815  0206  1683               	bsf	3,5	;RP0=1, select bank3
  6816  0207  1703               	bsf	3,6	;RP1=1, select bank3
  6817  0208  0B90               	decfsz	(??___fladd^(0+384))& (0+127),f
  6818  0209  29FF               	goto	u3805
  6819  020A                     l2595:	
  6820  020A  3001               	movlw	1
  6821  020B  0090               	movwf	??___fladd^(0+384)
  6822  020C  0810               	movf	??___fladd^(0+384),w
  6823  020D  079A               	addwf	___fladd@bexp^(0+384),f
  6824  020E  2B0D               	goto	l2631
  6825  020F                     l2597:	
  6826  020F  1683               	bsf	3,5	;RP0=1, select bank1
  6827  0210  1303               	bcf	3,6	;RP1=0, select bank1
  6828  0211  086B               	movf	(___fladd@b+3)^(0+128),w
  6829  0212  3A80               	xorlw	128
  6830  0213  00FF               	movwf	btemp+1
  6831  0214  086F               	movf	(___fladd@a+3)^(0+128),w
  6832  0215  3A80               	xorlw	128
  6833  0216  027F               	subwf	btemp+1,w
  6834  0217  1D03               	skipz
  6835  0218  2A23               	goto	u3813
  6836  0219  086E               	movf	(___fladd@a+2)^(0+128),w
  6837  021A  026A               	subwf	(___fladd@b+2)^(0+128),w
  6838  021B  1D03               	skipz
  6839  021C  2A23               	goto	u3813
  6840  021D  086D               	movf	(___fladd@a+1)^(0+128),w
  6841  021E  0269               	subwf	(___fladd@b+1)^(0+128),w
  6842  021F  1D03               	skipz
  6843  0220  2A23               	goto	u3813
  6844  0221  086C               	movf	___fladd@a^(0+128),w
  6845  0222  0268               	subwf	___fladd@b^(0+128),w
  6846  0223                     u3813:	
  6847  0223  1803               	skipnc
  6848  0224  2A26               	goto	u3811
  6849  0225  2A27               	goto	u3810
  6850  0226                     u3811:	
  6851  0226  2AB7               	goto	l2607
  6852  0227                     u3810:	
  6853  0227                     l2599:	
  6854  0227  30FF               	movlw	255
  6855  0228  1683               	bsf	3,5	;RP0=1, select bank3
  6856  0229  1703               	bsf	3,6	;RP1=1, select bank3
  6857  022A  0090               	movwf	??___fladd^(0+384)
  6858  022B  30FF               	movlw	255
  6859  022C  0091               	movwf	(??___fladd^(0+384)+1)
  6860  022D  30FF               	movlw	255
  6861  022E  0092               	movwf	(??___fladd^(0+384)+2)
  6862  022F  30FF               	movlw	255
  6863  0230  0093               	movwf	(??___fladd^(0+384)+3)
  6864  0231  1683               	bsf	3,5	;RP0=1, select bank1
  6865  0232  1303               	bcf	3,6	;RP1=0, select bank1
  6866  0233  086C               	movf	___fladd@a^(0+128),w
  6867  0234  1683               	bsf	3,5	;RP0=1, select bank3
  6868  0235  1703               	bsf	3,6	;RP1=1, select bank3
  6869  0236  0094               	movwf	(??___fladd+4)^(0+384)
  6870  0237  1683               	bsf	3,5	;RP0=1, select bank1
  6871  0238  1303               	bcf	3,6	;RP1=0, select bank1
  6872  0239  086D               	movf	(___fladd@a+1)^(0+128),w
  6873  023A  1683               	bsf	3,5	;RP0=1, select bank3
  6874  023B  1703               	bsf	3,6	;RP1=1, select bank3
  6875  023C  0095               	movwf	((??___fladd+4)^(0+384)+1)
  6876  023D  1683               	bsf	3,5	;RP0=1, select bank1
  6877  023E  1303               	bcf	3,6	;RP1=0, select bank1
  6878  023F  086E               	movf	(___fladd@a+2)^(0+128),w
  6879  0240  1683               	bsf	3,5	;RP0=1, select bank3
  6880  0241  1703               	bsf	3,6	;RP1=1, select bank3
  6881  0242  0096               	movwf	((??___fladd+4)^(0+384)+2)
  6882  0243  1683               	bsf	3,5	;RP0=1, select bank1
  6883  0244  1303               	bcf	3,6	;RP1=0, select bank1
  6884  0245  086F               	movf	(___fladd@a+3)^(0+128),w
  6885  0246  1683               	bsf	3,5	;RP0=1, select bank3
  6886  0247  1703               	bsf	3,6	;RP1=1, select bank3
  6887  0248  0097               	movwf	((??___fladd+4)^(0+384)+3)
  6888  0249  1683               	bsf	3,5	;RP0=1, select bank1
  6889  024A  1303               	bcf	3,6	;RP1=0, select bank1
  6890  024B  0868               	movf	___fladd@b^(0+128),w
  6891  024C  1683               	bsf	3,5	;RP0=1, select bank3
  6892  024D  1703               	bsf	3,6	;RP1=1, select bank3
  6893  024E  0294               	subwf	(??___fladd+4)^(0+384),f
  6894  024F  1683               	bsf	3,5	;RP0=1, select bank1
  6895  0250  1303               	bcf	3,6	;RP1=0, select bank1
  6896  0251  0869               	movf	(___fladd@b+1)^(0+128),w
  6897  0252  1C03               	skipc
  6898  0253  0F69               	incfsz	(___fladd@b+1)^(0+128),w
  6899  0254  2A56               	goto	u3821
  6900  0255  2A59               	goto	u3822
  6901  0256                     u3821:	
  6902  0256  1683               	bsf	3,5	;RP0=1, select bank3
  6903  0257  1703               	bsf	3,6	;RP1=1, select bank3
  6904  0258  0295               	subwf	((??___fladd+4)^(0+384)+1),f
  6905  0259                     u3822:	
  6906  0259  1683               	bsf	3,5	;RP0=1, select bank1
  6907  025A  1303               	bcf	3,6	;RP1=0, select bank1
  6908  025B  086A               	movf	(___fladd@b+2)^(0+128),w
  6909  025C  1C03               	skipc
  6910  025D  0F6A               	incfsz	(___fladd@b+2)^(0+128),w
  6911  025E  2A60               	goto	u3823
  6912  025F  2A63               	goto	u3824
  6913  0260                     u3823:	
  6914  0260  1683               	bsf	3,5	;RP0=1, select bank3
  6915  0261  1703               	bsf	3,6	;RP1=1, select bank3
  6916  0262  0296               	subwf	((??___fladd+4)^(0+384)+2),f
  6917  0263                     u3824:	
  6918  0263  1683               	bsf	3,5	;RP0=1, select bank1
  6919  0264  1303               	bcf	3,6	;RP1=0, select bank1
  6920  0265  086B               	movf	(___fladd@b+3)^(0+128),w
  6921  0266  1C03               	skipc
  6922  0267  0F6B               	incfsz	(___fladd@b+3)^(0+128),w
  6923  0268  2A6A               	goto	u3825
  6924  0269  2A6D               	goto	u3826
  6925  026A                     u3825:	
  6926  026A  1683               	bsf	3,5	;RP0=1, select bank3
  6927  026B  1703               	bsf	3,6	;RP1=1, select bank3
  6928  026C  0297               	subwf	((??___fladd+4)^(0+384)+3),f
  6929  026D                     u3826:	
  6930  026D  1683               	bsf	3,5	;RP0=1, select bank1
  6931  026E  1303               	bcf	3,6	;RP1=0, select bank1
  6932  026F  1683               	bsf	3,5	;RP0=1, select bank3
  6933  0270  1703               	bsf	3,6	;RP1=1, select bank3
  6934  0271  0814               	movf	(??___fladd+4)^(0+384),w
  6935  0272  0790               	addwf	??___fladd^(0+384),f
  6936  0273  0815               	movf	(??___fladd+5)^(0+384),w
  6937  0274  1803               	skipnc
  6938  0275  0F15               	incfsz	(??___fladd+5)^(0+384),w
  6939  0276  2A78               	goto	u3830
  6940  0277  2A79               	goto	u3831
  6941  0278                     u3830:	
  6942  0278  0791               	addwf	(??___fladd^(0+384)+1),f
  6943  0279                     u3831:	
  6944  0279  0816               	movf	(??___fladd+6)^(0+384),w
  6945  027A  1803               	skipnc
  6946  027B  0F16               	incfsz	(??___fladd+6)^(0+384),w
  6947  027C  2A7E               	goto	u3832
  6948  027D  2A7F               	goto	u3833
  6949  027E                     u3832:	
  6950  027E  0792               	addwf	(??___fladd^(0+384)+2),f
  6951  027F                     u3833:	
  6952  027F  0817               	movf	(??___fladd+7)^(0+384),w
  6953  0280  1803               	skipnc
  6954  0281  0A17               	incf	(??___fladd+7)^(0+384),w
  6955  0282  0793               	addwf	(??___fladd^(0+384)+3),f
  6956  0283  0813               	movf	(??___fladd+3)^(0+384),w
  6957  0284  1683               	bsf	3,5	;RP0=1, select bank1
  6958  0285  1303               	bcf	3,6	;RP1=0, select bank1
  6959  0286  00EB               	movwf	(___fladd@b+3)^(0+128)
  6960  0287  1683               	bsf	3,5	;RP0=1, select bank3
  6961  0288  1703               	bsf	3,6	;RP1=1, select bank3
  6962  0289  0812               	movf	(??___fladd+2)^(0+384),w
  6963  028A  1683               	bsf	3,5	;RP0=1, select bank1
  6964  028B  1303               	bcf	3,6	;RP1=0, select bank1
  6965  028C  00EA               	movwf	(___fladd@b+2)^(0+128)
  6966  028D  1683               	bsf	3,5	;RP0=1, select bank3
  6967  028E  1703               	bsf	3,6	;RP1=1, select bank3
  6968  028F  0811               	movf	(??___fladd+1)^(0+384),w
  6969  0290  1683               	bsf	3,5	;RP0=1, select bank1
  6970  0291  1303               	bcf	3,6	;RP1=0, select bank1
  6971  0292  00E9               	movwf	(___fladd@b+1)^(0+128)
  6972  0293  1683               	bsf	3,5	;RP0=1, select bank3
  6973  0294  1703               	bsf	3,6	;RP1=1, select bank3
  6974  0295  0810               	movf	??___fladd^(0+384),w
  6975  0296  1683               	bsf	3,5	;RP0=1, select bank1
  6976  0297  1303               	bcf	3,6	;RP1=0, select bank1
  6977  0298  00E8               	movwf	___fladd@b^(0+128)
  6978  0299                     l2601:	
  6979  0299  3080               	movlw	128
  6980  029A  1683               	bsf	3,5	;RP0=1, select bank3
  6981  029B  1703               	bsf	3,6	;RP1=1, select bank3
  6982  029C  0090               	movwf	??___fladd^(0+384)
  6983  029D  0810               	movf	??___fladd^(0+384),w
  6984  029E  0698               	xorwf	___fladd@signs^(0+384),f
  6985  029F  099B               	comf	___fladd@grs^(0+384),f
  6986  02A0  0A9B               	incf	___fladd@grs^(0+384),f
  6987  02A1                     l2603:	
  6988  02A1  081B               	movf	___fladd@grs^(0+384),w
  6989  02A2  1D03               	btfss	3,2
  6990  02A3  2AA5               	goto	u3841
  6991  02A4  2AA6               	goto	u3840
  6992  02A5                     u3841:	
  6993  02A5  2AC5               	goto	l717
  6994  02A6                     u3840:	
  6995  02A6                     l2605:	
  6996  02A6  3001               	movlw	1
  6997  02A7  1683               	bsf	3,5	;RP0=1, select bank1
  6998  02A8  1303               	bcf	3,6	;RP1=0, select bank1
  6999  02A9  07E8               	addwf	___fladd@b^(0+128),f
  7000  02AA  3000               	movlw	0
  7001  02AB  1803               	skipnc
  7002  02AC  3001               	movlw	1
  7003  02AD  07E9               	addwf	(___fladd@b+1)^(0+128),f
  7004  02AE  3000               	movlw	0
  7005  02AF  1803               	skipnc
  7006  02B0  3001               	movlw	1
  7007  02B1  07EA               	addwf	(___fladd@b+2)^(0+128),f
  7008  02B2  3000               	movlw	0
  7009  02B3  1803               	skipnc
  7010  02B4  3001               	movlw	1
  7011  02B5  07EB               	addwf	(___fladd@b+3)^(0+128),f
  7012  02B6  2AC5               	goto	l717
  7013  02B7                     l2607:	
  7014  02B7  086C               	movf	___fladd@a^(0+128),w
  7015  02B8  02E8               	subwf	___fladd@b^(0+128),f
  7016  02B9  086D               	movf	(___fladd@a+1)^(0+128),w
  7017  02BA  1C03               	skipc
  7018  02BB  0F6D               	incfsz	(___fladd@a+1)^(0+128),w
  7019  02BC  02E9               	subwf	(___fladd@b+1)^(0+128),f
  7020  02BD  086E               	movf	(___fladd@a+2)^(0+128),w
  7021  02BE  1C03               	skipc
  7022  02BF  0F6E               	incfsz	(___fladd@a+2)^(0+128),w
  7023  02C0  02EA               	subwf	(___fladd@b+2)^(0+128),f
  7024  02C1  086F               	movf	(___fladd@a+3)^(0+128),w
  7025  02C2  1C03               	skipc
  7026  02C3  0F6F               	incfsz	(___fladd@a+3)^(0+128),w
  7027  02C4  02EB               	subwf	(___fladd@b+3)^(0+128),f
  7028  02C5                     l717:	
  7029  02C5  1303               	bcf	3,6	;RP1=0, select bank1
  7030  02C6  086B               	movf	(___fladd@b+3)^(0+128),w
  7031  02C7  046A               	iorwf	(___fladd@b+2)^(0+128),w
  7032  02C8  0469               	iorwf	(___fladd@b+1)^(0+128),w
  7033  02C9  0468               	iorwf	___fladd@b^(0+128),w
  7034  02CA  1D03               	skipz
  7035  02CB  2ACD               	goto	u3851
  7036  02CC  2ACE               	goto	u3850
  7037  02CD                     u3851:	
  7038  02CD  2B08               	goto	l2629
  7039  02CE                     u3850:	
  7040  02CE                     l2609:	
  7041  02CE  1683               	bsf	3,5	;RP0=1, select bank3
  7042  02CF  1703               	bsf	3,6	;RP1=1, select bank3
  7043  02D0  081B               	movf	___fladd@grs^(0+384),w
  7044  02D1  1D03               	btfss	3,2
  7045  02D2  2AD4               	goto	u3861
  7046  02D3  2AD5               	goto	u3860
  7047  02D4                     u3861:	
  7048  02D4  2B08               	goto	l2629
  7049  02D5                     u3860:	
  7050  02D5                     l2611:	
  7051  02D5  3000               	movlw	0
  7052  02D6  1683               	bsf	3,5	;RP0=1, select bank1
  7053  02D7  1303               	bcf	3,6	;RP1=0, select bank1
  7054  02D8  00EB               	movwf	(?___fladd+3)^(0+128)
  7055  02D9  3000               	movlw	0
  7056  02DA  00EA               	movwf	(?___fladd+2)^(0+128)
  7057  02DB  3000               	movlw	0
  7058  02DC  00E9               	movwf	(?___fladd+1)^(0+128)
  7059  02DD  3000               	movlw	0
  7060  02DE  00E8               	movwf	?___fladd^(0+128)
  7061  02DF  2BC1               	goto	l709
  7062  02E0                     l2615:	
  7063  02E0  3001               	movlw	1
  7064  02E1  1683               	bsf	3,5	;RP0=1, select bank3
  7065  02E2  1703               	bsf	3,6	;RP1=1, select bank3
  7066  02E3  0090               	movwf	??___fladd^(0+384)
  7067  02E4                     u3875:	
  7068  02E4  1003               	clrc
  7069  02E5  1683               	bsf	3,5	;RP0=1, select bank1
  7070  02E6  1303               	bcf	3,6	;RP1=0, select bank1
  7071  02E7  0DE8               	rlf	___fladd@b^(0+128),f
  7072  02E8  0DE9               	rlf	(___fladd@b+1)^(0+128),f
  7073  02E9  0DEA               	rlf	(___fladd@b+2)^(0+128),f
  7074  02EA  0DEB               	rlf	(___fladd@b+3)^(0+128),f
  7075  02EB  1683               	bsf	3,5	;RP0=1, select bank3
  7076  02EC  1703               	bsf	3,6	;RP1=1, select bank3
  7077  02ED  0B90               	decfsz	??___fladd^(0+384),f
  7078  02EE  2AE4               	goto	u3875
  7079  02EF                     l2617:	
  7080  02EF  1F9B               	btfss	___fladd@grs^(0+384),7
  7081  02F0  2AF2               	goto	u3881
  7082  02F1  2AF3               	goto	u3880
  7083  02F2                     u3881:	
  7084  02F2  2AF6               	goto	l721
  7085  02F3                     u3880:	
  7086  02F3                     l2619:	
  7087  02F3  1683               	bsf	3,5	;RP0=1, select bank1
  7088  02F4  1303               	bcf	3,6	;RP1=0, select bank1
  7089  02F5  1468               	bsf	___fladd@b^(0+128),0
  7090  02F6                     l721:	
  7091  02F6  1683               	bsf	3,5	;RP0=1, select bank3
  7092  02F7  1703               	bsf	3,6	;RP1=1, select bank3
  7093  02F8  1C1B               	btfss	___fladd@grs^(0+384),0
  7094  02F9  2AFB               	goto	u3891
  7095  02FA  2AFC               	goto	u3890
  7096  02FB                     u3891:	
  7097  02FB  2AFF               	goto	l2623
  7098  02FC                     u3890:	
  7099  02FC                     l2621:	
  7100  02FC  1403               	setc
  7101  02FD  0D9B               	rlf	___fladd@grs^(0+384),f
  7102  02FE  2B01               	goto	l2625
  7103  02FF                     l2623:	
  7104  02FF  1003               	clrc
  7105  0300  0D9B               	rlf	___fladd@grs^(0+384),f
  7106  0301                     l2625:	
  7107  0301  081A               	movf	___fladd@bexp^(0+384),w
  7108  0302  1903               	btfsc	3,2
  7109  0303  2B05               	goto	u3901
  7110  0304  2B06               	goto	u3900
  7111  0305                     u3901:	
  7112  0305  2B08               	goto	l2629
  7113  0306                     u3900:	
  7114  0306                     l2627:	
  7115  0306  3001               	movlw	1
  7116  0307  029A               	subwf	___fladd@bexp^(0+384),f
  7117  0308                     l2629:	
  7118  0308  1303               	bcf	3,6	;RP1=0, select bank1
  7119  0309  1FEA               	btfss	(___fladd@b+2)^(0+128),7
  7120  030A  2B0C               	goto	u3911
  7121  030B  2B0D               	goto	u3910
  7122  030C                     u3911:	
  7123  030C  2AE0               	goto	l2615
  7124  030D                     u3910:	
  7125  030D                     l2631:	
  7126  030D  1683               	bsf	3,5	;RP0=1, select bank3
  7127  030E  1703               	bsf	3,6	;RP1=1, select bank3
  7128  030F  0199               	clrf	___fladd@aexp^(0+384)
  7129  0310                     l2633:	
  7130  0310  1F9B               	btfss	___fladd@grs^(0+384),7
  7131  0311  2B13               	goto	u3921
  7132  0312  2B14               	goto	u3920
  7133  0313                     u3921:	
  7134  0313  2B26               	goto	l2641
  7135  0314                     u3920:	
  7136  0314                     l2635:	
  7137  0314  081B               	movf	___fladd@grs^(0+384),w
  7138  0315  397F               	andlw	127
  7139  0316  1903               	btfsc	3,2
  7140  0317  2B19               	goto	u3931
  7141  0318  2B1A               	goto	u3930
  7142  0319                     u3931:	
  7143  0319  2B1F               	goto	l727
  7144  031A                     u3930:	
  7145  031A                     l2637:	
  7146  031A  1683               	bsf	3,5	;RP0=1, select bank3
  7147  031B  1703               	bsf	3,6	;RP1=1, select bank3
  7148  031C  0199               	clrf	___fladd@aexp^(0+384)
  7149  031D  0A99               	incf	___fladd@aexp^(0+384),f
  7150  031E  2B26               	goto	l2641
  7151  031F                     l727:	
  7152  031F  1683               	bsf	3,5	;RP0=1, select bank1
  7153  0320  1303               	bcf	3,6	;RP1=0, select bank1
  7154  0321  1C68               	btfss	___fladd@b^(0+128),0
  7155  0322  2B24               	goto	u3941
  7156  0323  2B25               	goto	u3940
  7157  0324                     u3941:	
  7158  0324  2B26               	goto	l2641
  7159  0325                     u3940:	
  7160  0325  2B1A               	goto	l2637
  7161  0326                     l2641:	
  7162  0326  1683               	bsf	3,5	;RP0=1, select bank3
  7163  0327  1703               	bsf	3,6	;RP1=1, select bank3
  7164  0328  0819               	movf	___fladd@aexp^(0+384),w
  7165  0329  1903               	btfsc	3,2
  7166  032A  2B2C               	goto	u3951
  7167  032B  2B2D               	goto	u3950
  7168  032C                     u3951:	
  7169  032C  2B81               	goto	l730
  7170  032D                     u3950:	
  7171  032D                     l2643:	
  7172  032D  3001               	movlw	1
  7173  032E  1683               	bsf	3,5	;RP0=1, select bank1
  7174  032F  1303               	bcf	3,6	;RP1=0, select bank1
  7175  0330  07E8               	addwf	___fladd@b^(0+128),f
  7176  0331  3000               	movlw	0
  7177  0332  1803               	skipnc
  7178  0333  3001               	movlw	1
  7179  0334  07E9               	addwf	(___fladd@b+1)^(0+128),f
  7180  0335  3000               	movlw	0
  7181  0336  1803               	skipnc
  7182  0337  3001               	movlw	1
  7183  0338  07EA               	addwf	(___fladd@b+2)^(0+128),f
  7184  0339  3000               	movlw	0
  7185  033A  1803               	skipnc
  7186  033B  3001               	movlw	1
  7187  033C  07EB               	addwf	(___fladd@b+3)^(0+128),f
  7188  033D                     l2645:	
  7189  033D  1C6B               	btfss	(___fladd@b+3)^(0+128),0
  7190  033E  2B40               	goto	u3961
  7191  033F  2B41               	goto	u3960
  7192  0340                     u3961:	
  7193  0340  2B81               	goto	l730
  7194  0341                     u3960:	
  7195  0341                     l2647:	
  7196  0341  0868               	movf	___fladd@b^(0+128),w
  7197  0342  1683               	bsf	3,5	;RP0=1, select bank3
  7198  0343  1703               	bsf	3,6	;RP1=1, select bank3
  7199  0344  0090               	movwf	??___fladd^(0+384)
  7200  0345  1683               	bsf	3,5	;RP0=1, select bank1
  7201  0346  1303               	bcf	3,6	;RP1=0, select bank1
  7202  0347  0869               	movf	(___fladd@b+1)^(0+128),w
  7203  0348  1683               	bsf	3,5	;RP0=1, select bank3
  7204  0349  1703               	bsf	3,6	;RP1=1, select bank3
  7205  034A  0091               	movwf	(??___fladd^(0+384)+1)
  7206  034B  1683               	bsf	3,5	;RP0=1, select bank1
  7207  034C  1303               	bcf	3,6	;RP1=0, select bank1
  7208  034D  086A               	movf	(___fladd@b+2)^(0+128),w
  7209  034E  1683               	bsf	3,5	;RP0=1, select bank3
  7210  034F  1703               	bsf	3,6	;RP1=1, select bank3
  7211  0350  0092               	movwf	(??___fladd^(0+384)+2)
  7212  0351  1683               	bsf	3,5	;RP0=1, select bank1
  7213  0352  1303               	bcf	3,6	;RP1=0, select bank1
  7214  0353  086B               	movf	(___fladd@b+3)^(0+128),w
  7215  0354  1683               	bsf	3,5	;RP0=1, select bank3
  7216  0355  1703               	bsf	3,6	;RP1=1, select bank3
  7217  0356  0093               	movwf	(??___fladd^(0+384)+3)
  7218  0357  3001               	movlw	1
  7219  0358  0094               	movwf	(??___fladd+4)^(0+384)
  7220  0359                     u3975:	
  7221  0359  0D13               	rlf	(??___fladd^(0+384)+3),w
  7222  035A  0C93               	rrf	(??___fladd^(0+384)+3),f
  7223  035B  0C92               	rrf	(??___fladd^(0+384)+2),f
  7224  035C  0C91               	rrf	(??___fladd^(0+384)+1),f
  7225  035D  0C90               	rrf	??___fladd^(0+384),f
  7226  035E                     u3970:	
  7227  035E  0B94               	decfsz	(??___fladd+4)^(0+384),f
  7228  035F  2B59               	goto	u3975
  7229  0360  0813               	movf	(??___fladd+3)^(0+384),w
  7230  0361  1683               	bsf	3,5	;RP0=1, select bank1
  7231  0362  1303               	bcf	3,6	;RP1=0, select bank1
  7232  0363  00EB               	movwf	(___fladd@b+3)^(0+128)
  7233  0364  1683               	bsf	3,5	;RP0=1, select bank3
  7234  0365  1703               	bsf	3,6	;RP1=1, select bank3
  7235  0366  0812               	movf	(??___fladd+2)^(0+384),w
  7236  0367  1683               	bsf	3,5	;RP0=1, select bank1
  7237  0368  1303               	bcf	3,6	;RP1=0, select bank1
  7238  0369  00EA               	movwf	(___fladd@b+2)^(0+128)
  7239  036A  1683               	bsf	3,5	;RP0=1, select bank3
  7240  036B  1703               	bsf	3,6	;RP1=1, select bank3
  7241  036C  0811               	movf	(??___fladd+1)^(0+384),w
  7242  036D  1683               	bsf	3,5	;RP0=1, select bank1
  7243  036E  1303               	bcf	3,6	;RP1=0, select bank1
  7244  036F  00E9               	movwf	(___fladd@b+1)^(0+128)
  7245  0370  1683               	bsf	3,5	;RP0=1, select bank3
  7246  0371  1703               	bsf	3,6	;RP1=1, select bank3
  7247  0372  0810               	movf	??___fladd^(0+384),w
  7248  0373  1683               	bsf	3,5	;RP0=1, select bank1
  7249  0374  1303               	bcf	3,6	;RP1=0, select bank1
  7250  0375  00E8               	movwf	___fladd@b^(0+128)
  7251  0376  1683               	bsf	3,5	;RP0=1, select bank3
  7252  0377  1703               	bsf	3,6	;RP1=1, select bank3
  7253  0378  0A1A               	incf	___fladd@bexp^(0+384),w
  7254  0379  1903               	btfsc	3,2
  7255  037A  2B7C               	goto	u3981
  7256  037B  2B7D               	goto	u3980
  7257  037C                     u3981:	
  7258  037C  2B81               	goto	l730
  7259  037D                     u3980:	
  7260  037D                     l2649:	
  7261  037D  3001               	movlw	1
  7262  037E  0090               	movwf	??___fladd^(0+384)
  7263  037F  0810               	movf	??___fladd^(0+384),w
  7264  0380  079A               	addwf	___fladd@bexp^(0+384),f
  7265  0381                     l730:	
  7266  0381  1683               	bsf	3,5	;RP0=1, select bank3
  7267  0382  1703               	bsf	3,6	;RP1=1, select bank3
  7268  0383  0A1A               	incf	___fladd@bexp^(0+384),w
  7269  0384  1903               	btfsc	3,2
  7270  0385  2B87               	goto	u3991
  7271  0386  2B88               	goto	u3990
  7272  0387                     u3991:	
  7273  0387  2B8D               	goto	l2653
  7274  0388                     u3990:	
  7275  0388                     l2651:	
  7276  0388  081A               	movf	___fladd@bexp^(0+384),w
  7277  0389  1D03               	btfss	3,2
  7278  038A  2B8C               	goto	u4001
  7279  038B  2B8D               	goto	u4000
  7280  038C                     u4001:	
  7281  038C  2B9F               	goto	l2659
  7282  038D                     u4000:	
  7283  038D                     l2653:	
  7284  038D  3000               	movlw	0
  7285  038E  1683               	bsf	3,5	;RP0=1, select bank1
  7286  038F  1303               	bcf	3,6	;RP1=0, select bank1
  7287  0390  00EB               	movwf	(___fladd@b+3)^(0+128)
  7288  0391  3000               	movlw	0
  7289  0392  00EA               	movwf	(___fladd@b+2)^(0+128)
  7290  0393  3000               	movlw	0
  7291  0394  00E9               	movwf	(___fladd@b+1)^(0+128)
  7292  0395  3000               	movlw	0
  7293  0396  00E8               	movwf	___fladd@b^(0+128)
  7294  0397                     l2655:	
  7295  0397  1683               	bsf	3,5	;RP0=1, select bank3
  7296  0398  1703               	bsf	3,6	;RP1=1, select bank3
  7297  0399  081A               	movf	___fladd@bexp^(0+384),w
  7298  039A  1D03               	btfss	3,2
  7299  039B  2B9D               	goto	u4011
  7300  039C  2B9E               	goto	u4010
  7301  039D                     u4011:	
  7302  039D  2B9F               	goto	l2659
  7303  039E                     u4010:	
  7304  039E                     l2657:	
  7305  039E  0198               	clrf	___fladd@signs^(0+384)
  7306  039F                     l2659:	
  7307  039F  1C1A               	btfss	___fladd@bexp^(0+384),0
  7308  03A0  2BA2               	goto	u4021
  7309  03A1  2BA3               	goto	u4020
  7310  03A2                     u4021:	
  7311  03A2  2BA7               	goto	l2663
  7312  03A3                     u4020:	
  7313  03A3                     l2661:	
  7314  03A3  1683               	bsf	3,5	;RP0=1, select bank1
  7315  03A4  1303               	bcf	3,6	;RP1=0, select bank1
  7316  03A5  17EA               	bsf	(___fladd@b^(0+128)+2),7
  7317  03A6  2BAD               	goto	l738
  7318  03A7                     l2663:	
  7319  03A7  307F               	movlw	127
  7320  03A8  0090               	movwf	??___fladd^(0+384)
  7321  03A9  0810               	movf	??___fladd^(0+384),w
  7322  03AA  1683               	bsf	3,5	;RP0=1, select bank1
  7323  03AB  1303               	bcf	3,6	;RP1=0, select bank1
  7324  03AC  05EA               	andwf	(___fladd@b^(0+128)+2),f
  7325  03AD                     l738:	
  7326  03AD  1683               	bsf	3,5	;RP0=1, select bank3
  7327  03AE  1703               	bsf	3,6	;RP1=1, select bank3
  7328  03AF  081A               	movf	___fladd@bexp^(0+384),w
  7329  03B0  0090               	movwf	??___fladd^(0+384)
  7330  03B1  1003               	clrc
  7331  03B2  0C10               	rrf	??___fladd^(0+384),w
  7332  03B3  0091               	movwf	(??___fladd+1)^(0+384)
  7333  03B4  0811               	movf	(??___fladd+1)^(0+384),w
  7334  03B5  1683               	bsf	3,5	;RP0=1, select bank1
  7335  03B6  1303               	bcf	3,6	;RP1=0, select bank1
  7336  03B7  00EB               	movwf	(___fladd@b^(0+128)+3)
  7337  03B8                     l2665:	
  7338  03B8  1683               	bsf	3,5	;RP0=1, select bank3
  7339  03B9  1703               	bsf	3,6	;RP1=1, select bank3
  7340  03BA  1F98               	btfss	___fladd@signs^(0+384),7
  7341  03BB  2BBD               	goto	u4031
  7342  03BC  2BBE               	goto	u4030
  7343  03BD                     u4031:	
  7344  03BD  2BC1               	goto	l739
  7345  03BE                     u4030:	
  7346  03BE                     l2667:	
  7347  03BE  1683               	bsf	3,5	;RP0=1, select bank1
  7348  03BF  1303               	bcf	3,6	;RP1=0, select bank1
  7349  03C0  17EB               	bsf	(___fladd@b^(0+128)+3),7
  7350  03C1                     l739:	
  7351  03C1                     l709:	
  7352  03C1  0008               	return
  7353  03C2                     __end_of___fladd:	
  7354                           
  7355                           	psect	text17
  7356  1D48                     __ptext17:	
  7357 ;; *************** function _lcd_puts *****************
  7358 ;; Defined at:
  7359 ;;		line 52 in file "lcd.c"
  7360 ;; Parameters:    Size  Location     Type
  7361 ;;  s               2    4[BANK1 ] PTR const unsigned char 
  7362 ;;		 -> STR_7(4), STR_5(6), STR_3(6), STR_2(6), 
  7363 ;;		 -> main@message(9), 
  7364 ;; Auto vars:     Size  Location     Type
  7365 ;;		None
  7366 ;; Return value:  Size  Location     Type
  7367 ;;                  1    wreg      void 
  7368 ;; Registers used:
  7369 ;;		wreg, fsr0l, fsr0h, status,2, status,0, btemp+1, pclath, cstack
  7370 ;; Tracked objects:
  7371 ;;		On entry : 0/0
  7372 ;;		On exit  : 0/0
  7373 ;;		Unchanged: 0/0
  7374 ;; Data sizes:     COMMON   BANK0   BANK1   BANK3   BANK2
  7375 ;;      Params:         0       0       2       0       0
  7376 ;;      Locals:         0       0       0       0       0
  7377 ;;      Temps:          0       0       0       0       0
  7378 ;;      Totals:         0       0       2       0       0
  7379 ;;Total ram usage:        2 bytes
  7380 ;; Hardware stack levels used:    1
  7381 ;; Hardware stack levels required when called:    6
  7382 ;; This function calls:
  7383 ;;		_LCD_RS_SetHigh
  7384 ;;		_lcd_write
  7385 ;; This function is called by:
  7386 ;;		_main
  7387 ;; This function uses a non-reentrant model
  7388 ;;
  7389                           
  7390                           
  7391                           ;psect for function _lcd_puts
  7392  1D48                     _lcd_puts:	
  7393  1D48                     l3409:	
  7394                           ;incstack = 0
  7395                           ; Regs used in _lcd_puts: [wreg-fsr0h+status,2+status,0+btemp+1+pclath+cstack]
  7396                           
  7397                           
  7398                           ;lcd.c: 53: LCD_RS_SetHigh();
  7399  1D48  120A  158A  2036  160A  158A  	fcall	_LCD_RS_SetHigh
  7400                           
  7401                           ;lcd.c: 54: while(*s)
  7402  1D4D  2D6C               	goto	l3415
  7403  1D4E                     l3411:	
  7404                           
  7405                           ;lcd.c: 55: lcd_write(*s++);
  7406  1D4E  1683               	bsf	3,5	;RP0=1, select bank1
  7407  1D4F  1303               	bcf	3,6	;RP1=0, select bank1
  7408  1D50  0825               	movf	(lcd_puts@s+1)^(0+128),w
  7409  1D51  1283               	bcf	3,5	;RP0=0, select bank0
  7410  1D52  1303               	bcf	3,6	;RP1=0, select bank0
  7411  1D53  00FF               	movwf	btemp+1
  7412  1D54  1683               	bsf	3,5	;RP0=1, select bank1
  7413  1D55  1303               	bcf	3,6	;RP1=0, select bank1
  7414  1D56  0824               	movf	lcd_puts@s^(0+128),w
  7415  1D57  0084               	movwf	4
  7416  1D58  1283               	bcf	3,5	;RP0=0, select bank0
  7417  1D59  1303               	bcf	3,6	;RP1=0, select bank0
  7418  1D5A  120A  158A  2000  160A  158A  	fcall	stringtab
  7419  1D5F  120A  118A  27DF  160A  158A  	fcall	_lcd_write
  7420  1D64                     l3413:	
  7421  1D64  3001               	movlw	1
  7422  1D65  1683               	bsf	3,5	;RP0=1, select bank1
  7423  1D66  1303               	bcf	3,6	;RP1=0, select bank1
  7424  1D67  07A4               	addwf	lcd_puts@s^(0+128),f
  7425  1D68  1803               	skipnc
  7426  1D69  0AA5               	incf	(lcd_puts@s+1)^(0+128),f
  7427  1D6A  3000               	movlw	0
  7428  1D6B  07A5               	addwf	(lcd_puts@s+1)^(0+128),f
  7429  1D6C                     l3415:	
  7430  1D6C  1683               	bsf	3,5	;RP0=1, select bank1
  7431  1D6D  1303               	bcf	3,6	;RP1=0, select bank1
  7432  1D6E  0825               	movf	(lcd_puts@s+1)^(0+128),w
  7433  1D6F  1283               	bcf	3,5	;RP0=0, select bank0
  7434  1D70  1303               	bcf	3,6	;RP1=0, select bank0
  7435  1D71  00FF               	movwf	btemp+1
  7436  1D72  1683               	bsf	3,5	;RP0=1, select bank1
  7437  1D73  1303               	bcf	3,6	;RP1=0, select bank1
  7438  1D74  0824               	movf	lcd_puts@s^(0+128),w
  7439  1D75  0084               	movwf	4
  7440  1D76  1283               	bcf	3,5	;RP0=0, select bank0
  7441  1D77  1303               	bcf	3,6	;RP1=0, select bank0
  7442  1D78  120A  158A  2000  160A  158A  	fcall	stringtab
  7443  1D7D  3A00               	xorlw	0
  7444  1D7E  1D03               	skipz
  7445  1D7F  2D81               	goto	u5911
  7446  1D80  2D82               	goto	u5910
  7447  1D81                     u5911:	
  7448  1D81  2D4E               	goto	l3411
  7449  1D82                     u5910:	
  7450  1D82                     l57:	
  7451  1D82  0008               	return
  7452  1D83                     __end_of_lcd_puts:	
  7453                           
  7454                           	psect	text18
  7455  1C3B                     __ptext18:	
  7456 ;; *************** function _lcd_putchar *****************
  7457 ;; Defined at:
  7458 ;;		line 78 in file "lcd.c"
  7459 ;; Parameters:    Size  Location     Type
  7460 ;;  c               1    wreg     unsigned char 
  7461 ;; Auto vars:     Size  Location     Type
  7462 ;;  c               1    4[BANK1 ] unsigned char 
  7463 ;; Return value:  Size  Location     Type
  7464 ;;                  1    wreg      void 
  7465 ;; Registers used:
  7466 ;;		wreg, status,2, status,0, pclath, cstack
  7467 ;; Tracked objects:
  7468 ;;		On entry : 0/0
  7469 ;;		On exit  : 0/0
  7470 ;;		Unchanged: 0/0
  7471 ;; Data sizes:     COMMON   BANK0   BANK1   BANK3   BANK2
  7472 ;;      Params:         0       0       0       0       0
  7473 ;;      Locals:         0       0       1       0       0
  7474 ;;      Temps:          0       0       0       0       0
  7475 ;;      Totals:         0       0       1       0       0
  7476 ;;Total ram usage:        1 bytes
  7477 ;; Hardware stack levels used:    1
  7478 ;; Hardware stack levels required when called:    6
  7479 ;; This function calls:
  7480 ;;		_LCD_RS_SetHigh
  7481 ;;		_lcd_write
  7482 ;; This function is called by:
  7483 ;;		_main
  7484 ;; This function uses a non-reentrant model
  7485 ;;
  7486                           
  7487                           
  7488                           ;psect for function _lcd_putchar
  7489  1C3B                     _lcd_putchar:	
  7490                           
  7491                           ;incstack = 0
  7492                           ; Regs used in _lcd_putchar: [wreg+status,2+status,0+pclath+cstack]
  7493                           ;lcd_putchar@c stored from wreg
  7494  1C3B  1683               	bsf	3,5	;RP0=1, select bank1
  7495  1C3C  1303               	bcf	3,6	;RP1=0, select bank1
  7496  1C3D  00A4               	movwf	lcd_putchar@c^(0+128)
  7497  1C3E                     l3429:	
  7498                           
  7499                           ;lcd.c: 79: LCD_RS_SetHigh();
  7500  1C3E  120A  158A  2036  160A  158A  	fcall	_LCD_RS_SetHigh
  7501  1C43                     l3431:	
  7502                           
  7503                           ;lcd.c: 80: lcd_write(c);
  7504  1C43  1683               	bsf	3,5	;RP0=1, select bank1
  7505  1C44  1303               	bcf	3,6	;RP1=0, select bank1
  7506  1C45  0824               	movf	lcd_putchar@c^(0+128),w
  7507  1C46  120A  118A  27DF  160A  158A  	fcall	_lcd_write
  7508  1C4B                     l68:	
  7509  1C4B  0008               	return
  7510  1C4C                     __end_of_lcd_putchar:	
  7511                           
  7512                           	psect	text19
  7513  0836                     __ptext19:	
  7514 ;; *************** function _LCD_RS_SetHigh *****************
  7515 ;; Defined at:
  7516 ;;		line 24 in file "lcd.c"
  7517 ;; Parameters:    Size  Location     Type
  7518 ;;		None
  7519 ;; Auto vars:     Size  Location     Type
  7520 ;;		None
  7521 ;; Return value:  Size  Location     Type
  7522 ;;                  1    wreg      void 
  7523 ;; Registers used:
  7524 ;;		None
  7525 ;; Tracked objects:
  7526 ;;		On entry : 0/0
  7527 ;;		On exit  : 0/0
  7528 ;;		Unchanged: 0/0
  7529 ;; Data sizes:     COMMON   BANK0   BANK1   BANK3   BANK2
  7530 ;;      Params:         0       0       0       0       0
  7531 ;;      Locals:         0       0       0       0       0
  7532 ;;      Temps:          0       0       0       0       0
  7533 ;;      Totals:         0       0       0       0       0
  7534 ;;Total ram usage:        0 bytes
  7535 ;; Hardware stack levels used:    1
  7536 ;; Hardware stack levels required when called:    4
  7537 ;; This function calls:
  7538 ;;		Nothing
  7539 ;; This function is called by:
  7540 ;;		_lcd_puts
  7541 ;;		_lcd_putchar
  7542 ;; This function uses a non-reentrant model
  7543 ;;
  7544                           
  7545                           
  7546                           ;psect for function _LCD_RS_SetHigh
  7547  0836                     _LCD_RS_SetHigh:	
  7548  0836                     l2363:	
  7549                           ;incstack = 0
  7550                           ; Regs used in _LCD_RS_SetHigh: []
  7551                           
  7552  0836  1283               	bcf	3,5	;RP0=0, select bank0
  7553  0837  1303               	bcf	3,6	;RP1=0, select bank0
  7554  0838  1505               	bsf	5,2	;volatile
  7555  0839                     l36:	
  7556  0839  0008               	return
  7557  083A                     __end_of_LCD_RS_SetHigh:	
  7558                           
  7559                           	psect	text20
  7560  1E53                     __ptext20:	
  7561 ;; *************** function _lcd_init *****************
  7562 ;; Defined at:
  7563 ;;		line 84 in file "lcd.c"
  7564 ;; Parameters:    Size  Location     Type
  7565 ;;		None
  7566 ;; Auto vars:     Size  Location     Type
  7567 ;;		None
  7568 ;; Return value:  Size  Location     Type
  7569 ;;                  1    wreg      void 
  7570 ;; Registers used:
  7571 ;;		wreg, status,2, status,0, pclath, cstack
  7572 ;; Tracked objects:
  7573 ;;		On entry : 0/0
  7574 ;;		On exit  : 0/0
  7575 ;;		Unchanged: 0/0
  7576 ;; Data sizes:     COMMON   BANK0   BANK1   BANK3   BANK2
  7577 ;;      Params:         0       0       0       0       0
  7578 ;;      Locals:         0       0       0       0       0
  7579 ;;      Temps:          0       0       2       0       0
  7580 ;;      Totals:         0       0       2       0       0
  7581 ;;Total ram usage:        2 bytes
  7582 ;; Hardware stack levels used:    1
  7583 ;; Hardware stack levels required when called:    6
  7584 ;; This function calls:
  7585 ;;		_LCD_RS_SetLow
  7586 ;;		_LCD_RW_SetLow
  7587 ;;		_lcd_write
  7588 ;; This function is called by:
  7589 ;;		_main
  7590 ;; This function uses a non-reentrant model
  7591 ;;
  7592                           
  7593                           
  7594                           ;psect for function _lcd_init
  7595  1E53                     _lcd_init:	
  7596  1E53                     l3433:	
  7597                           ;incstack = 0
  7598                           ; Regs used in _lcd_init: [wreg+status,2+status,0+pclath+cstack]
  7599                           
  7600                           
  7601                           ;lcd.c: 86: TRISB0 = 0;
  7602  1E53  1683               	bsf	3,5	;RP0=1, select bank1
  7603  1E54  1303               	bcf	3,6	;RP1=0, select bank1
  7604  1E55  1006               	bcf	6,0	;volatile
  7605                           
  7606                           ;lcd.c: 87: ANS12 = 0;
  7607  1E56  1683               	bsf	3,5	;RP0=1, select bank3
  7608  1E57  1703               	bsf	3,6	;RP1=1, select bank3
  7609  1E58  1209               	bcf	9,4	;volatile
  7610                           
  7611                           ;lcd.c: 88: TRISA3 = 0;
  7612  1E59  1683               	bsf	3,5	;RP0=1, select bank1
  7613  1E5A  1303               	bcf	3,6	;RP1=0, select bank1
  7614  1E5B  1185               	bcf	5,3	;volatile
  7615                           
  7616                           ;lcd.c: 89: ANS3 = 0;
  7617  1E5C  1683               	bsf	3,5	;RP0=1, select bank3
  7618  1E5D  1703               	bsf	3,6	;RP1=1, select bank3
  7619  1E5E  1188               	bcf	8,3	;volatile
  7620                           
  7621                           ;lcd.c: 90: TRISA2 = 0;
  7622  1E5F  1683               	bsf	3,5	;RP0=1, select bank1
  7623  1E60  1303               	bcf	3,6	;RP1=0, select bank1
  7624  1E61  1105               	bcf	5,2	;volatile
  7625                           
  7626                           ;lcd.c: 91: ANS2 = 0;
  7627  1E62  1683               	bsf	3,5	;RP0=1, select bank3
  7628  1E63  1703               	bsf	3,6	;RP1=1, select bank3
  7629  1E64  1108               	bcf	8,2	;volatile
  7630  1E65                     l3435:	
  7631                           
  7632                           ;lcd.c: 92: TRISC & = 0b11000110;
  7633  1E65  30C6               	movlw	198
  7634  1E66  1683               	bsf	3,5	;RP0=1, select bank1
  7635  1E67  1303               	bcf	3,6	;RP1=0, select bank1
  7636  1E68  00A4               	movwf	??_lcd_init^(0+128)
  7637  1E69  0824               	movf	??_lcd_init^(0+128),w
  7638  1E6A  0587               	andwf	7,f	;volatile
  7639  1E6B                     l3437:	
  7640                           
  7641                           ;lcd.c: 93: RB0 = 0;
  7642  1E6B  1283               	bcf	3,5	;RP0=0, select bank0
  7643  1E6C  1303               	bcf	3,6	;RP1=0, select bank0
  7644  1E6D  1006               	bcf	6,0	;volatile
  7645  1E6E                     l3439:	
  7646                           
  7647                           ;lcd.c: 95: LCD_RW_SetLow();
  7648  1E6E  160A  158A  240E  160A  158A  	fcall	_LCD_RW_SetLow
  7649  1E73                     l3441:	
  7650                           
  7651                           ;lcd.c: 96: LCD_RS_SetLow();
  7652  1E73  160A  158A  240A  160A  158A  	fcall	_LCD_RS_SetLow
  7653  1E78                     l3443:	
  7654                           
  7655                           ;lcd.c: 97: _delay((unsigned long)((15)*(20000000/4000.0)));
  7656  1E78  3062               	movlw	98
  7657  1E79  1683               	bsf	3,5	;RP0=1, select bank1
  7658  1E7A  1303               	bcf	3,6	;RP1=0, select bank1
  7659  1E7B  00A5               	movwf	(??_lcd_init^(0+128)+1)
  7660  1E7C  3065               	movlw	101
  7661  1E7D  00A4               	movwf	??_lcd_init^(0+128)
  7662  1E7E                     u6247:	
  7663  1E7E  0BA4               	decfsz	??_lcd_init^(0+128),f
  7664  1E7F  2E7E               	goto	u6247
  7665  1E80  0BA5               	decfsz	(??_lcd_init^(0+128)+1),f
  7666  1E81  2E7E               	goto	u6247
  7667  1E82                     l3445:	
  7668                           
  7669                           ;lcd.c: 98: lcd_write(0x02);
  7670  1E82  3002               	movlw	2
  7671  1E83  120A  118A  27DF  160A  158A  	fcall	_lcd_write
  7672  1E88                     l3447:	
  7673                           
  7674                           ;lcd.c: 99: _delay((unsigned long)((2)*(20000000/4000.0)));
  7675  1E88  300D               	movlw	13
  7676  1E89  1683               	bsf	3,5	;RP0=1, select bank1
  7677  1E8A  1303               	bcf	3,6	;RP1=0, select bank1
  7678  1E8B  00A5               	movwf	(??_lcd_init^(0+128)+1)
  7679  1E8C  30FB               	movlw	251
  7680  1E8D  00A4               	movwf	??_lcd_init^(0+128)
  7681  1E8E                     u6257:	
  7682  1E8E  0BA4               	decfsz	??_lcd_init^(0+128),f
  7683  1E8F  2E8E               	goto	u6257
  7684  1E90  0BA5               	decfsz	(??_lcd_init^(0+128)+1),f
  7685  1E91  2E8E               	goto	u6257
  7686  1E92                     l3449:	
  7687                           
  7688                           ;lcd.c: 100: lcd_write(0x28);
  7689  1E92  3028               	movlw	40
  7690  1E93  120A  118A  27DF  160A  158A  	fcall	_lcd_write
  7691  1E98                     l3451:	
  7692                           
  7693                           ;lcd.c: 101: lcd_write(0x08);
  7694  1E98  3008               	movlw	8
  7695  1E99  120A  118A  27DF  160A  158A  	fcall	_lcd_write
  7696  1E9E                     l3453:	
  7697                           
  7698                           ;lcd.c: 102: lcd_write(0x0f);
  7699  1E9E  300F               	movlw	15
  7700  1E9F  120A  118A  27DF  160A  158A  	fcall	_lcd_write
  7701  1EA4                     l3455:	
  7702                           
  7703                           ;lcd.c: 103: lcd_write(0x06);
  7704  1EA4  3006               	movlw	6
  7705  1EA5  120A  118A  27DF  160A  158A  	fcall	_lcd_write
  7706  1EAA                     l71:	
  7707  1EAA  0008               	return
  7708  1EAB                     __end_of_lcd_init:	
  7709                           
  7710                           	psect	text21
  7711  1C0E                     __ptext21:	
  7712 ;; *************** function _LCD_RW_SetLow *****************
  7713 ;; Defined at:
  7714 ;;		line 25 in file "lcd.c"
  7715 ;; Parameters:    Size  Location     Type
  7716 ;;		None
  7717 ;; Auto vars:     Size  Location     Type
  7718 ;;		None
  7719 ;; Return value:  Size  Location     Type
  7720 ;;                  1    wreg      void 
  7721 ;; Registers used:
  7722 ;;		None
  7723 ;; Tracked objects:
  7724 ;;		On entry : 0/0
  7725 ;;		On exit  : 0/0
  7726 ;;		Unchanged: 0/0
  7727 ;; Data sizes:     COMMON   BANK0   BANK1   BANK3   BANK2
  7728 ;;      Params:         0       0       0       0       0
  7729 ;;      Locals:         0       0       0       0       0
  7730 ;;      Temps:          0       0       0       0       0
  7731 ;;      Totals:         0       0       0       0       0
  7732 ;;Total ram usage:        0 bytes
  7733 ;; Hardware stack levels used:    1
  7734 ;; Hardware stack levels required when called:    4
  7735 ;; This function calls:
  7736 ;;		Nothing
  7737 ;; This function is called by:
  7738 ;;		_lcd_init
  7739 ;; This function uses a non-reentrant model
  7740 ;;
  7741                           
  7742                           
  7743                           ;psect for function _LCD_RW_SetLow
  7744  1C0E                     _LCD_RW_SetLow:	
  7745  1C0E                     l2365:	
  7746                           ;incstack = 0
  7747                           ; Regs used in _LCD_RW_SetLow: []
  7748                           
  7749  1C0E  1283               	bcf	3,5	;RP0=0, select bank0
  7750  1C0F  1303               	bcf	3,6	;RP1=0, select bank0
  7751  1C10  1185               	bcf	5,3	;volatile
  7752  1C11                     l39:	
  7753  1C11  0008               	return
  7754  1C12                     __end_of_LCD_RW_SetLow:	
  7755                           
  7756                           	psect	text22
  7757  1C4C                     __ptext22:	
  7758 ;; *************** function _lcd_goto *****************
  7759 ;; Defined at:
  7760 ;;		line 59 in file "lcd.c"
  7761 ;; Parameters:    Size  Location     Type
  7762 ;;  pos             1    wreg     unsigned char 
  7763 ;; Auto vars:     Size  Location     Type
  7764 ;;  pos             1    4[BANK1 ] unsigned char 
  7765 ;; Return value:  Size  Location     Type
  7766 ;;                  1    wreg      void 
  7767 ;; Registers used:
  7768 ;;		wreg, status,2, status,0, pclath, cstack
  7769 ;; Tracked objects:
  7770 ;;		On entry : 0/0
  7771 ;;		On exit  : 0/0
  7772 ;;		Unchanged: 0/0
  7773 ;; Data sizes:     COMMON   BANK0   BANK1   BANK3   BANK2
  7774 ;;      Params:         0       0       0       0       0
  7775 ;;      Locals:         0       0       1       0       0
  7776 ;;      Temps:          0       0       0       0       0
  7777 ;;      Totals:         0       0       1       0       0
  7778 ;;Total ram usage:        1 bytes
  7779 ;; Hardware stack levels used:    1
  7780 ;; Hardware stack levels required when called:    6
  7781 ;; This function calls:
  7782 ;;		_LCD_RS_SetLow
  7783 ;;		_lcd_write
  7784 ;; This function is called by:
  7785 ;;		_main
  7786 ;; This function uses a non-reentrant model
  7787 ;;
  7788                           
  7789                           
  7790                           ;psect for function _lcd_goto
  7791  1C4C                     _lcd_goto:	
  7792                           
  7793                           ;incstack = 0
  7794                           ; Regs used in _lcd_goto: [wreg+status,2+status,0+pclath+cstack]
  7795                           ;lcd_goto@pos stored from wreg
  7796  1C4C  1683               	bsf	3,5	;RP0=1, select bank1
  7797  1C4D  1303               	bcf	3,6	;RP1=0, select bank1
  7798  1C4E  00A4               	movwf	lcd_goto@pos^(0+128)
  7799  1C4F                     l3417:	
  7800                           
  7801                           ;lcd.c: 60: LCD_RS_SetLow();
  7802  1C4F  160A  158A  240A  160A  158A  	fcall	_LCD_RS_SetLow
  7803  1C54                     l3419:	
  7804                           
  7805                           ;lcd.c: 61: lcd_write(0x80 + pos);
  7806  1C54  1683               	bsf	3,5	;RP0=1, select bank1
  7807  1C55  1303               	bcf	3,6	;RP1=0, select bank1
  7808  1C56  0824               	movf	lcd_goto@pos^(0+128),w
  7809  1C57  3E80               	addlw	128
  7810  1C58  120A  118A  27DF  160A  158A  	fcall	_lcd_write
  7811  1C5D                     l60:	
  7812  1C5D  0008               	return
  7813  1C5E                     __end_of_lcd_goto:	
  7814                           
  7815                           	psect	text23
  7816  1C71                     __ptext23:	
  7817 ;; *************** function _lcd_cursor *****************
  7818 ;; Defined at:
  7819 ;;		line 68 in file "lcd.c"
  7820 ;; Parameters:    Size  Location     Type
  7821 ;;  on              2    4[BANK1 ] int 
  7822 ;; Auto vars:     Size  Location     Type
  7823 ;;		None
  7824 ;; Return value:  Size  Location     Type
  7825 ;;                  1    wreg      void 
  7826 ;; Registers used:
  7827 ;;		wreg, status,2, status,0, pclath, cstack
  7828 ;; Tracked objects:
  7829 ;;		On entry : 0/0
  7830 ;;		On exit  : 0/0
  7831 ;;		Unchanged: 0/0
  7832 ;; Data sizes:     COMMON   BANK0   BANK1   BANK3   BANK2
  7833 ;;      Params:         0       0       2       0       0
  7834 ;;      Locals:         0       0       0       0       0
  7835 ;;      Temps:          0       0       0       0       0
  7836 ;;      Totals:         0       0       2       0       0
  7837 ;;Total ram usage:        2 bytes
  7838 ;; Hardware stack levels used:    1
  7839 ;; Hardware stack levels required when called:    6
  7840 ;; This function calls:
  7841 ;;		_LCD_RS_SetLow
  7842 ;;		_lcd_write
  7843 ;; This function is called by:
  7844 ;;		_main
  7845 ;; This function uses a non-reentrant model
  7846 ;;
  7847                           
  7848                           
  7849                           ;psect for function _lcd_cursor
  7850  1C71                     _lcd_cursor:	
  7851  1C71                     l3421:	
  7852                           ;incstack = 0
  7853                           ; Regs used in _lcd_cursor: [wreg+status,2+status,0+pclath+cstack]
  7854                           
  7855                           
  7856                           ;lcd.c: 69: LCD_RS_SetLow();
  7857  1C71  160A  158A  240A  160A  158A  	fcall	_LCD_RS_SetLow
  7858  1C76                     l3423:	
  7859                           
  7860                           ;lcd.c: 70: if (on) {
  7861  1C76  1683               	bsf	3,5	;RP0=1, select bank1
  7862  1C77  1303               	bcf	3,6	;RP1=0, select bank1
  7863  1C78  0824               	movf	lcd_cursor@on^(0+128),w
  7864  1C79  0425               	iorwf	(lcd_cursor@on+1)^(0+128),w
  7865  1C7A  1903               	btfsc	3,2
  7866  1C7B  2C7D               	goto	u5921
  7867  1C7C  2C7E               	goto	u5920
  7868  1C7D                     u5921:	
  7869  1C7D  2C85               	goto	l3427
  7870  1C7E                     u5920:	
  7871  1C7E                     l3425:	
  7872                           
  7873                           ;lcd.c: 71: lcd_write(0x0f);
  7874  1C7E  300F               	movlw	15
  7875  1C7F  120A  118A  27DF  160A  158A  	fcall	_lcd_write
  7876                           
  7877                           ;lcd.c: 72: } else {
  7878  1C84  2C8B               	goto	l65
  7879  1C85                     l3427:	
  7880                           
  7881                           ;lcd.c: 73: lcd_write(0x0c);
  7882  1C85  300C               	movlw	12
  7883  1C86  120A  118A  27DF  160A  158A  	fcall	_lcd_write
  7884  1C8B                     l65:	
  7885  1C8B  0008               	return
  7886  1C8C                     __end_of_lcd_cursor:	
  7887                           
  7888                           	psect	text24
  7889  07DF                     __ptext24:	
  7890 ;; *************** function _lcd_write *****************
  7891 ;; Defined at:
  7892 ;;		line 38 in file "lcd.c"
  7893 ;; Parameters:    Size  Location     Type
  7894 ;;  c               1    wreg     unsigned char 
  7895 ;; Auto vars:     Size  Location     Type
  7896 ;;  c               1    3[BANK1 ] unsigned char 
  7897 ;; Return value:  Size  Location     Type
  7898 ;;                  1    wreg      void 
  7899 ;; Registers used:
  7900 ;;		wreg, status,2, status,0, pclath, cstack
  7901 ;; Tracked objects:
  7902 ;;		On entry : 0/0
  7903 ;;		On exit  : 0/0
  7904 ;;		Unchanged: 0/0
  7905 ;; Data sizes:     COMMON   BANK0   BANK1   BANK3   BANK2
  7906 ;;      Params:         0       0       0       0       0
  7907 ;;      Locals:         0       0       1       0       0
  7908 ;;      Temps:          0       0       1       0       0
  7909 ;;      Totals:         0       0       2       0       0
  7910 ;;Total ram usage:        2 bytes
  7911 ;; Hardware stack levels used:    1
  7912 ;; Hardware stack levels required when called:    5
  7913 ;; This function calls:
  7914 ;;		_lcd_write_nibble
  7915 ;; This function is called by:
  7916 ;;		_lcd_puts
  7917 ;;		_lcd_goto
  7918 ;;		_lcd_cursor
  7919 ;;		_lcd_putchar
  7920 ;;		_lcd_init
  7921 ;;		_lcd_clear
  7922 ;; This function uses a non-reentrant model
  7923 ;;
  7924                           
  7925                           
  7926                           ;psect for function _lcd_write
  7927  07DF                     _lcd_write:	
  7928                           
  7929                           ;incstack = 0
  7930                           ; Regs used in _lcd_write: [wreg+status,2+status,0+pclath+cstack]
  7931                           ;lcd_write@c stored from wreg
  7932  07DF  1683               	bsf	3,5	;RP0=1, select bank1
  7933  07E0  1303               	bcf	3,6	;RP1=0, select bank1
  7934  07E1  00A3               	movwf	lcd_write@c^(0+128)
  7935  07E2                     l2367:	
  7936                           
  7937                           ;lcd.c: 39: lcd_write_nibble(c >> 4);
  7938  07E2  0823               	movf	lcd_write@c^(0+128),w
  7939  07E3  00A2               	movwf	??_lcd_write^(0+128)
  7940  07E4  3004               	movlw	4
  7941  07E5                     u3295:	
  7942  07E5  1003               	clrc
  7943  07E6  0CA2               	rrf	??_lcd_write^(0+128),f
  7944  07E7  3EFF               	addlw	-1
  7945  07E8  1D03               	skipz
  7946  07E9  2FE5               	goto	u3295
  7947  07EA  0822               	movf	??_lcd_write^(0+128),w
  7948  07EB  160A  158A  2605  120A  118A  	fcall	_lcd_write_nibble
  7949                           
  7950                           ;lcd.c: 40: lcd_write_nibble(c);
  7951  07F0  1683               	bsf	3,5	;RP0=1, select bank1
  7952  07F1  1303               	bcf	3,6	;RP1=0, select bank1
  7953  07F2  0823               	movf	lcd_write@c^(0+128),w
  7954  07F3  160A  158A  2605  120A  118A  	fcall	_lcd_write_nibble
  7955  07F8                     l2369:	
  7956                           
  7957                           ;lcd.c: 41: _delay((unsigned long)((40)*(20000000/4000000.0)));
  7958  07F8  3041               	movlw	65
  7959  07F9  1683               	bsf	3,5	;RP0=1, select bank1
  7960  07FA  1303               	bcf	3,6	;RP1=0, select bank1
  7961  07FB  00A2               	movwf	??_lcd_write^(0+128)
  7962  07FC                     u6267:	
  7963  07FC  0BA2               	decfsz	??_lcd_write^(0+128),f
  7964  07FD  2FFC               	goto	u6267
  7965  07FE  2FFF               	nop2
  7966  07FF                     l48:	
  7967  07FF  0008               	return
  7968  0800                     __end_of_lcd_write:	
  7969                           
  7970                           	psect	text25
  7971  1E05                     __ptext25:	
  7972 ;; *************** function _lcd_write_nibble *****************
  7973 ;; Defined at:
  7974 ;;		line 28 in file "lcd.c"
  7975 ;; Parameters:    Size  Location     Type
  7976 ;;  c               1    wreg     unsigned char 
  7977 ;; Auto vars:     Size  Location     Type
  7978 ;;  c               1    1[BANK1 ] unsigned char 
  7979 ;; Return value:  Size  Location     Type
  7980 ;;                  1    wreg      void 
  7981 ;; Registers used:
  7982 ;;		wreg, status,2, status,0
  7983 ;; Tracked objects:
  7984 ;;		On entry : 0/0
  7985 ;;		On exit  : 0/0
  7986 ;;		Unchanged: 0/0
  7987 ;; Data sizes:     COMMON   BANK0   BANK1   BANK3   BANK2
  7988 ;;      Params:         0       0       0       0       0
  7989 ;;      Locals:         0       0       1       0       0
  7990 ;;      Temps:          0       0       1       0       0
  7991 ;;      Totals:         0       0       2       0       0
  7992 ;;Total ram usage:        2 bytes
  7993 ;; Hardware stack levels used:    1
  7994 ;; Hardware stack levels required when called:    4
  7995 ;; This function calls:
  7996 ;;		Nothing
  7997 ;; This function is called by:
  7998 ;;		_lcd_write
  7999 ;; This function uses a non-reentrant model
  8000 ;;
  8001                           
  8002                           
  8003                           ;psect for function _lcd_write_nibble
  8004  1E05                     _lcd_write_nibble:	
  8005                           
  8006                           ;incstack = 0
  8007                           ; Regs used in _lcd_write_nibble: [wreg+status,2+status,0]
  8008                           ;lcd_write_nibble@c stored from wreg
  8009  1E05  1683               	bsf	3,5	;RP0=1, select bank1
  8010  1E06  1303               	bcf	3,6	;RP1=0, select bank1
  8011  1E07  00A1               	movwf	lcd_write_nibble@c^(0+128)
  8012  1E08                     l2321:	
  8013                           
  8014                           ;lcd.c: 29: RC0 = (c & 0b00000001) >> 0;
  8015  1E08  1821               	btfsc	lcd_write_nibble@c^(0+128),0
  8016  1E09  2E0B               	goto	u3121
  8017  1E0A  2E0F               	goto	u3120
  8018  1E0B                     u3121:	
  8019  1E0B  1283               	bcf	3,5	;RP0=0, select bank0
  8020  1E0C  1303               	bcf	3,6	;RP1=0, select bank0
  8021  1E0D  1407               	bsf	7,0	;volatile
  8022  1E0E  2E12               	goto	u3134
  8023  1E0F                     u3120:	
  8024  1E0F  1283               	bcf	3,5	;RP0=0, select bank0
  8025  1E10  1303               	bcf	3,6	;RP1=0, select bank0
  8026  1E11  1007               	bcf	7,0	;volatile
  8027  1E12                     u3134:	
  8028  1E12                     l2323:	
  8029                           
  8030                           ;lcd.c: 30: RC3 = (c & 0b00000010) >> 1;
  8031  1E12  1683               	bsf	3,5	;RP0=1, select bank1
  8032  1E13  1303               	bcf	3,6	;RP1=0, select bank1
  8033  1E14  0821               	movf	lcd_write_nibble@c^(0+128),w
  8034  1E15  00A0               	movwf	??_lcd_write_nibble^(0+128)
  8035  1E16  3001               	movlw	1
  8036  1E17                     u3145:	
  8037  1E17  1003               	clrc
  8038  1E18  0CA0               	rrf	??_lcd_write_nibble^(0+128),f
  8039  1E19  3EFF               	addlw	-1
  8040  1E1A  1D03               	skipz
  8041  1E1B  2E17               	goto	u3145
  8042  1E1C  1820               	btfsc	??_lcd_write_nibble^(0+128),0
  8043  1E1D  2E1F               	goto	u3151
  8044  1E1E  2E23               	goto	u3150
  8045  1E1F                     u3151:	
  8046  1E1F  1283               	bcf	3,5	;RP0=0, select bank0
  8047  1E20  1303               	bcf	3,6	;RP1=0, select bank0
  8048  1E21  1587               	bsf	7,3	;volatile
  8049  1E22  2E26               	goto	u3164
  8050  1E23                     u3150:	
  8051  1E23  1283               	bcf	3,5	;RP0=0, select bank0
  8052  1E24  1303               	bcf	3,6	;RP1=0, select bank0
  8053  1E25  1187               	bcf	7,3	;volatile
  8054  1E26                     u3164:	
  8055                           
  8056                           ;lcd.c: 31: RC4 = (c & 0b00000100) >> 2;
  8057  1E26  1683               	bsf	3,5	;RP0=1, select bank1
  8058  1E27  1303               	bcf	3,6	;RP1=0, select bank1
  8059  1E28  0821               	movf	lcd_write_nibble@c^(0+128),w
  8060  1E29  00A0               	movwf	??_lcd_write_nibble^(0+128)
  8061  1E2A  3002               	movlw	2
  8062  1E2B                     u3175:	
  8063  1E2B  1003               	clrc
  8064  1E2C  0CA0               	rrf	??_lcd_write_nibble^(0+128),f
  8065  1E2D  3EFF               	addlw	-1
  8066  1E2E  1D03               	skipz
  8067  1E2F  2E2B               	goto	u3175
  8068  1E30  1820               	btfsc	??_lcd_write_nibble^(0+128),0
  8069  1E31  2E33               	goto	u3181
  8070  1E32  2E37               	goto	u3180
  8071  1E33                     u3181:	
  8072  1E33  1283               	bcf	3,5	;RP0=0, select bank0
  8073  1E34  1303               	bcf	3,6	;RP1=0, select bank0
  8074  1E35  1607               	bsf	7,4	;volatile
  8075  1E36  2E3A               	goto	u3194
  8076  1E37                     u3180:	
  8077  1E37  1283               	bcf	3,5	;RP0=0, select bank0
  8078  1E38  1303               	bcf	3,6	;RP1=0, select bank0
  8079  1E39  1207               	bcf	7,4	;volatile
  8080  1E3A                     u3194:	
  8081                           
  8082                           ;lcd.c: 32: RC5 = (c & 0b00001000) >> 3;
  8083  1E3A  1683               	bsf	3,5	;RP0=1, select bank1
  8084  1E3B  1303               	bcf	3,6	;RP1=0, select bank1
  8085  1E3C  0821               	movf	lcd_write_nibble@c^(0+128),w
  8086  1E3D  00A0               	movwf	??_lcd_write_nibble^(0+128)
  8087  1E3E  3003               	movlw	3
  8088  1E3F                     u3205:	
  8089  1E3F  1003               	clrc
  8090  1E40  0CA0               	rrf	??_lcd_write_nibble^(0+128),f
  8091  1E41  3EFF               	addlw	-1
  8092  1E42  1D03               	skipz
  8093  1E43  2E3F               	goto	u3205
  8094  1E44  1820               	btfsc	??_lcd_write_nibble^(0+128),0
  8095  1E45  2E47               	goto	u3211
  8096  1E46  2E4B               	goto	u3210
  8097  1E47                     u3211:	
  8098  1E47  1283               	bcf	3,5	;RP0=0, select bank0
  8099  1E48  1303               	bcf	3,6	;RP1=0, select bank0
  8100  1E49  1687               	bsf	7,5	;volatile
  8101  1E4A  2E4E               	goto	u3224
  8102  1E4B                     u3210:	
  8103  1E4B  1283               	bcf	3,5	;RP0=0, select bank0
  8104  1E4C  1303               	bcf	3,6	;RP1=0, select bank0
  8105  1E4D  1287               	bcf	7,5	;volatile
  8106  1E4E                     u3224:	
  8107  1E4E                     l2325:	
  8108                           
  8109                           ;lcd.c: 34: ((RB0 = 1),(RB0 = 1),(RB0 = 1),(RB0 = 0));
  8110  1E4E  1406               	bsf	6,0	;volatile
  8111  1E4F                     l2327:	
  8112  1E4F  1406               	bsf	6,0	;volatile
  8113  1E50                     l2329:	
  8114  1E50  1406               	bsf	6,0	;volatile
  8115  1E51                     l2331:	
  8116  1E51  1006               	bcf	6,0	;volatile
  8117  1E52                     l45:	
  8118  1E52  0008               	return
  8119  1E53                     __end_of_lcd_write_nibble:	
  8120                           
  8121                           	psect	text26
  8122  1C0A                     __ptext26:	
  8123 ;; *************** function _LCD_RS_SetLow *****************
  8124 ;; Defined at:
  8125 ;;		line 23 in file "lcd.c"
  8126 ;; Parameters:    Size  Location     Type
  8127 ;;		None
  8128 ;; Auto vars:     Size  Location     Type
  8129 ;;		None
  8130 ;; Return value:  Size  Location     Type
  8131 ;;                  1    wreg      void 
  8132 ;; Registers used:
  8133 ;;		None
  8134 ;; Tracked objects:
  8135 ;;		On entry : 0/0
  8136 ;;		On exit  : 0/0
  8137 ;;		Unchanged: 0/0
  8138 ;; Data sizes:     COMMON   BANK0   BANK1   BANK3   BANK2
  8139 ;;      Params:         0       0       0       0       0
  8140 ;;      Locals:         0       0       0       0       0
  8141 ;;      Temps:          0       0       0       0       0
  8142 ;;      Totals:         0       0       0       0       0
  8143 ;;Total ram usage:        0 bytes
  8144 ;; Hardware stack levels used:    1
  8145 ;; Hardware stack levels required when called:    4
  8146 ;; This function calls:
  8147 ;;		Nothing
  8148 ;; This function is called by:
  8149 ;;		_lcd_goto
  8150 ;;		_lcd_cursor
  8151 ;;		_lcd_init
  8152 ;;		_lcd_clear
  8153 ;; This function uses a non-reentrant model
  8154 ;;
  8155                           
  8156                           
  8157                           ;psect for function _LCD_RS_SetLow
  8158  1C0A                     _LCD_RS_SetLow:	
  8159  1C0A                     l2361:	
  8160                           ;incstack = 0
  8161                           ; Regs used in _LCD_RS_SetLow: []
  8162                           
  8163  1C0A  1283               	bcf	3,5	;RP0=0, select bank0
  8164  1C0B  1303               	bcf	3,6	;RP1=0, select bank0
  8165  1C0C  1105               	bcf	5,2	;volatile
  8166  1C0D                     l33:	
  8167  1C0D  0008               	return
  8168  1C0E                     __end_of_LCD_RS_SetLow:	
  8169                           
  8170                           	psect	text27
  8171  1001                     __ptext27:	
  8172 ;; *************** function _io_init *****************
  8173 ;; Defined at:
  8174 ;;		line 17 in file "io.c"
  8175 ;; Parameters:    Size  Location     Type
  8176 ;;		None
  8177 ;; Auto vars:     Size  Location     Type
  8178 ;;		None
  8179 ;; Return value:  Size  Location     Type
  8180 ;;                  1    wreg      void 
  8181 ;; Registers used:
  8182 ;;		None
  8183 ;; Tracked objects:
  8184 ;;		On entry : 0/0
  8185 ;;		On exit  : 0/0
  8186 ;;		Unchanged: 0/0
  8187 ;; Data sizes:     COMMON   BANK0   BANK1   BANK3   BANK2
  8188 ;;      Params:         0       0       0       0       0
  8189 ;;      Locals:         0       0       0       0       0
  8190 ;;      Temps:          0       0       0       0       0
  8191 ;;      Totals:         0       0       0       0       0
  8192 ;;Total ram usage:        0 bytes
  8193 ;; Hardware stack levels used:    1
  8194 ;; Hardware stack levels required when called:    4
  8195 ;; This function calls:
  8196 ;;		Nothing
  8197 ;; This function is called by:
  8198 ;;		_main
  8199 ;; This function uses a non-reentrant model
  8200 ;;
  8201                           
  8202                           
  8203                           ;psect for function _io_init
  8204  1001                     _io_init:	
  8205  1001                     l3511:	
  8206                           ;incstack = 0
  8207                           ; Regs used in _io_init: []
  8208                           
  8209                           
  8210                           ;io.c: 21: TRISB6 = 1;
  8211  1001  1683               	bsf	3,5	;RP0=1, select bank1
  8212  1002  1303               	bcf	3,6	;RP1=0, select bank1
  8213  1003  1706               	bsf	6,6	;volatile
  8214                           
  8215                           ;io.c: 22: nRBPU = 0;
  8216  1004  1381               	bcf	1,7	;volatile
  8217                           
  8218                           ;io.c: 23: WPUB6 = 1;
  8219  1005  1715               	bsf	21,6	;volatile
  8220                           
  8221                           ;io.c: 24: IOCB6 = 1;
  8222  1006  1716               	bsf	22,6	;volatile
  8223                           
  8224                           ;io.c: 25: RBIE = 1;
  8225  1007  158B               	bsf	11,3	;volatile
  8226  1008                     l183:	
  8227  1008  0008               	return
  8228  1009                     __end_of_io_init:	
  8229                           
  8230                           	psect	text28
  8231  1CAE                     __ptext28:	
  8232 ;; *************** function _adc_init_0 *****************
  8233 ;; Defined at:
  8234 ;;		line 6 in file "adc.c"
  8235 ;; Parameters:    Size  Location     Type
  8236 ;;		None
  8237 ;; Auto vars:     Size  Location     Type
  8238 ;;		None
  8239 ;; Return value:  Size  Location     Type
  8240 ;;                  1    wreg      void 
  8241 ;; Registers used:
  8242 ;;		wreg, status,2, status,0
  8243 ;; Tracked objects:
  8244 ;;		On entry : 0/0
  8245 ;;		On exit  : 0/0
  8246 ;;		Unchanged: 0/0
  8247 ;; Data sizes:     COMMON   BANK0   BANK1   BANK3   BANK2
  8248 ;;      Params:         0       0       0       0       0
  8249 ;;      Locals:         0       0       0       0       0
  8250 ;;      Temps:          0       0       2       0       0
  8251 ;;      Totals:         0       0       2       0       0
  8252 ;;Total ram usage:        2 bytes
  8253 ;; Hardware stack levels used:    1
  8254 ;; Hardware stack levels required when called:    4
  8255 ;; This function calls:
  8256 ;;		Nothing
  8257 ;; This function is called by:
  8258 ;;		_main
  8259 ;; This function uses a non-reentrant model
  8260 ;;
  8261                           
  8262                           
  8263                           ;psect for function _adc_init_0
  8264  1CAE                     _adc_init_0:	
  8265  1CAE                     l3501:	
  8266                           ;incstack = 0
  8267                           ; Regs used in _adc_init_0: [wreg+status,2+status,0]
  8268                           
  8269                           
  8270                           ;adc.c: 8: TRISA0 = 1;
  8271  1CAE  1683               	bsf	3,5	;RP0=1, select bank1
  8272  1CAF  1303               	bcf	3,6	;RP1=0, select bank1
  8273  1CB0  1405               	bsf	5,0	;volatile
  8274                           
  8275                           ;adc.c: 9: ANS0 = 1;
  8276  1CB1  1683               	bsf	3,5	;RP0=1, select bank3
  8277  1CB2  1703               	bsf	3,6	;RP1=1, select bank3
  8278  1CB3  1408               	bsf	8,0	;volatile
  8279                           
  8280                           ;adc.c: 11: ADCS1 = 1;
  8281  1CB4  1283               	bcf	3,5	;RP0=0, select bank0
  8282  1CB5  1303               	bcf	3,6	;RP1=0, select bank0
  8283  1CB6  179F               	bsf	31,7	;volatile
  8284                           
  8285                           ;adc.c: 13: VCFG1 = 0;
  8286  1CB7  1683               	bsf	3,5	;RP0=1, select bank1
  8287  1CB8  1303               	bcf	3,6	;RP1=0, select bank1
  8288  1CB9  129F               	bcf	31,5	;volatile
  8289                           
  8290                           ;adc.c: 14: VCFG0 = 0;
  8291  1CBA  121F               	bcf	31,4	;volatile
  8292  1CBB                     l3503:	
  8293                           
  8294                           ;adc.c: 16: ADCON0bits.CHS = 0;
  8295  1CBB  30C3               	movlw	-61
  8296  1CBC  1283               	bcf	3,5	;RP0=0, select bank0
  8297  1CBD  1303               	bcf	3,6	;RP1=0, select bank0
  8298  1CBE  059F               	andwf	31,f	;volatile
  8299  1CBF                     l3505:	
  8300                           
  8301                           ;adc.c: 18: ADFM = 1;
  8302  1CBF  1683               	bsf	3,5	;RP0=1, select bank1
  8303  1CC0  1303               	bcf	3,6	;RP1=0, select bank1
  8304  1CC1  179F               	bsf	31,7	;volatile
  8305  1CC2                     l3507:	
  8306                           
  8307                           ;adc.c: 20: ADON = 1;
  8308  1CC2  1283               	bcf	3,5	;RP0=0, select bank0
  8309  1CC3  1303               	bcf	3,6	;RP1=0, select bank0
  8310  1CC4  141F               	bsf	31,0	;volatile
  8311  1CC5                     l3509:	
  8312                           
  8313                           ;adc.c: 22: _delay((unsigned long)((10)*(20000000/4000.0)));
  8314  1CC5  3041               	movlw	65
  8315  1CC6  1683               	bsf	3,5	;RP0=1, select bank1
  8316  1CC7  1303               	bcf	3,6	;RP1=0, select bank1
  8317  1CC8  00A1               	movwf	(??_adc_init_0^(0+128)+1)
  8318  1CC9  30ED               	movlw	237
  8319  1CCA  00A0               	movwf	??_adc_init_0^(0+128)
  8320  1CCB                     u6277:	
  8321  1CCB  0BA0               	decfsz	??_adc_init_0^(0+128),f
  8322  1CCC  2CCB               	goto	u6277
  8323  1CCD  0BA1               	decfsz	(??_adc_init_0^(0+128)+1),f
  8324  1CCE  2CCB               	goto	u6277
  8325  1CCF  2CD0               	nop2
  8326  1CD0                     l220:	
  8327  1CD0  0008               	return
  8328  1CD1                     __end_of_adc_init_0:	
  8329                           
  8330                           	psect	text29
  8331  1EAB                     __ptext29:	
  8332 ;; *************** function _isr *****************
  8333 ;; Defined at:
  8334 ;;		line 54 in file "main.c"
  8335 ;; Parameters:    Size  Location     Type
  8336 ;;		None
  8337 ;; Auto vars:     Size  Location     Type
  8338 ;;		None
  8339 ;; Return value:  Size  Location     Type
  8340 ;;                  1    wreg      void 
  8341 ;; Registers used:
  8342 ;;		wreg, status,2, status,0, btemp+1, pclath, cstack
  8343 ;; Tracked objects:
  8344 ;;		On entry : 0/0
  8345 ;;		On exit  : 0/0
  8346 ;;		Unchanged: 0/0
  8347 ;; Data sizes:     COMMON   BANK0   BANK1   BANK3   BANK2
  8348 ;;      Params:         0       0       0       0       0
  8349 ;;      Locals:         0       0       0       0       0
  8350 ;;      Temps:          0       3       0       0       0
  8351 ;;      Totals:         0       3       0       0       0
  8352 ;;Total ram usage:        3 bytes
  8353 ;; Hardware stack levels used:    1
  8354 ;; Hardware stack levels required when called:    3
  8355 ;; This function calls:
  8356 ;;		_adc_read_0
  8357 ;;		_io_sw_pressed
  8358 ;;		_io_sw_read
  8359 ;; This function is called by:
  8360 ;;		Interrupt level 1
  8361 ;; This function uses a non-reentrant model
  8362 ;;
  8363                           
  8364                           
  8365                           ;psect for function _isr
  8366  1EAB                     _isr:	
  8367  1EAB                     i1l3657:	
  8368                           
  8369                           ;main.c: 60: if (T0IE && T0IF) {
  8370  1EAB  1E8B               	btfss	11,5	;volatile
  8371  1EAC  2EAE               	goto	u615_21
  8372  1EAD  2EAF               	goto	u615_20
  8373  1EAE                     u615_21:	
  8374  1EAE  2EC9               	goto	i1l3667
  8375  1EAF                     u615_20:	
  8376  1EAF                     i1l3659:	
  8377  1EAF  1D0B               	btfss	11,2	;volatile
  8378  1EB0  2EB2               	goto	u616_21
  8379  1EB1  2EB3               	goto	u616_20
  8380  1EB2                     u616_21:	
  8381  1EB2  2EC9               	goto	i1l3667
  8382  1EB3                     u616_20:	
  8383  1EB3                     i1l3661:	
  8384                           
  8385                           ;main.c: 62: ADC_result = adc_read_0();
  8386  1EB3  160A  158A  2709  160A  158A  	fcall	_adc_read_0
  8387  1EB8  1283               	bcf	3,5	;RP0=0, select bank0
  8388  1EB9  1303               	bcf	3,6	;RP1=0, select bank0
  8389  1EBA  085A               	movf	?_adc_read_0+1,w
  8390  1EBB  1683               	bsf	3,5	;RP0=1, select bank3
  8391  1EBC  1703               	bsf	3,6	;RP1=1, select bank3
  8392  1EBD  00CA               	movwf	(_ADC_result+1)^(0+384)	;volatile
  8393  1EBE  1283               	bcf	3,5	;RP0=0, select bank0
  8394  1EBF  1303               	bcf	3,6	;RP1=0, select bank0
  8395  1EC0  0859               	movf	?_adc_read_0,w
  8396  1EC1  1683               	bsf	3,5	;RP0=1, select bank3
  8397  1EC2  1703               	bsf	3,6	;RP1=1, select bank3
  8398  1EC3  00C9               	movwf	_ADC_result^(0+384)	;volatile
  8399  1EC4                     i1l3663:	
  8400                           
  8401                           ;main.c: 63: TMR0 = (0xff - 98 ) ;
  8402  1EC4  309D               	movlw	157
  8403  1EC5  1283               	bcf	3,5	;RP0=0, select bank0
  8404  1EC6  1303               	bcf	3,6	;RP1=0, select bank0
  8405  1EC7  0081               	movwf	1	;volatile
  8406  1EC8                     i1l3665:	
  8407                           
  8408                           ;main.c: 64: T0IF = 0;
  8409  1EC8  110B               	bcf	11,2	;volatile
  8410  1EC9                     i1l3667:	
  8411                           
  8412                           ;main.c: 65: };main.c: 67: if (TMR2IE && TMR2IF) {
  8413  1EC9  1683               	bsf	3,5	;RP0=1, select bank1
  8414  1ECA  1303               	bcf	3,6	;RP1=0, select bank1
  8415  1ECB  1C8C               	btfss	12,1	;volatile
  8416  1ECC  2ECE               	goto	u617_21
  8417  1ECD  2ECF               	goto	u617_20
  8418  1ECE                     u617_21:	
  8419  1ECE  2EEE               	goto	i1l3675
  8420  1ECF                     u617_20:	
  8421  1ECF                     i1l3669:	
  8422  1ECF  1283               	bcf	3,5	;RP0=0, select bank0
  8423  1ED0  1303               	bcf	3,6	;RP1=0, select bank0
  8424  1ED1  1C8C               	btfss	12,1	;volatile
  8425  1ED2  2ED4               	goto	u618_21
  8426  1ED3  2ED5               	goto	u618_20
  8427  1ED4                     u618_21:	
  8428  1ED4  2EEE               	goto	i1l3675
  8429  1ED5                     u618_20:	
  8430  1ED5                     i1l3671:	
  8431                           
  8432                           ;main.c: 68: if (io_sw_pressed())
  8433  1ED5  160A  158A  242C  160A  158A  	fcall	_io_sw_pressed
  8434  1EDA  0870               	movf	?_io_sw_pressed,w
  8435  1EDB  0471               	iorwf	?_io_sw_pressed+1,w
  8436  1EDC  1903               	btfsc	3,2
  8437  1EDD  2EDF               	goto	u619_21
  8438  1EDE  2EE0               	goto	u619_20
  8439  1EDF                     u619_21:	
  8440  1EDF  2EE7               	goto	i1l150
  8441  1EE0                     u619_20:	
  8442  1EE0                     i1l3673:	
  8443                           
  8444                           ;main.c: 69: pwm_dc1 = -pwm_dc1;
  8445  1EE0  1283               	bcf	3,5	;RP0=0, select bank0
  8446  1EE1  1303               	bcf	3,6	;RP1=0, select bank0
  8447  1EE2  09EA               	comf	_pwm_dc1,f	;volatile
  8448  1EE3  09EB               	comf	_pwm_dc1+1,f	;volatile
  8449  1EE4  0AEA               	incf	_pwm_dc1,f	;volatile
  8450  1EE5  1903               	skipnz
  8451  1EE6  0AEB               	incf	_pwm_dc1+1,f	;volatile
  8452  1EE7                     i1l150:	
  8453                           
  8454                           ;main.c: 70: pwm_dc2 = -pwm_dc2;
  8455  1EE7  1283               	bcf	3,5	;RP0=0, select bank0
  8456  1EE8  1303               	bcf	3,6	;RP1=0, select bank0
  8457  1EE9  09E8               	comf	_pwm_dc2,f	;volatile
  8458  1EEA  09E9               	comf	_pwm_dc2+1,f	;volatile
  8459  1EEB  0AE8               	incf	_pwm_dc2,f	;volatile
  8460  1EEC  1903               	skipnz
  8461  1EED  0AE9               	incf	_pwm_dc2+1,f	;volatile
  8462  1EEE                     i1l3675:	
  8463                           
  8464                           ;main.c: 71: };main.c: 76: if (RBIE && RBIF) {
  8465  1EEE  1D8B               	btfss	11,3	;volatile
  8466  1EEF  2EF1               	goto	u620_21
  8467  1EF0  2EF2               	goto	u620_20
  8468  1EF1                     u620_21:	
  8469  1EF1  2EFE               	goto	i1l152
  8470  1EF2                     u620_20:	
  8471  1EF2                     i1l3677:	
  8472  1EF2  1C0B               	btfss	11,0	;volatile
  8473  1EF3  2EF5               	goto	u621_21
  8474  1EF4  2EF6               	goto	u621_20
  8475  1EF5                     u621_21:	
  8476  1EF5  2EFE               	goto	i1l152
  8477  1EF6                     u621_20:	
  8478  1EF6                     i1l3679:	
  8479                           
  8480                           ;main.c: 80: io_sw_read(PORTB);
  8481  1EF6  1283               	bcf	3,5	;RP0=0, select bank0
  8482  1EF7  0806               	movf	6,w	;volatile
  8483  1EF8  160A  158A  248C  160A  158A  	fcall	_io_sw_read
  8484  1EFD                     i1l3681:	
  8485                           
  8486                           ;main.c: 83: RBIF = 0;
  8487  1EFD  100B               	bcf	11,0	;volatile
  8488  1EFE                     i1l152:	
  8489  1EFE  1283               	bcf	3,5	;RP0=0, select bank0
  8490  1EFF  1303               	bcf	3,6	;RP1=0, select bank0
  8491  1F00  0867               	movf	??_isr+2,w
  8492  1F01  00FF               	movwf	btemp+1
  8493  1F02  0866               	movf	??_isr+1,w
  8494  1F03  008A               	movwf	10
  8495  1F04  0E65               	swapf	??_isr^0,w
  8496  1F05  0083               	movwf	3
  8497  1F06  0EFE               	swapf	btemp,f
  8498  1F07  0E7E               	swapf	btemp,w
  8499  1F08  0009               	retfie
  8500  1F09                     __end_of_isr:	
  8501                           
  8502                           	psect	intentry
  8503  0004                     __pintentry:	
  8504                           ;incstack = 0
  8505                           ; Regs used in _isr: [wreg+status,2+status,0+btemp+1+pclath+cstack]
  8506                           
  8507  0004                     interrupt_function:	
  8508  007E                     saved_w	set	btemp
  8509  0004  00FE               	movwf	btemp
  8510  0005  0E03               	swapf	3,w
  8511  0006  1283               	bcf	3,5	;RP0=0, select bank0
  8512  0007  1303               	bcf	3,6	;RP1=0, select bank0
  8513  0008  00E5               	movwf	??_isr
  8514  0009  080A               	movf	10,w
  8515  000A  00E6               	movwf	??_isr+1
  8516  000B  087F               	movf	btemp+1,w
  8517  000C  00E7               	movwf	??_isr+2
  8518  000D  160A  158A  2EAB   	ljmp	_isr
  8519                           
  8520                           	psect	text30
  8521  1C8C                     __ptext30:	
  8522 ;; *************** function _io_sw_read *****************
  8523 ;; Defined at:
  8524 ;;		line 53 in file "io.c"
  8525 ;; Parameters:    Size  Location     Type
  8526 ;;  port            1    wreg     unsigned char 
  8527 ;; Auto vars:     Size  Location     Type
  8528 ;;  port            1    2[COMMON] unsigned char 
  8529 ;;  swNew           1    3[COMMON] unsigned char 
  8530 ;; Return value:  Size  Location     Type
  8531 ;;                  1    wreg      void 
  8532 ;; Registers used:
  8533 ;;		wreg, status,2, status,0
  8534 ;; Tracked objects:
  8535 ;;		On entry : 0/0
  8536 ;;		On exit  : 0/0
  8537 ;;		Unchanged: 0/0
  8538 ;; Data sizes:     COMMON   BANK0   BANK1   BANK3   BANK2
  8539 ;;      Params:         0       0       0       0       0
  8540 ;;      Locals:         2       0       0       0       0
  8541 ;;      Temps:          2       0       0       0       0
  8542 ;;      Totals:         4       0       0       0       0
  8543 ;;Total ram usage:        4 bytes
  8544 ;; Hardware stack levels used:    1
  8545 ;; This function calls:
  8546 ;;		Nothing
  8547 ;; This function is called by:
  8548 ;;		_isr
  8549 ;; This function uses a non-reentrant model
  8550 ;;
  8551                           
  8552                           
  8553                           ;psect for function _io_sw_read
  8554  1C8C                     _io_sw_read:	
  8555                           
  8556                           ;incstack = 0
  8557                           ; Regs used in _io_sw_read: [wreg+status,2+status,0]
  8558                           ;io_sw_read@port stored from wreg
  8559  1C8C  00F2               	movwf	io_sw_read@port
  8560  1C8D                     i1l3477:	
  8561                           
  8562                           ;io.c: 54: static char swOld = 1;;io.c: 55: char swNew = (port & 0b01000000) >> 6;
  8563  1C8D  0872               	movf	io_sw_read@port,w
  8564  1C8E  00F0               	movwf	??_io_sw_read
  8565  1C8F  3006               	movlw	6
  8566  1C90                     u595_25:	
  8567  1C90  1003               	clrc
  8568  1C91  0CF0               	rrf	??_io_sw_read,f
  8569  1C92  3EFF               	addlw	-1
  8570  1C93  1D03               	skipz
  8571  1C94  2C90               	goto	u595_25
  8572  1C95  0870               	movf	??_io_sw_read,w
  8573  1C96  3901               	andlw	1
  8574  1C97  00F1               	movwf	??_io_sw_read+1
  8575  1C98  0871               	movf	??_io_sw_read+1,w
  8576  1C99  00F3               	movwf	io_sw_read@swNew
  8577                           
  8578                           ;io.c: 56: if (swNew == 0 && swOld == 1) {
  8579  1C9A  0873               	movf	io_sw_read@swNew,w
  8580  1C9B  1D03               	btfss	3,2
  8581  1C9C  2C9E               	goto	u596_21
  8582  1C9D  2C9F               	goto	u596_20
  8583  1C9E                     u596_21:	
  8584  1C9E  2CA7               	goto	i1l3483
  8585  1C9F                     u596_20:	
  8586  1C9F                     i1l3479:	
  8587  1C9F  1283               	bcf	3,5	;RP0=0, select bank0
  8588  1CA0  1303               	bcf	3,6	;RP1=0, select bank0
  8589  1CA1  036C               	decf	io_sw_read@swOld,w
  8590  1CA2  1D03               	btfss	3,2
  8591  1CA3  2CA5               	goto	u597_21
  8592  1CA4  2CA6               	goto	u597_20
  8593  1CA5                     u597_21:	
  8594  1CA5  2CA7               	goto	i1l3483
  8595  1CA6                     u597_20:	
  8596  1CA6                     i1l3481:	
  8597                           
  8598                           ;io.c: 57: swPressed = 1;
  8599  1CA6  146F               	bsf	_swPressed/(0+8),_swPressed& (0+7)	;volatile
  8600  1CA7                     i1l3483:	
  8601                           
  8602                           ;io.c: 58: };io.c: 59: swOld = swNew;
  8603  1CA7  0873               	movf	io_sw_read@swNew,w
  8604  1CA8  00F0               	movwf	??_io_sw_read
  8605  1CA9  0870               	movf	??_io_sw_read,w
  8606  1CAA  1283               	bcf	3,5	;RP0=0, select bank0
  8607  1CAB  1303               	bcf	3,6	;RP1=0, select bank0
  8608  1CAC  00EC               	movwf	io_sw_read@swOld
  8609  1CAD                     i1l189:	
  8610  1CAD  0008               	return
  8611  1CAE                     __end_of_io_sw_read:	
  8612                           
  8613                           	psect	text31
  8614  1C2C                     __ptext31:	
  8615 ;; *************** function _io_sw_pressed *****************
  8616 ;; Defined at:
  8617 ;;		line 62 in file "io.c"
  8618 ;; Parameters:    Size  Location     Type
  8619 ;;		None
  8620 ;; Auto vars:     Size  Location     Type
  8621 ;;		None
  8622 ;; Return value:  Size  Location     Type
  8623 ;;                  2    0[COMMON] int 
  8624 ;; Registers used:
  8625 ;;		wreg, status,2
  8626 ;; Tracked objects:
  8627 ;;		On entry : 0/0
  8628 ;;		On exit  : 0/0
  8629 ;;		Unchanged: 0/0
  8630 ;; Data sizes:     COMMON   BANK0   BANK1   BANK3   BANK2
  8631 ;;      Params:         2       0       0       0       0
  8632 ;;      Locals:         0       0       0       0       0
  8633 ;;      Temps:          0       0       0       0       0
  8634 ;;      Totals:         2       0       0       0       0
  8635 ;;Total ram usage:        2 bytes
  8636 ;; Hardware stack levels used:    1
  8637 ;; This function calls:
  8638 ;;		Nothing
  8639 ;; This function is called by:
  8640 ;;		_isr
  8641 ;; This function uses a non-reentrant model
  8642 ;;
  8643                           
  8644                           
  8645                           ;psect for function _io_sw_pressed
  8646  1C2C                     _io_sw_pressed:	
  8647  1C2C                     i1l3465:	
  8648                           ;incstack = 0
  8649                           ; Regs used in _io_sw_pressed: [wreg+status,2]
  8650                           
  8651                           
  8652                           ;io.c: 63: if (swPressed) {
  8653  1C2C  1283               	bcf	3,5	;RP0=0, select bank0
  8654  1C2D  1303               	bcf	3,6	;RP1=0, select bank0
  8655  1C2E  1C6F               	btfss	_swPressed/(0+8),_swPressed& (0+7)	;volatile
  8656  1C2F  2C31               	goto	u594_21
  8657  1C30  2C32               	goto	u594_20
  8658  1C31                     u594_21:	
  8659  1C31  2C38               	goto	i1l3473
  8660  1C32                     u594_20:	
  8661  1C32                     i1l3467:	
  8662                           
  8663                           ;io.c: 64: swPressed = 0;
  8664  1C32  106F               	bcf	_swPressed/(0+8),_swPressed& (0+7)	;volatile
  8665  1C33                     i1l3469:	
  8666                           
  8667                           ;io.c: 65: return 1;
  8668  1C33  3001               	movlw	1
  8669  1C34  00F0               	movwf	?_io_sw_pressed
  8670  1C35  3000               	movlw	0
  8671  1C36  00F1               	movwf	?_io_sw_pressed+1
  8672  1C37  2C3A               	goto	i1l193
  8673  1C38                     i1l3473:	
  8674                           
  8675                           ;io.c: 66: };io.c: 67: return 0;
  8676  1C38  01F0               	clrf	?_io_sw_pressed
  8677  1C39  01F1               	clrf	?_io_sw_pressed+1
  8678  1C3A                     i1l193:	
  8679  1C3A  0008               	return
  8680  1C3B                     __end_of_io_sw_pressed:	
  8681                           
  8682                           	psect	text32
  8683  1F09                     __ptext32:	
  8684 ;; *************** function _adc_read_0 *****************
  8685 ;; Defined at:
  8686 ;;		line 25 in file "adc.c"
  8687 ;; Parameters:    Size  Location     Type
  8688 ;;		None
  8689 ;; Auto vars:     Size  Location     Type
  8690 ;;  ADC_result      2   67[BANK0 ] unsigned int 
  8691 ;; Return value:  Size  Location     Type
  8692 ;;                  2   57[BANK0 ] unsigned int 
  8693 ;; Registers used:
  8694 ;;		wreg, status,2, status,0, btemp+1, pclath, cstack
  8695 ;; Tracked objects:
  8696 ;;		On entry : 0/0
  8697 ;;		On exit  : 0/0
  8698 ;;		Unchanged: 0/0
  8699 ;; Data sizes:     COMMON   BANK0   BANK1   BANK3   BANK2
  8700 ;;      Params:         0       2       0       0       0
  8701 ;;      Locals:         0       2       0       0       0
  8702 ;;      Temps:          0       8       0       0       0
  8703 ;;      Totals:         0      12       0       0       0
  8704 ;;Total ram usage:       12 bytes
  8705 ;; Hardware stack levels used:    1
  8706 ;; Hardware stack levels required when called:    2
  8707 ;; This function calls:
  8708 ;;		i1___fladd
  8709 ;;		i1___flmul
  8710 ;;		i1___fltol
  8711 ;;		i1___xxtofl
  8712 ;; This function is called by:
  8713 ;;		_isr
  8714 ;; This function uses a non-reentrant model
  8715 ;;
  8716                           
  8717                           
  8718                           ;psect for function _adc_read_0
  8719  1F09                     _adc_read_0:	
  8720  1F09                     i1l3457:	
  8721                           ;incstack = 0
  8722                           ; Regs used in _adc_read_0: [wreg+status,2+status,0+btemp+1+pclath+cstack]
  8723                           
  8724                           
  8725                           ;adc.c: 30: GO = 1;
  8726  1F09  1283               	bcf	3,5	;RP0=0, select bank0
  8727  1F0A  1303               	bcf	3,6	;RP1=0, select bank0
  8728  1F0B  149F               	bsf	31,1	;volatile
  8729  1F0C                     i1l223:	
  8730                           ;adc.c: 32: while(GO);
  8731                           
  8732  1F0C  189F               	btfsc	31,1	;volatile
  8733  1F0D  2F0F               	goto	u593_21
  8734  1F0E  2F10               	goto	u593_20
  8735  1F0F                     u593_21:	
  8736  1F0F  2F0C               	goto	i1l223
  8737  1F10                     u593_20:	
  8738  1F10                     i1l3459:	
  8739                           
  8740                           ;adc.c: 34: unsigned int ADC_result = (unsigned int)(ADRESH*256.0 + ADRESL);
  8741  1F10  081E               	movf	30,w	;volatile
  8742  1F11  00DB               	movwf	??_adc_read_0
  8743  1F12  01DC               	clrf	??_adc_read_0+1
  8744  1F13  01DD               	clrf	??_adc_read_0+2
  8745  1F14  01DE               	clrf	??_adc_read_0+3
  8746  1F15  085E               	movf	??_adc_read_0+3,w
  8747  1F16  00F3               	movwf	i1___xxtofl@val+3
  8748  1F17  085D               	movf	??_adc_read_0+2,w
  8749  1F18  00F2               	movwf	i1___xxtofl@val+2
  8750  1F19  085C               	movf	??_adc_read_0+1,w
  8751  1F1A  00F1               	movwf	i1___xxtofl@val+1
  8752  1F1B  085B               	movf	??_adc_read_0,w
  8753  1F1C  00F0               	movwf	i1___xxtofl@val
  8754  1F1D  3000               	movlw	0
  8755  1F1E  160A  118A  20AE  160A  158A  	fcall	i1___xxtofl
  8756  1F23  0873               	movf	?i1___xxtofl+3,w
  8757  1F24  1283               	bcf	3,5	;RP0=0, select bank0
  8758  1F25  1303               	bcf	3,6	;RP1=0, select bank0
  8759  1F26  00A7               	movwf	i1___flmul@a+3
  8760  1F27  0872               	movf	?i1___xxtofl+2,w
  8761  1F28  00A6               	movwf	i1___flmul@a+2
  8762  1F29  0871               	movf	?i1___xxtofl+1,w
  8763  1F2A  00A5               	movwf	i1___flmul@a+1
  8764  1F2B  0870               	movf	?i1___xxtofl,w
  8765  1F2C  00A4               	movwf	i1___flmul@a
  8766  1F2D  3043               	movlw	67
  8767  1F2E  00A3               	movwf	i1___flmul@b+3
  8768  1F2F  3080               	movlw	128
  8769  1F30  00A2               	movwf	i1___flmul@b+2
  8770  1F31  3000               	movlw	0
  8771  1F32  00A1               	movwf	i1___flmul@b+1
  8772  1F33  3000               	movlw	0
  8773  1F34  00A0               	movwf	i1___flmul@b
  8774  1F35  120A  158A  249F  160A  158A  	fcall	i1___flmul
  8775  1F3A  1283               	bcf	3,5	;RP0=0, select bank0
  8776  1F3B  1303               	bcf	3,6	;RP1=0, select bank0
  8777  1F3C  0823               	movf	?i1___flmul+3,w
  8778  1F3D  00C1               	movwf	i1___fladd@a+3
  8779  1F3E  0822               	movf	?i1___flmul+2,w
  8780  1F3F  00C0               	movwf	i1___fladd@a+2
  8781  1F40  0821               	movf	?i1___flmul+1,w
  8782  1F41  00BF               	movwf	i1___fladd@a+1
  8783  1F42  0820               	movf	?i1___flmul,w
  8784  1F43  00BE               	movwf	i1___fladd@a
  8785  1F44  1683               	bsf	3,5	;RP0=1, select bank1
  8786  1F45  1303               	bcf	3,6	;RP1=0, select bank1
  8787  1F46  081E               	movf	30,w	;volatile
  8788  1F47  1283               	bcf	3,5	;RP0=0, select bank0
  8789  1F48  1303               	bcf	3,6	;RP1=0, select bank0
  8790  1F49  00DF               	movwf	??_adc_read_0+4
  8791  1F4A  01E0               	clrf	??_adc_read_0+5
  8792  1F4B  01E1               	clrf	??_adc_read_0+6
  8793  1F4C  01E2               	clrf	??_adc_read_0+7
  8794  1F4D  0862               	movf	??_adc_read_0+7,w
  8795  1F4E  00F3               	movwf	i1___xxtofl@val+3
  8796  1F4F  0861               	movf	??_adc_read_0+6,w
  8797  1F50  00F2               	movwf	i1___xxtofl@val+2
  8798  1F51  0860               	movf	??_adc_read_0+5,w
  8799  1F52  00F1               	movwf	i1___xxtofl@val+1
  8800  1F53  085F               	movf	??_adc_read_0+4,w
  8801  1F54  00F0               	movwf	i1___xxtofl@val
  8802  1F55  3000               	movlw	0
  8803  1F56  160A  118A  20AE  160A  158A  	fcall	i1___xxtofl
  8804  1F5B  0873               	movf	?i1___xxtofl+3,w
  8805  1F5C  1283               	bcf	3,5	;RP0=0, select bank0
  8806  1F5D  1303               	bcf	3,6	;RP1=0, select bank0
  8807  1F5E  00BD               	movwf	i1___fladd@b+3
  8808  1F5F  0872               	movf	?i1___xxtofl+2,w
  8809  1F60  00BC               	movwf	i1___fladd@b+2
  8810  1F61  0871               	movf	?i1___xxtofl+1,w
  8811  1F62  00BB               	movwf	i1___fladd@b+1
  8812  1F63  0870               	movf	?i1___xxtofl,w
  8813  1F64  00BA               	movwf	i1___fladd@b
  8814  1F65  120A  158A  2217  160A  158A  	fcall	i1___fladd
  8815  1F6A  1283               	bcf	3,5	;RP0=0, select bank0
  8816  1F6B  1303               	bcf	3,6	;RP1=0, select bank0
  8817  1F6C  083D               	movf	?i1___fladd+3,w
  8818  1F6D  00D1               	movwf	i1___fltol@f1+3
  8819  1F6E  083C               	movf	?i1___fladd+2,w
  8820  1F6F  00D0               	movwf	i1___fltol@f1+2
  8821  1F70  083B               	movf	?i1___fladd+1,w
  8822  1F71  00CF               	movwf	i1___fltol@f1+1
  8823  1F72  083A               	movf	?i1___fladd,w
  8824  1F73  00CE               	movwf	i1___fltol@f1
  8825  1F74  160A  158A  2784  160A  158A  	fcall	i1___fltol
  8826  1F79  1283               	bcf	3,5	;RP0=0, select bank0
  8827  1F7A  1303               	bcf	3,6	;RP1=0, select bank0
  8828  1F7B  084F               	movf	?i1___fltol+1,w
  8829  1F7C  00E4               	movwf	adc_read_0@ADC_result+1
  8830  1F7D  084E               	movf	?i1___fltol,w
  8831  1F7E  00E3               	movwf	adc_read_0@ADC_result
  8832  1F7F                     i1l3461:	
  8833                           
  8834                           ;adc.c: 36: return ADC_result;
  8835  1F7F  0864               	movf	adc_read_0@ADC_result+1,w
  8836  1F80  00DA               	movwf	?_adc_read_0+1
  8837  1F81  0863               	movf	adc_read_0@ADC_result,w
  8838  1F82  00D9               	movwf	?_adc_read_0
  8839  1F83                     i1l226:	
  8840  1F83  0008               	return
  8841  1F84                     __end_of_adc_read_0:	
  8842                           
  8843                           	psect	text33
  8844  10AE                     __ptext33:	
  8845 ;; *************** function i1___xxtofl *****************
  8846 ;; Defined at:
  8847 ;;		line 10 in file "C:\Program Files (x86)\Microchip\xc8\v2.10\pic\sources\c90\common\xxtofl.c"
  8848 ;; Parameters:    Size  Location     Type
  8849 ;;  sign            1    wreg     unsigned char 
  8850 ;;  val             4    0[COMMON] long 
  8851 ;; Auto vars:     Size  Location     Type
  8852 ;;  sign            1    8[COMMON] unsigned char 
  8853 ;;  __xxtofl        4   10[COMMON] unsigned long 
  8854 ;;  __xxtofl        1    9[COMMON] unsigned char 
  8855 ;; Return value:  Size  Location     Type
  8856 ;;                  4    0[COMMON] unsigned char 
  8857 ;; Registers used:
  8858 ;;		wreg, status,2, status,0
  8859 ;; Tracked objects:
  8860 ;;		On entry : 0/0
  8861 ;;		On exit  : 0/0
  8862 ;;		Unchanged: 0/0
  8863 ;; Data sizes:     COMMON   BANK0   BANK1   BANK3   BANK2
  8864 ;;      Params:         4       0       0       0       0
  8865 ;;      Locals:         6       0       0       0       0
  8866 ;;      Temps:          4       0       0       0       0
  8867 ;;      Totals:        14       0       0       0       0
  8868 ;;Total ram usage:       14 bytes
  8869 ;; Hardware stack levels used:    1
  8870 ;; This function calls:
  8871 ;;		Nothing
  8872 ;; This function is called by:
  8873 ;;		_adc_read_0
  8874 ;; This function uses a non-reentrant model
  8875 ;;
  8876                           
  8877                           
  8878                           ;psect for function i1___xxtofl
  8879  10AE                     i1___xxtofl:	
  8880                           
  8881                           ;incstack = 0
  8882                           ; Regs used in i1___xxtofl: [wreg+status,2+status,0]
  8883                           ;i1___xxtofl@sign stored from wreg
  8884  10AE  00F8               	movwf	i1___xxtofl@sign
  8885  10AF                     i1l3365:	
  8886  10AF  0878               	movf	i1___xxtofl@sign,w
  8887  10B0  1903               	btfsc	3,2
  8888  10B1  28B3               	goto	u577_21
  8889  10B2  28B4               	goto	u577_20
  8890  10B3                     u577_21:	
  8891  10B3  28C8               	goto	i1l3371
  8892  10B4                     u577_20:	
  8893  10B4                     i1l3367:	
  8894  10B4  1FF3               	btfss	i1___xxtofl@val+3,7
  8895  10B5  28B7               	goto	u578_21
  8896  10B6  28B8               	goto	u578_20
  8897  10B7                     u578_21:	
  8898  10B7  28C8               	goto	i1l3371
  8899  10B8                     u578_20:	
  8900  10B8                     i1l3369:	
  8901  10B8  0970               	comf	i1___xxtofl@val,w
  8902  10B9  00FA               	movwf	i1___xxtofl@arg
  8903  10BA  0971               	comf	i1___xxtofl@val+1,w
  8904  10BB  00FB               	movwf	i1___xxtofl@arg+1
  8905  10BC  0972               	comf	i1___xxtofl@val+2,w
  8906  10BD  00FC               	movwf	i1___xxtofl@arg+2
  8907  10BE  0973               	comf	i1___xxtofl@val+3,w
  8908  10BF  00FD               	movwf	i1___xxtofl@arg+3
  8909  10C0  0AFA               	incf	i1___xxtofl@arg,f
  8910  10C1  1903               	skipnz
  8911  10C2  0AFB               	incf	i1___xxtofl@arg+1,f
  8912  10C3  1903               	skipnz
  8913  10C4  0AFC               	incf	i1___xxtofl@arg+2,f
  8914  10C5  1903               	skipnz
  8915  10C6  0AFD               	incf	i1___xxtofl@arg+3,f
  8916  10C7  28D0               	goto	i1l830
  8917  10C8                     i1l3371:	
  8918  10C8  0873               	movf	i1___xxtofl@val+3,w
  8919  10C9  00FD               	movwf	i1___xxtofl@arg+3
  8920  10CA  0872               	movf	i1___xxtofl@val+2,w
  8921  10CB  00FC               	movwf	i1___xxtofl@arg+2
  8922  10CC  0871               	movf	i1___xxtofl@val+1,w
  8923  10CD  00FB               	movwf	i1___xxtofl@arg+1
  8924  10CE  0870               	movf	i1___xxtofl@val,w
  8925  10CF  00FA               	movwf	i1___xxtofl@arg
  8926  10D0                     i1l830:	
  8927  10D0  0873               	movf	i1___xxtofl@val+3,w
  8928  10D1  0472               	iorwf	i1___xxtofl@val+2,w
  8929  10D2  0471               	iorwf	i1___xxtofl@val+1,w
  8930  10D3  0470               	iorwf	i1___xxtofl@val,w
  8931  10D4  1D03               	skipz
  8932  10D5  28D7               	goto	u579_21
  8933  10D6  28D8               	goto	u579_20
  8934  10D7                     u579_21:	
  8935  10D7  28E1               	goto	i1l3377
  8936  10D8                     u579_20:	
  8937  10D8                     i1l3373:	
  8938  10D8  3000               	movlw	0
  8939  10D9  00F3               	movwf	?i1___xxtofl+3
  8940  10DA  3000               	movlw	0
  8941  10DB  00F2               	movwf	?i1___xxtofl+2
  8942  10DC  3000               	movlw	0
  8943  10DD  00F1               	movwf	?i1___xxtofl+1
  8944  10DE  3000               	movlw	0
  8945  10DF  00F0               	movwf	?i1___xxtofl
  8946  10E0  2967               	goto	i1l832
  8947  10E1                     i1l3377:	
  8948  10E1  3096               	movlw	150
  8949  10E2  00F4               	movwf	??i1___xxtofl
  8950  10E3  0874               	movf	??i1___xxtofl,w
  8951  10E4  00F9               	movwf	i1___xxtofl@exp
  8952  10E5  28F3               	goto	i1l3381
  8953  10E6                     i1l3379:	
  8954  10E6  3001               	movlw	1
  8955  10E7  00F4               	movwf	??i1___xxtofl
  8956  10E8  0874               	movf	??i1___xxtofl,w
  8957  10E9  07F9               	addwf	i1___xxtofl@exp,f
  8958  10EA  3001               	movlw	1
  8959  10EB                     u580_25:	
  8960  10EB  1003               	clrc
  8961  10EC  0CFD               	rrf	i1___xxtofl@arg+3,f
  8962  10ED  0CFC               	rrf	i1___xxtofl@arg+2,f
  8963  10EE  0CFB               	rrf	i1___xxtofl@arg+1,f
  8964  10EF  0CFA               	rrf	i1___xxtofl@arg,f
  8965  10F0  3EFF               	addlw	-1
  8966  10F1  1D03               	skipz
  8967  10F2  28EB               	goto	u580_25
  8968  10F3                     i1l3381:	
  8969  10F3  30FE               	movlw	254
  8970  10F4  057D               	andwf	i1___xxtofl@arg+3,w
  8971  10F5  1D03               	btfss	3,2
  8972  10F6  28F8               	goto	u581_21
  8973  10F7  28F9               	goto	u581_20
  8974  10F8                     u581_21:	
  8975  10F8  28E6               	goto	i1l3379
  8976  10F9                     u581_20:	
  8977  10F9  2915               	goto	i1l836
  8978  10FA                     i1l3383:	
  8979  10FA  3001               	movlw	1
  8980  10FB  00F4               	movwf	??i1___xxtofl
  8981  10FC  0874               	movf	??i1___xxtofl,w
  8982  10FD  07F9               	addwf	i1___xxtofl@exp,f
  8983  10FE                     i1l3385:	
  8984  10FE  3001               	movlw	1
  8985  10FF  07FA               	addwf	i1___xxtofl@arg,f
  8986  1100  3000               	movlw	0
  8987  1101  1803               	skipnc
  8988  1102  3001               	movlw	1
  8989  1103  07FB               	addwf	i1___xxtofl@arg+1,f
  8990  1104  3000               	movlw	0
  8991  1105  1803               	skipnc
  8992  1106  3001               	movlw	1
  8993  1107  07FC               	addwf	i1___xxtofl@arg+2,f
  8994  1108  3000               	movlw	0
  8995  1109  1803               	skipnc
  8996  110A  3001               	movlw	1
  8997  110B  07FD               	addwf	i1___xxtofl@arg+3,f
  8998  110C                     i1l3387:	
  8999  110C  3001               	movlw	1
  9000  110D                     u582_25:	
  9001  110D  1003               	clrc
  9002  110E  0CFD               	rrf	i1___xxtofl@arg+3,f
  9003  110F  0CFC               	rrf	i1___xxtofl@arg+2,f
  9004  1110  0CFB               	rrf	i1___xxtofl@arg+1,f
  9005  1111  0CFA               	rrf	i1___xxtofl@arg,f
  9006  1112  3EFF               	addlw	-1
  9007  1113  1D03               	skipz
  9008  1114  290D               	goto	u582_25
  9009  1115                     i1l836:	
  9010  1115  30FF               	movlw	255
  9011  1116  057D               	andwf	i1___xxtofl@arg+3,w
  9012  1117  1D03               	btfss	3,2
  9013  1118  291A               	goto	u583_21
  9014  1119  291B               	goto	u583_20
  9015  111A                     u583_21:	
  9016  111A  28FA               	goto	i1l3383
  9017  111B                     u583_20:	
  9018  111B  2927               	goto	i1l3391
  9019  111C                     i1l3389:	
  9020  111C  3001               	movlw	1
  9021  111D  02F9               	subwf	i1___xxtofl@exp,f
  9022  111E  3001               	movlw	1
  9023  111F  00F4               	movwf	??i1___xxtofl
  9024  1120                     u584_25:	
  9025  1120  1003               	clrc
  9026  1121  0DFA               	rlf	i1___xxtofl@arg,f
  9027  1122  0DFB               	rlf	i1___xxtofl@arg+1,f
  9028  1123  0DFC               	rlf	i1___xxtofl@arg+2,f
  9029  1124  0DFD               	rlf	i1___xxtofl@arg+3,f
  9030  1125  0BF4               	decfsz	??i1___xxtofl,f
  9031  1126  2920               	goto	u584_25
  9032  1127                     i1l3391:	
  9033  1127  1BFC               	btfsc	i1___xxtofl@arg+2,7
  9034  1128  292A               	goto	u585_21
  9035  1129  292B               	goto	u585_20
  9036  112A                     u585_21:	
  9037  112A  2931               	goto	i1l843
  9038  112B                     u585_20:	
  9039  112B                     i1l3393:	
  9040  112B  3002               	movlw	2
  9041  112C  0279               	subwf	i1___xxtofl@exp,w
  9042  112D  1803               	skipnc
  9043  112E  2930               	goto	u586_21
  9044  112F  2931               	goto	u586_20
  9045  1130                     u586_21:	
  9046  1130  291C               	goto	i1l3389
  9047  1131                     u586_20:	
  9048  1131                     i1l843:	
  9049  1131  1879               	btfsc	i1___xxtofl@exp,0
  9050  1132  2934               	goto	u587_21
  9051  1133  2935               	goto	u587_20
  9052  1134                     u587_21:	
  9053  1134  293D               	goto	i1l844
  9054  1135                     u587_20:	
  9055  1135                     i1l3395:	
  9056  1135  30FF               	movlw	255
  9057  1136  05FA               	andwf	i1___xxtofl@arg,f
  9058  1137  30FF               	movlw	255
  9059  1138  05FB               	andwf	i1___xxtofl@arg+1,f
  9060  1139  307F               	movlw	127
  9061  113A  05FC               	andwf	i1___xxtofl@arg+2,f
  9062  113B  30FF               	movlw	255
  9063  113C  05FD               	andwf	i1___xxtofl@arg+3,f
  9064  113D                     i1l844:	
  9065  113D  1003               	clrc
  9066  113E  0CF9               	rrf	i1___xxtofl@exp,f
  9067  113F                     i1l3397:	
  9068  113F  0879               	movf	i1___xxtofl@exp,w
  9069  1140  00F4               	movwf	??i1___xxtofl
  9070  1141  01F5               	clrf	??i1___xxtofl+1
  9071  1142  01F6               	clrf	??i1___xxtofl+2
  9072  1143  01F7               	clrf	??i1___xxtofl+3
  9073  1144  3018               	movlw	24
  9074  1145                     u588_25:	
  9075  1145  1003               	clrc
  9076  1146  0DF4               	rlf	??i1___xxtofl,f
  9077  1147  0DF5               	rlf	??i1___xxtofl+1,f
  9078  1148  0DF6               	rlf	??i1___xxtofl+2,f
  9079  1149  0DF7               	rlf	??i1___xxtofl+3,f
  9080  114A                     u588_20:	
  9081  114A  3EFF               	addlw	-1
  9082  114B  1D03               	skipz
  9083  114C  2945               	goto	u588_25
  9084  114D  0874               	movf	??i1___xxtofl,w
  9085  114E  04FA               	iorwf	i1___xxtofl@arg,f
  9086  114F  0875               	movf	??i1___xxtofl+1,w
  9087  1150  04FB               	iorwf	i1___xxtofl@arg+1,f
  9088  1151  0876               	movf	??i1___xxtofl+2,w
  9089  1152  04FC               	iorwf	i1___xxtofl@arg+2,f
  9090  1153  0877               	movf	??i1___xxtofl+3,w
  9091  1154  04FD               	iorwf	i1___xxtofl@arg+3,f
  9092  1155                     i1l3399:	
  9093  1155  0878               	movf	i1___xxtofl@sign,w
  9094  1156  1903               	btfsc	3,2
  9095  1157  2959               	goto	u589_21
  9096  1158  295A               	goto	u589_20
  9097  1159                     u589_21:	
  9098  1159  295F               	goto	i1l3405
  9099  115A                     u589_20:	
  9100  115A                     i1l3401:	
  9101  115A  1FF3               	btfss	i1___xxtofl@val+3,7
  9102  115B  295D               	goto	u590_21
  9103  115C  295E               	goto	u590_20
  9104  115D                     u590_21:	
  9105  115D  295F               	goto	i1l3405
  9106  115E                     u590_20:	
  9107  115E                     i1l3403:	
  9108  115E  17FD               	bsf	i1___xxtofl@arg+3,7
  9109  115F                     i1l3405:	
  9110  115F  087D               	movf	i1___xxtofl@arg+3,w
  9111  1160  00F3               	movwf	?i1___xxtofl+3
  9112  1161  087C               	movf	i1___xxtofl@arg+2,w
  9113  1162  00F2               	movwf	?i1___xxtofl+2
  9114  1163  087B               	movf	i1___xxtofl@arg+1,w
  9115  1164  00F1               	movwf	?i1___xxtofl+1
  9116  1165  087A               	movf	i1___xxtofl@arg,w
  9117  1166  00F0               	movwf	?i1___xxtofl
  9118  1167                     i1l832:	
  9119  1167  0008               	return
  9120  1168                     __end_ofi1___xxtofl:	
  9121                           
  9122                           	psect	text34
  9123  1F84                     __ptext34:	
  9124 ;; *************** function i1___fltol *****************
  9125 ;; Defined at:
  9126 ;;		line 43 in file "C:\Program Files (x86)\Microchip\xc8\v2.10\pic\sources\c90\common\fltol.c"
  9127 ;; Parameters:    Size  Location     Type
  9128 ;;  f1              4   46[BANK0 ] unsigned char 
  9129 ;; Auto vars:     Size  Location     Type
  9130 ;;  __fltol         1   56[BANK0 ] unsigned char 
  9131 ;;  __fltol         1   55[BANK0 ] unsigned char 
  9132 ;; Return value:  Size  Location     Type
  9133 ;;                  4   46[BANK0 ] long 
  9134 ;; Registers used:
  9135 ;;		wreg, status,2, status,0
  9136 ;; Tracked objects:
  9137 ;;		On entry : 0/0
  9138 ;;		On exit  : 0/0
  9139 ;;		Unchanged: 0/0
  9140 ;; Data sizes:     COMMON   BANK0   BANK1   BANK3   BANK2
  9141 ;;      Params:         0       4       0       0       0
  9142 ;;      Locals:         0       2       0       0       0
  9143 ;;      Temps:          0       5       0       0       0
  9144 ;;      Totals:         0      11       0       0       0
  9145 ;;Total ram usage:       11 bytes
  9146 ;; Hardware stack levels used:    1
  9147 ;; This function calls:
  9148 ;;		Nothing
  9149 ;; This function is called by:
  9150 ;;		_adc_read_0
  9151 ;; This function uses a non-reentrant model
  9152 ;;
  9153                           
  9154                           
  9155                           ;psect for function i1___fltol
  9156  1F84                     i1___fltol:	
  9157  1F84                     i1l2995:	
  9158                           ;incstack = 0
  9159                           ; Regs used in i1___fltol: [wreg+status,2+status,0]
  9160                           
  9161  1F84  1003               	clrc
  9162  1F85  1283               	bcf	3,5	;RP0=0, select bank0
  9163  1F86  1303               	bcf	3,6	;RP1=0, select bank0
  9164  1F87  0D50               	rlf	i1___fltol@f1+2,w
  9165  1F88  0D51               	rlf	i1___fltol@f1+3,w
  9166  1F89  00D2               	movwf	??i1___fltol
  9167  1F8A  0852               	movf	??i1___fltol,w
  9168  1F8B  00D8               	movwf	i1___fltol@exp1
  9169  1F8C  0858               	movf	i1___fltol@exp1,w
  9170  1F8D  1D03               	btfss	3,2
  9171  1F8E  2F90               	goto	u484_21
  9172  1F8F  2F91               	goto	u484_20
  9173  1F90                     u484_21:	
  9174  1F90  2F9A               	goto	i1l3001
  9175  1F91                     u484_20:	
  9176  1F91                     i1l2997:	
  9177  1F91  3000               	movlw	0
  9178  1F92  00D1               	movwf	?i1___fltol+3
  9179  1F93  3000               	movlw	0
  9180  1F94  00D0               	movwf	?i1___fltol+2
  9181  1F95  3000               	movlw	0
  9182  1F96  00CF               	movwf	?i1___fltol+1
  9183  1F97  3000               	movlw	0
  9184  1F98  00CE               	movwf	?i1___fltol
  9185  1F99  2FFF               	goto	i1l589
  9186  1F9A                     i1l3001:	
  9187  1F9A  084E               	movf	i1___fltol@f1,w
  9188  1F9B  00D2               	movwf	??i1___fltol
  9189  1F9C  084F               	movf	i1___fltol@f1+1,w
  9190  1F9D  00D3               	movwf	??i1___fltol+1
  9191  1F9E  0850               	movf	i1___fltol@f1+2,w
  9192  1F9F  00D4               	movwf	??i1___fltol+2
  9193  1FA0  0851               	movf	i1___fltol@f1+3,w
  9194  1FA1  00D5               	movwf	??i1___fltol+3
  9195  1FA2  301F               	movlw	31
  9196  1FA3                     u485_25:	
  9197  1FA3  1003               	clrc
  9198  1FA4  0CD5               	rrf	??i1___fltol+3,f
  9199  1FA5  0CD4               	rrf	??i1___fltol+2,f
  9200  1FA6  0CD3               	rrf	??i1___fltol+1,f
  9201  1FA7  0CD2               	rrf	??i1___fltol,f
  9202  1FA8                     u485_20:	
  9203  1FA8  3EFF               	addlw	-1
  9204  1FA9  1D03               	skipz
  9205  1FAA  2FA3               	goto	u485_25
  9206  1FAB  0852               	movf	??i1___fltol,w
  9207  1FAC  00D6               	movwf	??i1___fltol+4
  9208  1FAD  0856               	movf	??i1___fltol+4,w
  9209  1FAE  00D7               	movwf	i1___fltol@sign1
  9210  1FAF                     i1l3003:	
  9211  1FAF  17D0               	bsf	i1___fltol@f1+2,7
  9212  1FB0                     i1l3005:	
  9213  1FB0  30FF               	movlw	255
  9214  1FB1  05CE               	andwf	i1___fltol@f1,f
  9215  1FB2  30FF               	movlw	255
  9216  1FB3  05CF               	andwf	i1___fltol@f1+1,f
  9217  1FB4  30FF               	movlw	255
  9218  1FB5  05D0               	andwf	i1___fltol@f1+2,f
  9219  1FB6  3000               	movlw	0
  9220  1FB7  05D1               	andwf	i1___fltol@f1+3,f
  9221  1FB8                     i1l3007:	
  9222  1FB8  3096               	movlw	150
  9223  1FB9  02D8               	subwf	i1___fltol@exp1,f
  9224  1FBA                     i1l3009:	
  9225  1FBA  1FD8               	btfss	i1___fltol@exp1,7
  9226  1FBB  2FBD               	goto	u486_21
  9227  1FBC  2FBE               	goto	u486_20
  9228  1FBD                     u486_21:	
  9229  1FBD  2FD8               	goto	i1l3019
  9230  1FBE                     u486_20:	
  9231  1FBE                     i1l3011:	
  9232  1FBE  0858               	movf	i1___fltol@exp1,w
  9233  1FBF  3A80               	xorlw	128
  9234  1FC0  3E97               	addlw	151
  9235  1FC1  1803               	skipnc
  9236  1FC2  2FC4               	goto	u487_21
  9237  1FC3  2FC5               	goto	u487_20
  9238  1FC4                     u487_21:	
  9239  1FC4  2FC6               	goto	i1l3017
  9240  1FC5                     u487_20:	
  9241  1FC5  2F91               	goto	i1l2997
  9242  1FC6                     i1l3017:	
  9243  1FC6  3001               	movlw	1
  9244  1FC7                     u488_25:	
  9245  1FC7  1003               	clrc
  9246  1FC8  0CD1               	rrf	i1___fltol@f1+3,f
  9247  1FC9  0CD0               	rrf	i1___fltol@f1+2,f
  9248  1FCA  0CCF               	rrf	i1___fltol@f1+1,f
  9249  1FCB  0CCE               	rrf	i1___fltol@f1,f
  9250  1FCC  3EFF               	addlw	-1
  9251  1FCD  1D03               	skipz
  9252  1FCE  2FC7               	goto	u488_25
  9253  1FCF  3001               	movlw	1
  9254  1FD0  00D2               	movwf	??i1___fltol
  9255  1FD1  0852               	movf	??i1___fltol,w
  9256  1FD2  07D8               	addwf	i1___fltol@exp1,f
  9257  1FD3  1D03               	btfss	3,2
  9258  1FD4  2FD6               	goto	u489_21
  9259  1FD5  2FD7               	goto	u489_20
  9260  1FD6                     u489_21:	
  9261  1FD6  2FC6               	goto	i1l3017
  9262  1FD7                     u489_20:	
  9263  1FD7  2FEF               	goto	i1l3027
  9264  1FD8                     i1l3019:	
  9265  1FD8  3020               	movlw	32
  9266  1FD9  0258               	subwf	i1___fltol@exp1,w
  9267  1FDA  1C03               	skipc
  9268  1FDB  2FDD               	goto	u490_21
  9269  1FDC  2FDE               	goto	u490_20
  9270  1FDD                     u490_21:	
  9271  1FDD  2FEA               	goto	i1l596
  9272  1FDE                     u490_20:	
  9273  1FDE  2F91               	goto	i1l2997
  9274  1FDF                     i1l3025:	
  9275  1FDF  3001               	movlw	1
  9276  1FE0  00D2               	movwf	??i1___fltol
  9277  1FE1                     u491_25:	
  9278  1FE1  1003               	clrc
  9279  1FE2  0DCE               	rlf	i1___fltol@f1,f
  9280  1FE3  0DCF               	rlf	i1___fltol@f1+1,f
  9281  1FE4  0DD0               	rlf	i1___fltol@f1+2,f
  9282  1FE5  0DD1               	rlf	i1___fltol@f1+3,f
  9283  1FE6  0BD2               	decfsz	??i1___fltol,f
  9284  1FE7  2FE1               	goto	u491_25
  9285  1FE8  3001               	movlw	1
  9286  1FE9  02D8               	subwf	i1___fltol@exp1,f
  9287  1FEA                     i1l596:	
  9288  1FEA  0858               	movf	i1___fltol@exp1,w
  9289  1FEB  1D03               	btfss	3,2
  9290  1FEC  2FEE               	goto	u492_21
  9291  1FED  2FEF               	goto	u492_20
  9292  1FEE                     u492_21:	
  9293  1FEE  2FDF               	goto	i1l3025
  9294  1FEF                     u492_20:	
  9295  1FEF                     i1l3027:	
  9296  1FEF  0857               	movf	i1___fltol@sign1,w
  9297  1FF0  1903               	btfsc	3,2
  9298  1FF1  2FF3               	goto	u493_21
  9299  1FF2  2FF4               	goto	u493_20
  9300  1FF3                     u493_21:	
  9301  1FF3  2FFF               	goto	i1l599
  9302  1FF4                     u493_20:	
  9303  1FF4                     i1l3029:	
  9304  1FF4  09CE               	comf	i1___fltol@f1,f
  9305  1FF5  09CF               	comf	i1___fltol@f1+1,f
  9306  1FF6  09D0               	comf	i1___fltol@f1+2,f
  9307  1FF7  09D1               	comf	i1___fltol@f1+3,f
  9308  1FF8  0ACE               	incf	i1___fltol@f1,f
  9309  1FF9  1903               	skipnz
  9310  1FFA  0ACF               	incf	i1___fltol@f1+1,f
  9311  1FFB  1903               	skipnz
  9312  1FFC  0AD0               	incf	i1___fltol@f1+2,f
  9313  1FFD  1903               	skipnz
  9314  1FFE  0AD1               	incf	i1___fltol@f1+3,f
  9315  1FFF                     i1l599:	
  9316  1FFF                     i1l589:	
  9317  1FFF  0008               	return
  9318  2000                     __end_ofi1___fltol:	
  9319                           
  9320                           	psect	text35
  9321  0C9F                     __ptext35:	
  9322 ;; *************** function i1___flmul *****************
  9323 ;; Defined at:
  9324 ;;		line 8 in file "C:\Program Files (x86)\Microchip\xc8\v2.10\pic\sources\c90\common\sprcmul.c"
  9325 ;; Parameters:    Size  Location     Type
  9326 ;;  b               4    0[BANK0 ] long 
  9327 ;;  a               4    4[BANK0 ] long 
  9328 ;; Auto vars:     Size  Location     Type
  9329 ;;  __flmul         4   20[BANK0 ] struct .
  9330 ;;  __flmul         4   14[BANK0 ] unsigned long 
  9331 ;;  __flmul         2   24[BANK0 ] struct .
  9332 ;;  __flmul         1   19[BANK0 ] unsigned char 
  9333 ;;  __flmul         1   18[BANK0 ] unsigned char 
  9334 ;;  __flmul         1   13[BANK0 ] unsigned char 
  9335 ;; Return value:  Size  Location     Type
  9336 ;;                  4    0[BANK0 ] unsigned char 
  9337 ;; Registers used:
  9338 ;;		wreg, status,2, status,0, btemp+1, pclath, cstack
  9339 ;; Tracked objects:
  9340 ;;		On entry : 0/0
  9341 ;;		On exit  : 0/0
  9342 ;;		Unchanged: 0/0
  9343 ;; Data sizes:     COMMON   BANK0   BANK1   BANK3   BANK2
  9344 ;;      Params:         0       8       0       0       0
  9345 ;;      Locals:         0      13       0       0       0
  9346 ;;      Temps:          0       5       0       0       0
  9347 ;;      Totals:         0      26       0       0       0
  9348 ;;Total ram usage:       26 bytes
  9349 ;; Hardware stack levels used:    1
  9350 ;; Hardware stack levels required when called:    1
  9351 ;; This function calls:
  9352 ;;		i1__Umul8_16
  9353 ;; This function is called by:
  9354 ;;		_adc_read_0
  9355 ;; This function uses a non-reentrant model
  9356 ;;
  9357                           
  9358                           
  9359                           ;psect for function i1___flmul
  9360  0C9F                     i1___flmul:	
  9361  0C9F                     i1l3225:	
  9362                           ;incstack = 0
  9363                           ; Regs used in i1___flmul: [wreg+status,2+status,0+btemp+1+pclath+cstack]
  9364                           
  9365  0C9F  1283               	bcf	3,5	;RP0=0, select bank0
  9366  0CA0  1303               	bcf	3,6	;RP1=0, select bank0
  9367  0CA1  0823               	movf	i1___flmul@b+3,w
  9368  0CA2  3980               	andlw	128
  9369  0CA3  00A8               	movwf	??i1___flmul
  9370  0CA4  0828               	movf	??i1___flmul,w
  9371  0CA5  00AD               	movwf	i1___flmul@sign
  9372  0CA6                     i1l3227:	
  9373  0CA6  0823               	movf	i1___flmul@b+3,w
  9374  0CA7  00A8               	movwf	??i1___flmul
  9375  0CA8  0728               	addwf	??i1___flmul,w
  9376  0CA9  00A9               	movwf	??i1___flmul+1
  9377  0CAA  0829               	movf	??i1___flmul+1,w
  9378  0CAB  00B3               	movwf	i1___flmul@bexp
  9379  0CAC                     i1l3229:	
  9380  0CAC  1FA2               	btfss	i1___flmul@b+2,7
  9381  0CAD  2CAF               	goto	u540_21
  9382  0CAE  2CB0               	goto	u540_20
  9383  0CAF                     u540_21:	
  9384  0CAF  2CB1               	goto	i1l3233
  9385  0CB0                     u540_20:	
  9386  0CB0                     i1l3231:	
  9387  0CB0  1433               	bsf	i1___flmul@bexp,0
  9388  0CB1                     i1l3233:	
  9389  0CB1  0833               	movf	i1___flmul@bexp,w
  9390  0CB2  1903               	btfsc	3,2
  9391  0CB3  2CB5               	goto	u541_21
  9392  0CB4  2CB6               	goto	u541_20
  9393  0CB5                     u541_21:	
  9394  0CB5  2CC5               	goto	i1l3241
  9395  0CB6                     u541_20:	
  9396  0CB6                     i1l3235:	
  9397  0CB6  0A33               	incf	i1___flmul@bexp,w
  9398  0CB7  1D03               	btfss	3,2
  9399  0CB8  2CBA               	goto	u542_21
  9400  0CB9  2CBB               	goto	u542_20
  9401  0CBA                     u542_21:	
  9402  0CBA  2CC3               	goto	i1l3239
  9403  0CBB                     u542_20:	
  9404  0CBB                     i1l3237:	
  9405  0CBB  3000               	movlw	0
  9406  0CBC  00A3               	movwf	i1___flmul@b+3
  9407  0CBD  3000               	movlw	0
  9408  0CBE  00A2               	movwf	i1___flmul@b+2
  9409  0CBF  3000               	movlw	0
  9410  0CC0  00A1               	movwf	i1___flmul@b+1
  9411  0CC1  3000               	movlw	0
  9412  0CC2  00A0               	movwf	i1___flmul@b
  9413  0CC3                     i1l3239:	
  9414  0CC3  17A2               	bsf	i1___flmul@b+2,7
  9415  0CC4  2CCD               	goto	i1l3243
  9416  0CC5                     i1l3241:	
  9417  0CC5  3000               	movlw	0
  9418  0CC6  00A3               	movwf	i1___flmul@b+3
  9419  0CC7  3000               	movlw	0
  9420  0CC8  00A2               	movwf	i1___flmul@b+2
  9421  0CC9  3000               	movlw	0
  9422  0CCA  00A1               	movwf	i1___flmul@b+1
  9423  0CCB  3000               	movlw	0
  9424  0CCC  00A0               	movwf	i1___flmul@b
  9425  0CCD                     i1l3243:	
  9426  0CCD  0827               	movf	i1___flmul@a+3,w
  9427  0CCE  3980               	andlw	128
  9428  0CCF  00A8               	movwf	??i1___flmul
  9429  0CD0  0828               	movf	??i1___flmul,w
  9430  0CD1  06AD               	xorwf	i1___flmul@sign,f
  9431  0CD2                     i1l3245:	
  9432  0CD2  0827               	movf	i1___flmul@a+3,w
  9433  0CD3  00A8               	movwf	??i1___flmul
  9434  0CD4  0728               	addwf	??i1___flmul,w
  9435  0CD5  00A9               	movwf	??i1___flmul+1
  9436  0CD6  0829               	movf	??i1___flmul+1,w
  9437  0CD7  00B2               	movwf	i1___flmul@aexp
  9438  0CD8                     i1l3247:	
  9439  0CD8  1FA6               	btfss	i1___flmul@a+2,7
  9440  0CD9  2CDB               	goto	u543_21
  9441  0CDA  2CDC               	goto	u543_20
  9442  0CDB                     u543_21:	
  9443  0CDB  2CDD               	goto	i1l3251
  9444  0CDC                     u543_20:	
  9445  0CDC                     i1l3249:	
  9446  0CDC  1432               	bsf	i1___flmul@aexp,0
  9447  0CDD                     i1l3251:	
  9448  0CDD  0832               	movf	i1___flmul@aexp,w
  9449  0CDE  1903               	btfsc	3,2
  9450  0CDF  2CE1               	goto	u544_21
  9451  0CE0  2CE2               	goto	u544_20
  9452  0CE1                     u544_21:	
  9453  0CE1  2CF1               	goto	i1l3259
  9454  0CE2                     u544_20:	
  9455  0CE2                     i1l3253:	
  9456  0CE2  0A32               	incf	i1___flmul@aexp,w
  9457  0CE3  1D03               	btfss	3,2
  9458  0CE4  2CE6               	goto	u545_21
  9459  0CE5  2CE7               	goto	u545_20
  9460  0CE6                     u545_21:	
  9461  0CE6  2CEF               	goto	i1l3257
  9462  0CE7                     u545_20:	
  9463  0CE7                     i1l3255:	
  9464  0CE7  3000               	movlw	0
  9465  0CE8  00A7               	movwf	i1___flmul@a+3
  9466  0CE9  3000               	movlw	0
  9467  0CEA  00A6               	movwf	i1___flmul@a+2
  9468  0CEB  3000               	movlw	0
  9469  0CEC  00A5               	movwf	i1___flmul@a+1
  9470  0CED  3000               	movlw	0
  9471  0CEE  00A4               	movwf	i1___flmul@a
  9472  0CEF                     i1l3257:	
  9473  0CEF  17A6               	bsf	i1___flmul@a+2,7
  9474  0CF0  2CF9               	goto	i1l3261
  9475  0CF1                     i1l3259:	
  9476  0CF1  3000               	movlw	0
  9477  0CF2  00A7               	movwf	i1___flmul@a+3
  9478  0CF3  3000               	movlw	0
  9479  0CF4  00A6               	movwf	i1___flmul@a+2
  9480  0CF5  3000               	movlw	0
  9481  0CF6  00A5               	movwf	i1___flmul@a+1
  9482  0CF7  3000               	movlw	0
  9483  0CF8  00A4               	movwf	i1___flmul@a
  9484  0CF9                     i1l3261:	
  9485  0CF9  0832               	movf	i1___flmul@aexp,w
  9486  0CFA  1903               	btfsc	3,2
  9487  0CFB  2CFD               	goto	u546_21
  9488  0CFC  2CFE               	goto	u546_20
  9489  0CFD                     u546_21:	
  9490  0CFD  2D03               	goto	i1l3265
  9491  0CFE                     u546_20:	
  9492  0CFE                     i1l3263:	
  9493  0CFE  0833               	movf	i1___flmul@bexp,w
  9494  0CFF  1D03               	btfss	3,2
  9495  0D00  2D02               	goto	u547_21
  9496  0D01  2D03               	goto	u547_20
  9497  0D02                     u547_21:	
  9498  0D02  2D0C               	goto	i1l3269
  9499  0D03                     u547_20:	
  9500  0D03                     i1l3265:	
  9501  0D03  3000               	movlw	0
  9502  0D04  00A3               	movwf	?i1___flmul+3
  9503  0D05  3000               	movlw	0
  9504  0D06  00A2               	movwf	?i1___flmul+2
  9505  0D07  3000               	movlw	0
  9506  0D08  00A1               	movwf	?i1___flmul+1
  9507  0D09  3000               	movlw	0
  9508  0D0A  00A0               	movwf	?i1___flmul
  9509  0D0B  2FFF               	goto	i1l792
  9510  0D0C                     i1l3269:	
  9511  0D0C  0820               	movf	i1___flmul@b,w
  9512  0D0D  00A8               	movwf	??i1___flmul
  9513  0D0E  0828               	movf	??i1___flmul,w
  9514  0D0F  00F0               	movwf	i1__Umul8_16@multiplicand
  9515  0D10  0826               	movf	i1___flmul@a+2,w
  9516  0D11  160A  158A  24D1  120A  158A  	fcall	i1__Umul8_16
  9517  0D16  0871               	movf	?i1__Umul8_16+1,w
  9518  0D17  1283               	bcf	3,5	;RP0=0, select bank0
  9519  0D18  1303               	bcf	3,6	;RP1=0, select bank0
  9520  0D19  00B9               	movwf	i1___flmul@temp+1
  9521  0D1A  0870               	movf	?i1__Umul8_16,w
  9522  0D1B  00B8               	movwf	i1___flmul@temp
  9523  0D1C                     i1l3271:	
  9524  0D1C  0838               	movf	i1___flmul@temp,w
  9525  0D1D  00A8               	movwf	??i1___flmul
  9526  0D1E  01A9               	clrf	??i1___flmul+1
  9527  0D1F  01AA               	clrf	??i1___flmul+2
  9528  0D20  01AB               	clrf	??i1___flmul+3
  9529  0D21  082B               	movf	??i1___flmul+3,w
  9530  0D22  00B1               	movwf	i1___flmul@grs+3
  9531  0D23  082A               	movf	??i1___flmul+2,w
  9532  0D24  00B0               	movwf	i1___flmul@grs+2
  9533  0D25  0829               	movf	??i1___flmul+1,w
  9534  0D26  00AF               	movwf	i1___flmul@grs+1
  9535  0D27  0828               	movf	??i1___flmul,w
  9536  0D28  00AE               	movwf	i1___flmul@grs
  9537  0D29                     i1l3273:	
  9538  0D29  0839               	movf	i1___flmul@temp+1,w
  9539  0D2A  00A8               	movwf	??i1___flmul
  9540  0D2B  01A9               	clrf	??i1___flmul+1
  9541  0D2C  01AA               	clrf	??i1___flmul+2
  9542  0D2D  01AB               	clrf	??i1___flmul+3
  9543  0D2E  082B               	movf	??i1___flmul+3,w
  9544  0D2F  00B7               	movwf	i1___flmul@prod+3
  9545  0D30  082A               	movf	??i1___flmul+2,w
  9546  0D31  00B6               	movwf	i1___flmul@prod+2
  9547  0D32  0829               	movf	??i1___flmul+1,w
  9548  0D33  00B5               	movwf	i1___flmul@prod+1
  9549  0D34  0828               	movf	??i1___flmul,w
  9550  0D35  00B4               	movwf	i1___flmul@prod
  9551  0D36  0821               	movf	i1___flmul@b+1,w
  9552  0D37  00A8               	movwf	??i1___flmul
  9553  0D38  0828               	movf	??i1___flmul,w
  9554  0D39  00F0               	movwf	i1__Umul8_16@multiplicand
  9555  0D3A  0825               	movf	i1___flmul@a+1,w
  9556  0D3B  160A  158A  24D1  120A  158A  	fcall	i1__Umul8_16
  9557  0D40  0871               	movf	?i1__Umul8_16+1,w
  9558  0D41  1283               	bcf	3,5	;RP0=0, select bank0
  9559  0D42  1303               	bcf	3,6	;RP1=0, select bank0
  9560  0D43  00B9               	movwf	i1___flmul@temp+1
  9561  0D44  0870               	movf	?i1__Umul8_16,w
  9562  0D45  00B8               	movwf	i1___flmul@temp
  9563  0D46                     i1l3275:	
  9564  0D46  0838               	movf	i1___flmul@temp,w
  9565  0D47  00A8               	movwf	??i1___flmul
  9566  0D48  01A9               	clrf	??i1___flmul+1
  9567  0D49  01AA               	clrf	??i1___flmul+2
  9568  0D4A  01AB               	clrf	??i1___flmul+3
  9569  0D4B  0828               	movf	??i1___flmul,w
  9570  0D4C  07AE               	addwf	i1___flmul@grs,f
  9571  0D4D  0829               	movf	??i1___flmul+1,w
  9572  0D4E  1103               	clrz
  9573  0D4F  1803               	skipnc
  9574  0D50  3E01               	addlw	1
  9575  0D51  1903               	skipnz
  9576  0D52  2D54               	goto	u548_21
  9577  0D53  07AF               	addwf	i1___flmul@grs+1,f
  9578  0D54                     u548_21:	
  9579  0D54  082A               	movf	??i1___flmul+2,w
  9580  0D55  1103               	clrz
  9581  0D56  1803               	skipnc
  9582  0D57  3E01               	addlw	1
  9583  0D58  1903               	skipnz
  9584  0D59  2D5B               	goto	u548_22
  9585  0D5A  07B0               	addwf	i1___flmul@grs+2,f
  9586  0D5B                     u548_22:	
  9587  0D5B  082B               	movf	??i1___flmul+3,w
  9588  0D5C  1103               	clrz
  9589  0D5D  1803               	skipnc
  9590  0D5E  3E01               	addlw	1
  9591  0D5F  1903               	skipnz
  9592  0D60  2D62               	goto	u548_23
  9593  0D61  07B1               	addwf	i1___flmul@grs+3,f
  9594  0D62                     u548_23:	
  9595  0D62                     i1l3277:	
  9596  0D62  0839               	movf	i1___flmul@temp+1,w
  9597  0D63  00A8               	movwf	??i1___flmul
  9598  0D64  01A9               	clrf	??i1___flmul+1
  9599  0D65  01AA               	clrf	??i1___flmul+2
  9600  0D66  01AB               	clrf	??i1___flmul+3
  9601  0D67  0828               	movf	??i1___flmul,w
  9602  0D68  07B4               	addwf	i1___flmul@prod,f
  9603  0D69  0829               	movf	??i1___flmul+1,w
  9604  0D6A  1103               	clrz
  9605  0D6B  1803               	skipnc
  9606  0D6C  3E01               	addlw	1
  9607  0D6D  1903               	skipnz
  9608  0D6E  2D70               	goto	u549_21
  9609  0D6F  07B5               	addwf	i1___flmul@prod+1,f
  9610  0D70                     u549_21:	
  9611  0D70  082A               	movf	??i1___flmul+2,w
  9612  0D71  1103               	clrz
  9613  0D72  1803               	skipnc
  9614  0D73  3E01               	addlw	1
  9615  0D74  1903               	skipnz
  9616  0D75  2D77               	goto	u549_22
  9617  0D76  07B6               	addwf	i1___flmul@prod+2,f
  9618  0D77                     u549_22:	
  9619  0D77  082B               	movf	??i1___flmul+3,w
  9620  0D78  1103               	clrz
  9621  0D79  1803               	skipnc
  9622  0D7A  3E01               	addlw	1
  9623  0D7B  1903               	skipnz
  9624  0D7C  2D7E               	goto	u549_23
  9625  0D7D  07B7               	addwf	i1___flmul@prod+3,f
  9626  0D7E                     u549_23:	
  9627  0D7E  0822               	movf	i1___flmul@b+2,w
  9628  0D7F  00A8               	movwf	??i1___flmul
  9629  0D80  0828               	movf	??i1___flmul,w
  9630  0D81  00F0               	movwf	i1__Umul8_16@multiplicand
  9631  0D82  0824               	movf	i1___flmul@a,w
  9632  0D83  160A  158A  24D1  120A  158A  	fcall	i1__Umul8_16
  9633  0D88  0871               	movf	?i1__Umul8_16+1,w
  9634  0D89  1283               	bcf	3,5	;RP0=0, select bank0
  9635  0D8A  1303               	bcf	3,6	;RP1=0, select bank0
  9636  0D8B  00B9               	movwf	i1___flmul@temp+1
  9637  0D8C  0870               	movf	?i1__Umul8_16,w
  9638  0D8D  00B8               	movwf	i1___flmul@temp
  9639  0D8E                     i1l3279:	
  9640  0D8E  0838               	movf	i1___flmul@temp,w
  9641  0D8F  00A8               	movwf	??i1___flmul
  9642  0D90  01A9               	clrf	??i1___flmul+1
  9643  0D91  01AA               	clrf	??i1___flmul+2
  9644  0D92  01AB               	clrf	??i1___flmul+3
  9645  0D93  0828               	movf	??i1___flmul,w
  9646  0D94  07AE               	addwf	i1___flmul@grs,f
  9647  0D95  0829               	movf	??i1___flmul+1,w
  9648  0D96  1103               	clrz
  9649  0D97  1803               	skipnc
  9650  0D98  3E01               	addlw	1
  9651  0D99  1903               	skipnz
  9652  0D9A  2D9C               	goto	u550_21
  9653  0D9B  07AF               	addwf	i1___flmul@grs+1,f
  9654  0D9C                     u550_21:	
  9655  0D9C  082A               	movf	??i1___flmul+2,w
  9656  0D9D  1103               	clrz
  9657  0D9E  1803               	skipnc
  9658  0D9F  3E01               	addlw	1
  9659  0DA0  1903               	skipnz
  9660  0DA1  2DA3               	goto	u550_22
  9661  0DA2  07B0               	addwf	i1___flmul@grs+2,f
  9662  0DA3                     u550_22:	
  9663  0DA3  082B               	movf	??i1___flmul+3,w
  9664  0DA4  1103               	clrz
  9665  0DA5  1803               	skipnc
  9666  0DA6  3E01               	addlw	1
  9667  0DA7  1903               	skipnz
  9668  0DA8  2DAA               	goto	u550_23
  9669  0DA9  07B1               	addwf	i1___flmul@grs+3,f
  9670  0DAA                     u550_23:	
  9671  0DAA                     i1l3281:	
  9672  0DAA  0839               	movf	i1___flmul@temp+1,w
  9673  0DAB  00A8               	movwf	??i1___flmul
  9674  0DAC  01A9               	clrf	??i1___flmul+1
  9675  0DAD  01AA               	clrf	??i1___flmul+2
  9676  0DAE  01AB               	clrf	??i1___flmul+3
  9677  0DAF  0828               	movf	??i1___flmul,w
  9678  0DB0  07B4               	addwf	i1___flmul@prod,f
  9679  0DB1  0829               	movf	??i1___flmul+1,w
  9680  0DB2  1103               	clrz
  9681  0DB3  1803               	skipnc
  9682  0DB4  3E01               	addlw	1
  9683  0DB5  1903               	skipnz
  9684  0DB6  2DB8               	goto	u551_21
  9685  0DB7  07B5               	addwf	i1___flmul@prod+1,f
  9686  0DB8                     u551_21:	
  9687  0DB8  082A               	movf	??i1___flmul+2,w
  9688  0DB9  1103               	clrz
  9689  0DBA  1803               	skipnc
  9690  0DBB  3E01               	addlw	1
  9691  0DBC  1903               	skipnz
  9692  0DBD  2DBF               	goto	u551_22
  9693  0DBE  07B6               	addwf	i1___flmul@prod+2,f
  9694  0DBF                     u551_22:	
  9695  0DBF  082B               	movf	??i1___flmul+3,w
  9696  0DC0  1103               	clrz
  9697  0DC1  1803               	skipnc
  9698  0DC2  3E01               	addlw	1
  9699  0DC3  1903               	skipnz
  9700  0DC4  2DC6               	goto	u551_23
  9701  0DC5  07B7               	addwf	i1___flmul@prod+3,f
  9702  0DC6                     u551_23:	
  9703  0DC6                     i1l3283:	
  9704  0DC6  3008               	movlw	8
  9705  0DC7  00A8               	movwf	??i1___flmul
  9706  0DC8                     u552_25:	
  9707  0DC8  1003               	clrc
  9708  0DC9  0DAE               	rlf	i1___flmul@grs,f
  9709  0DCA  0DAF               	rlf	i1___flmul@grs+1,f
  9710  0DCB  0DB0               	rlf	i1___flmul@grs+2,f
  9711  0DCC  0DB1               	rlf	i1___flmul@grs+3,f
  9712  0DCD  0BA8               	decfsz	??i1___flmul,f
  9713  0DCE  2DC8               	goto	u552_25
  9714  0DCF                     i1l3285:	
  9715  0DCF  0821               	movf	i1___flmul@b+1,w
  9716  0DD0  00A8               	movwf	??i1___flmul
  9717  0DD1  0828               	movf	??i1___flmul,w
  9718  0DD2  00F0               	movwf	i1__Umul8_16@multiplicand
  9719  0DD3  0824               	movf	i1___flmul@a,w
  9720  0DD4  160A  158A  24D1  120A  158A  	fcall	i1__Umul8_16
  9721  0DD9  0871               	movf	?i1__Umul8_16+1,w
  9722  0DDA  1283               	bcf	3,5	;RP0=0, select bank0
  9723  0DDB  1303               	bcf	3,6	;RP1=0, select bank0
  9724  0DDC  00B9               	movwf	i1___flmul@temp+1
  9725  0DDD  0870               	movf	?i1__Umul8_16,w
  9726  0DDE  00B8               	movwf	i1___flmul@temp
  9727  0DDF                     i1l3287:	
  9728  0DDF  0838               	movf	i1___flmul@temp,w
  9729  0DE0  00A8               	movwf	??i1___flmul
  9730  0DE1  0839               	movf	i1___flmul@temp+1,w
  9731  0DE2  00A9               	movwf	??i1___flmul+1
  9732  0DE3  01AA               	clrf	??i1___flmul+2
  9733  0DE4  01AB               	clrf	??i1___flmul+3
  9734  0DE5  0828               	movf	??i1___flmul,w
  9735  0DE6  07AE               	addwf	i1___flmul@grs,f
  9736  0DE7  0829               	movf	??i1___flmul+1,w
  9737  0DE8  1103               	clrz
  9738  0DE9  1803               	skipnc
  9739  0DEA  3E01               	addlw	1
  9740  0DEB  1903               	skipnz
  9741  0DEC  2DEE               	goto	u553_21
  9742  0DED  07AF               	addwf	i1___flmul@grs+1,f
  9743  0DEE                     u553_21:	
  9744  0DEE  082A               	movf	??i1___flmul+2,w
  9745  0DEF  1103               	clrz
  9746  0DF0  1803               	skipnc
  9747  0DF1  3E01               	addlw	1
  9748  0DF2  1903               	skipnz
  9749  0DF3  2DF5               	goto	u553_22
  9750  0DF4  07B0               	addwf	i1___flmul@grs+2,f
  9751  0DF5                     u553_22:	
  9752  0DF5  082B               	movf	??i1___flmul+3,w
  9753  0DF6  1103               	clrz
  9754  0DF7  1803               	skipnc
  9755  0DF8  3E01               	addlw	1
  9756  0DF9  1903               	skipnz
  9757  0DFA  2DFC               	goto	u553_23
  9758  0DFB  07B1               	addwf	i1___flmul@grs+3,f
  9759  0DFC                     u553_23:	
  9760  0DFC                     i1l3289:	
  9761  0DFC  0820               	movf	i1___flmul@b,w
  9762  0DFD  00A8               	movwf	??i1___flmul
  9763  0DFE  0828               	movf	??i1___flmul,w
  9764  0DFF  00F0               	movwf	i1__Umul8_16@multiplicand
  9765  0E00  0825               	movf	i1___flmul@a+1,w
  9766  0E01  160A  158A  24D1  120A  158A  	fcall	i1__Umul8_16
  9767  0E06  0871               	movf	?i1__Umul8_16+1,w
  9768  0E07  1283               	bcf	3,5	;RP0=0, select bank0
  9769  0E08  1303               	bcf	3,6	;RP1=0, select bank0
  9770  0E09  00B9               	movwf	i1___flmul@temp+1
  9771  0E0A  0870               	movf	?i1__Umul8_16,w
  9772  0E0B  00B8               	movwf	i1___flmul@temp
  9773  0E0C                     i1l3291:	
  9774  0E0C  0838               	movf	i1___flmul@temp,w
  9775  0E0D  00A8               	movwf	??i1___flmul
  9776  0E0E  0839               	movf	i1___flmul@temp+1,w
  9777  0E0F  00A9               	movwf	??i1___flmul+1
  9778  0E10  01AA               	clrf	??i1___flmul+2
  9779  0E11  01AB               	clrf	??i1___flmul+3
  9780  0E12  0828               	movf	??i1___flmul,w
  9781  0E13  07AE               	addwf	i1___flmul@grs,f
  9782  0E14  0829               	movf	??i1___flmul+1,w
  9783  0E15  1103               	clrz
  9784  0E16  1803               	skipnc
  9785  0E17  3E01               	addlw	1
  9786  0E18  1903               	skipnz
  9787  0E19  2E1B               	goto	u554_21
  9788  0E1A  07AF               	addwf	i1___flmul@grs+1,f
  9789  0E1B                     u554_21:	
  9790  0E1B  082A               	movf	??i1___flmul+2,w
  9791  0E1C  1103               	clrz
  9792  0E1D  1803               	skipnc
  9793  0E1E  3E01               	addlw	1
  9794  0E1F  1903               	skipnz
  9795  0E20  2E22               	goto	u554_22
  9796  0E21  07B0               	addwf	i1___flmul@grs+2,f
  9797  0E22                     u554_22:	
  9798  0E22  082B               	movf	??i1___flmul+3,w
  9799  0E23  1103               	clrz
  9800  0E24  1803               	skipnc
  9801  0E25  3E01               	addlw	1
  9802  0E26  1903               	skipnz
  9803  0E27  2E29               	goto	u554_23
  9804  0E28  07B1               	addwf	i1___flmul@grs+3,f
  9805  0E29                     u554_23:	
  9806  0E29                     i1l3293:	
  9807  0E29  3008               	movlw	8
  9808  0E2A  00A8               	movwf	??i1___flmul
  9809  0E2B                     u555_25:	
  9810  0E2B  1003               	clrc
  9811  0E2C  0DAE               	rlf	i1___flmul@grs,f
  9812  0E2D  0DAF               	rlf	i1___flmul@grs+1,f
  9813  0E2E  0DB0               	rlf	i1___flmul@grs+2,f
  9814  0E2F  0DB1               	rlf	i1___flmul@grs+3,f
  9815  0E30  0BA8               	decfsz	??i1___flmul,f
  9816  0E31  2E2B               	goto	u555_25
  9817  0E32  0820               	movf	i1___flmul@b,w
  9818  0E33  00A8               	movwf	??i1___flmul
  9819  0E34  0828               	movf	??i1___flmul,w
  9820  0E35  00F0               	movwf	i1__Umul8_16@multiplicand
  9821  0E36  0824               	movf	i1___flmul@a,w
  9822  0E37  160A  158A  24D1  120A  158A  	fcall	i1__Umul8_16
  9823  0E3C  0871               	movf	?i1__Umul8_16+1,w
  9824  0E3D  1283               	bcf	3,5	;RP0=0, select bank0
  9825  0E3E  1303               	bcf	3,6	;RP1=0, select bank0
  9826  0E3F  00B9               	movwf	i1___flmul@temp+1
  9827  0E40  0870               	movf	?i1__Umul8_16,w
  9828  0E41  00B8               	movwf	i1___flmul@temp
  9829  0E42                     i1l3295:	
  9830  0E42  0838               	movf	i1___flmul@temp,w
  9831  0E43  00A8               	movwf	??i1___flmul
  9832  0E44  0839               	movf	i1___flmul@temp+1,w
  9833  0E45  00A9               	movwf	??i1___flmul+1
  9834  0E46  01AA               	clrf	??i1___flmul+2
  9835  0E47  01AB               	clrf	??i1___flmul+3
  9836  0E48  0828               	movf	??i1___flmul,w
  9837  0E49  07AE               	addwf	i1___flmul@grs,f
  9838  0E4A  0829               	movf	??i1___flmul+1,w
  9839  0E4B  1103               	clrz
  9840  0E4C  1803               	skipnc
  9841  0E4D  3E01               	addlw	1
  9842  0E4E  1903               	skipnz
  9843  0E4F  2E51               	goto	u556_21
  9844  0E50  07AF               	addwf	i1___flmul@grs+1,f
  9845  0E51                     u556_21:	
  9846  0E51  082A               	movf	??i1___flmul+2,w
  9847  0E52  1103               	clrz
  9848  0E53  1803               	skipnc
  9849  0E54  3E01               	addlw	1
  9850  0E55  1903               	skipnz
  9851  0E56  2E58               	goto	u556_22
  9852  0E57  07B0               	addwf	i1___flmul@grs+2,f
  9853  0E58                     u556_22:	
  9854  0E58  082B               	movf	??i1___flmul+3,w
  9855  0E59  1103               	clrz
  9856  0E5A  1803               	skipnc
  9857  0E5B  3E01               	addlw	1
  9858  0E5C  1903               	skipnz
  9859  0E5D  2E5F               	goto	u556_23
  9860  0E5E  07B1               	addwf	i1___flmul@grs+3,f
  9861  0E5F                     u556_23:	
  9862  0E5F                     i1l3297:	
  9863  0E5F  0821               	movf	i1___flmul@b+1,w
  9864  0E60  00A8               	movwf	??i1___flmul
  9865  0E61  0828               	movf	??i1___flmul,w
  9866  0E62  00F0               	movwf	i1__Umul8_16@multiplicand
  9867  0E63  0826               	movf	i1___flmul@a+2,w
  9868  0E64  160A  158A  24D1  120A  158A  	fcall	i1__Umul8_16
  9869  0E69  0871               	movf	?i1__Umul8_16+1,w
  9870  0E6A  1283               	bcf	3,5	;RP0=0, select bank0
  9871  0E6B  1303               	bcf	3,6	;RP1=0, select bank0
  9872  0E6C  00B9               	movwf	i1___flmul@temp+1
  9873  0E6D  0870               	movf	?i1__Umul8_16,w
  9874  0E6E  00B8               	movwf	i1___flmul@temp
  9875  0E6F  0838               	movf	i1___flmul@temp,w
  9876  0E70  00A8               	movwf	??i1___flmul
  9877  0E71  0839               	movf	i1___flmul@temp+1,w
  9878  0E72  00A9               	movwf	??i1___flmul+1
  9879  0E73  01AA               	clrf	??i1___flmul+2
  9880  0E74  01AB               	clrf	??i1___flmul+3
  9881  0E75  0828               	movf	??i1___flmul,w
  9882  0E76  07B4               	addwf	i1___flmul@prod,f
  9883  0E77  0829               	movf	??i1___flmul+1,w
  9884  0E78  1103               	clrz
  9885  0E79  1803               	skipnc
  9886  0E7A  3E01               	addlw	1
  9887  0E7B  1903               	skipnz
  9888  0E7C  2E7E               	goto	u557_21
  9889  0E7D  07B5               	addwf	i1___flmul@prod+1,f
  9890  0E7E                     u557_21:	
  9891  0E7E  082A               	movf	??i1___flmul+2,w
  9892  0E7F  1103               	clrz
  9893  0E80  1803               	skipnc
  9894  0E81  3E01               	addlw	1
  9895  0E82  1903               	skipnz
  9896  0E83  2E85               	goto	u557_22
  9897  0E84  07B6               	addwf	i1___flmul@prod+2,f
  9898  0E85                     u557_22:	
  9899  0E85  082B               	movf	??i1___flmul+3,w
  9900  0E86  1103               	clrz
  9901  0E87  1803               	skipnc
  9902  0E88  3E01               	addlw	1
  9903  0E89  1903               	skipnz
  9904  0E8A  2E8C               	goto	u557_23
  9905  0E8B  07B7               	addwf	i1___flmul@prod+3,f
  9906  0E8C                     u557_23:	
  9907  0E8C                     i1l3299:	
  9908  0E8C  0822               	movf	i1___flmul@b+2,w
  9909  0E8D  00A8               	movwf	??i1___flmul
  9910  0E8E  0828               	movf	??i1___flmul,w
  9911  0E8F  00F0               	movwf	i1__Umul8_16@multiplicand
  9912  0E90  0825               	movf	i1___flmul@a+1,w
  9913  0E91  160A  158A  24D1  120A  158A  	fcall	i1__Umul8_16
  9914  0E96  0871               	movf	?i1__Umul8_16+1,w
  9915  0E97  1283               	bcf	3,5	;RP0=0, select bank0
  9916  0E98  1303               	bcf	3,6	;RP1=0, select bank0
  9917  0E99  00B9               	movwf	i1___flmul@temp+1
  9918  0E9A  0870               	movf	?i1__Umul8_16,w
  9919  0E9B  00B8               	movwf	i1___flmul@temp
  9920  0E9C                     i1l3301:	
  9921  0E9C  0838               	movf	i1___flmul@temp,w
  9922  0E9D  00A8               	movwf	??i1___flmul
  9923  0E9E  0839               	movf	i1___flmul@temp+1,w
  9924  0E9F  00A9               	movwf	??i1___flmul+1
  9925  0EA0  01AA               	clrf	??i1___flmul+2
  9926  0EA1  01AB               	clrf	??i1___flmul+3
  9927  0EA2  0828               	movf	??i1___flmul,w
  9928  0EA3  07B4               	addwf	i1___flmul@prod,f
  9929  0EA4  0829               	movf	??i1___flmul+1,w
  9930  0EA5  1103               	clrz
  9931  0EA6  1803               	skipnc
  9932  0EA7  3E01               	addlw	1
  9933  0EA8  1903               	skipnz
  9934  0EA9  2EAB               	goto	u558_21
  9935  0EAA  07B5               	addwf	i1___flmul@prod+1,f
  9936  0EAB                     u558_21:	
  9937  0EAB  082A               	movf	??i1___flmul+2,w
  9938  0EAC  1103               	clrz
  9939  0EAD  1803               	skipnc
  9940  0EAE  3E01               	addlw	1
  9941  0EAF  1903               	skipnz
  9942  0EB0  2EB2               	goto	u558_22
  9943  0EB1  07B6               	addwf	i1___flmul@prod+2,f
  9944  0EB2                     u558_22:	
  9945  0EB2  082B               	movf	??i1___flmul+3,w
  9946  0EB3  1103               	clrz
  9947  0EB4  1803               	skipnc
  9948  0EB5  3E01               	addlw	1
  9949  0EB6  1903               	skipnz
  9950  0EB7  2EB9               	goto	u558_23
  9951  0EB8  07B7               	addwf	i1___flmul@prod+3,f
  9952  0EB9                     u558_23:	
  9953  0EB9  0822               	movf	i1___flmul@b+2,w
  9954  0EBA  00A8               	movwf	??i1___flmul
  9955  0EBB  0828               	movf	??i1___flmul,w
  9956  0EBC  00F0               	movwf	i1__Umul8_16@multiplicand
  9957  0EBD  0826               	movf	i1___flmul@a+2,w
  9958  0EBE  160A  158A  24D1  120A  158A  	fcall	i1__Umul8_16
  9959  0EC3  0871               	movf	?i1__Umul8_16+1,w
  9960  0EC4  1283               	bcf	3,5	;RP0=0, select bank0
  9961  0EC5  1303               	bcf	3,6	;RP1=0, select bank0
  9962  0EC6  00B9               	movwf	i1___flmul@temp+1
  9963  0EC7  0870               	movf	?i1__Umul8_16,w
  9964  0EC8  00B8               	movwf	i1___flmul@temp
  9965  0EC9                     i1l3303:	
  9966  0EC9  0838               	movf	i1___flmul@temp,w
  9967  0ECA  00A8               	movwf	??i1___flmul
  9968  0ECB  0839               	movf	i1___flmul@temp+1,w
  9969  0ECC  00A9               	movwf	??i1___flmul+1
  9970  0ECD  01AA               	clrf	??i1___flmul+2
  9971  0ECE  01AB               	clrf	??i1___flmul+3
  9972  0ECF  3008               	movlw	8
  9973  0ED0                     u559_25:	
  9974  0ED0  1003               	clrc
  9975  0ED1  0DA8               	rlf	??i1___flmul,f
  9976  0ED2  0DA9               	rlf	??i1___flmul+1,f
  9977  0ED3  0DAA               	rlf	??i1___flmul+2,f
  9978  0ED4  0DAB               	rlf	??i1___flmul+3,f
  9979  0ED5                     u559_20:	
  9980  0ED5  3EFF               	addlw	-1
  9981  0ED6  1D03               	skipz
  9982  0ED7  2ED0               	goto	u559_25
  9983  0ED8  0828               	movf	??i1___flmul,w
  9984  0ED9  07B4               	addwf	i1___flmul@prod,f
  9985  0EDA  0829               	movf	??i1___flmul+1,w
  9986  0EDB  1103               	clrz
  9987  0EDC  1803               	skipnc
  9988  0EDD  3E01               	addlw	1
  9989  0EDE  1903               	skipnz
  9990  0EDF  2EE1               	goto	u560_21
  9991  0EE0  07B5               	addwf	i1___flmul@prod+1,f
  9992  0EE1                     u560_21:	
  9993  0EE1  082A               	movf	??i1___flmul+2,w
  9994  0EE2  1103               	clrz
  9995  0EE3  1803               	skipnc
  9996  0EE4  3E01               	addlw	1
  9997  0EE5  1903               	skipnz
  9998  0EE6  2EE8               	goto	u560_22
  9999  0EE7  07B6               	addwf	i1___flmul@prod+2,f
 10000  0EE8                     u560_22:	
 10001  0EE8  082B               	movf	??i1___flmul+3,w
 10002  0EE9  1103               	clrz
 10003  0EEA  1803               	skipnc
 10004  0EEB  3E01               	addlw	1
 10005  0EEC  1903               	skipnz
 10006  0EED  2EEF               	goto	u560_23
 10007  0EEE  07B7               	addwf	i1___flmul@prod+3,f
 10008  0EEF                     u560_23:	
 10009  0EEF                     i1l3305:	
 10010  0EEF  082E               	movf	i1___flmul@grs,w
 10011  0EF0  00A8               	movwf	??i1___flmul
 10012  0EF1  082F               	movf	i1___flmul@grs+1,w
 10013  0EF2  00A9               	movwf	??i1___flmul+1
 10014  0EF3  0830               	movf	i1___flmul@grs+2,w
 10015  0EF4  00AA               	movwf	??i1___flmul+2
 10016  0EF5  0831               	movf	i1___flmul@grs+3,w
 10017  0EF6  00AB               	movwf	??i1___flmul+3
 10018  0EF7  3018               	movlw	24
 10019  0EF8                     u561_25:	
 10020  0EF8  1003               	clrc
 10021  0EF9  0CAB               	rrf	??i1___flmul+3,f
 10022  0EFA  0CAA               	rrf	??i1___flmul+2,f
 10023  0EFB  0CA9               	rrf	??i1___flmul+1,f
 10024  0EFC  0CA8               	rrf	??i1___flmul,f
 10025  0EFD                     u561_20:	
 10026  0EFD  3EFF               	addlw	-1
 10027  0EFE  1D03               	skipz
 10028  0EFF  2EF8               	goto	u561_25
 10029  0F00  0828               	movf	??i1___flmul,w
 10030  0F01  07B4               	addwf	i1___flmul@prod,f
 10031  0F02  0829               	movf	??i1___flmul+1,w
 10032  0F03  1103               	clrz
 10033  0F04  1803               	skipnc
 10034  0F05  3E01               	addlw	1
 10035  0F06  1903               	skipnz
 10036  0F07  2F09               	goto	u562_21
 10037  0F08  07B5               	addwf	i1___flmul@prod+1,f
 10038  0F09                     u562_21:	
 10039  0F09  082A               	movf	??i1___flmul+2,w
 10040  0F0A  1103               	clrz
 10041  0F0B  1803               	skipnc
 10042  0F0C  3E01               	addlw	1
 10043  0F0D  1903               	skipnz
 10044  0F0E  2F10               	goto	u562_22
 10045  0F0F  07B6               	addwf	i1___flmul@prod+2,f
 10046  0F10                     u562_22:	
 10047  0F10  082B               	movf	??i1___flmul+3,w
 10048  0F11  1103               	clrz
 10049  0F12  1803               	skipnc
 10050  0F13  3E01               	addlw	1
 10051  0F14  1903               	skipnz
 10052  0F15  2F17               	goto	u562_23
 10053  0F16  07B7               	addwf	i1___flmul@prod+3,f
 10054  0F17                     u562_23:	
 10055  0F17                     i1l3307:	
 10056  0F17  3008               	movlw	8
 10057  0F18  00A8               	movwf	??i1___flmul
 10058  0F19                     u563_25:	
 10059  0F19  1003               	clrc
 10060  0F1A  0DAE               	rlf	i1___flmul@grs,f
 10061  0F1B  0DAF               	rlf	i1___flmul@grs+1,f
 10062  0F1C  0DB0               	rlf	i1___flmul@grs+2,f
 10063  0F1D  0DB1               	rlf	i1___flmul@grs+3,f
 10064  0F1E  0BA8               	decfsz	??i1___flmul,f
 10065  0F1F  2F19               	goto	u563_25
 10066  0F20                     i1l3309:	
 10067  0F20  0833               	movf	i1___flmul@bexp,w
 10068  0F21  0732               	addwf	i1___flmul@aexp,w
 10069  0F22  00A8               	movwf	??i1___flmul
 10070  0F23  01A9               	clrf	??i1___flmul+1
 10071  0F24  0DA9               	rlf	??i1___flmul+1,f
 10072  0F25  0828               	movf	??i1___flmul,w
 10073  0F26  3E82               	addlw	130
 10074  0F27  00B8               	movwf	i1___flmul@temp
 10075  0F28  0829               	movf	??i1___flmul+1,w
 10076  0F29  1803               	skipnc
 10077  0F2A  3E01               	addlw	1
 10078  0F2B  3EFF               	addlw	255
 10079  0F2C  00B9               	movwf	i1___flmul@temp+1
 10080  0F2D  2F4B               	goto	i1l3321
 10081  0F2E                     i1l3311:	
 10082  0F2E  3001               	movlw	1
 10083  0F2F  00A8               	movwf	??i1___flmul
 10084  0F30                     u564_25:	
 10085  0F30  1003               	clrc
 10086  0F31  0DB4               	rlf	i1___flmul@prod,f
 10087  0F32  0DB5               	rlf	i1___flmul@prod+1,f
 10088  0F33  0DB6               	rlf	i1___flmul@prod+2,f
 10089  0F34  0DB7               	rlf	i1___flmul@prod+3,f
 10090  0F35  0BA8               	decfsz	??i1___flmul,f
 10091  0F36  2F30               	goto	u564_25
 10092  0F37                     i1l3313:	
 10093  0F37  1FB1               	btfss	i1___flmul@grs+3,7
 10094  0F38  2F3A               	goto	u565_21
 10095  0F39  2F3B               	goto	u565_20
 10096  0F3A                     u565_21:	
 10097  0F3A  2F3C               	goto	i1l3317
 10098  0F3B                     u565_20:	
 10099  0F3B                     i1l3315:	
 10100  0F3B  1434               	bsf	i1___flmul@prod,0
 10101  0F3C                     i1l3317:	
 10102  0F3C  3001               	movlw	1
 10103  0F3D  00A8               	movwf	??i1___flmul
 10104  0F3E                     u566_25:	
 10105  0F3E  1003               	clrc
 10106  0F3F  0DAE               	rlf	i1___flmul@grs,f
 10107  0F40  0DAF               	rlf	i1___flmul@grs+1,f
 10108  0F41  0DB0               	rlf	i1___flmul@grs+2,f
 10109  0F42  0DB1               	rlf	i1___flmul@grs+3,f
 10110  0F43  0BA8               	decfsz	??i1___flmul,f
 10111  0F44  2F3E               	goto	u566_25
 10112  0F45                     i1l3319:	
 10113  0F45  30FF               	movlw	255
 10114  0F46  07B8               	addwf	i1___flmul@temp,f
 10115  0F47  1803               	skipnc
 10116  0F48  0AB9               	incf	i1___flmul@temp+1,f
 10117  0F49  30FF               	movlw	255
 10118  0F4A  07B9               	addwf	i1___flmul@temp+1,f
 10119  0F4B                     i1l3321:	
 10120  0F4B  1FB6               	btfss	i1___flmul@prod+2,7
 10121  0F4C  2F4E               	goto	u567_21
 10122  0F4D  2F4F               	goto	u567_20
 10123  0F4E                     u567_21:	
 10124  0F4E  2F2E               	goto	i1l3311
 10125  0F4F                     u567_20:	
 10126  0F4F                     i1l3323:	
 10127  0F4F  01B2               	clrf	i1___flmul@aexp
 10128  0F50                     i1l3325:	
 10129  0F50  1FB1               	btfss	i1___flmul@grs+3,7
 10130  0F51  2F53               	goto	u568_21
 10131  0F52  2F54               	goto	u568_20
 10132  0F53                     u568_21:	
 10133  0F53  2F70               	goto	i1l3333
 10134  0F54                     u568_20:	
 10135  0F54                     i1l3327:	
 10136  0F54  30FF               	movlw	255
 10137  0F55  052E               	andwf	i1___flmul@grs,w
 10138  0F56  00A8               	movwf	??i1___flmul
 10139  0F57  30FF               	movlw	255
 10140  0F58  052F               	andwf	i1___flmul@grs+1,w
 10141  0F59  00A9               	movwf	??i1___flmul+1
 10142  0F5A  30FF               	movlw	255
 10143  0F5B  0530               	andwf	i1___flmul@grs+2,w
 10144  0F5C  00AA               	movwf	??i1___flmul+2
 10145  0F5D  307F               	movlw	127
 10146  0F5E  0531               	andwf	i1___flmul@grs+3,w
 10147  0F5F  00AB               	movwf	??i1___flmul+3
 10148  0F60  082B               	movf	??i1___flmul+3,w
 10149  0F61  042A               	iorwf	??i1___flmul+2,w
 10150  0F62  0429               	iorwf	??i1___flmul+1,w
 10151  0F63  0428               	iorwf	??i1___flmul,w
 10152  0F64  1903               	skipnz
 10153  0F65  2F67               	goto	u569_21
 10154  0F66  2F68               	goto	u569_20
 10155  0F67                     u569_21:	
 10156  0F67  2F6B               	goto	i1l798
 10157  0F68                     u569_20:	
 10158  0F68                     i1l3329:	
 10159  0F68  01B2               	clrf	i1___flmul@aexp
 10160  0F69  0AB2               	incf	i1___flmul@aexp,f
 10161  0F6A  2F70               	goto	i1l3333
 10162  0F6B                     i1l798:	
 10163  0F6B  1C34               	btfss	i1___flmul@prod,0
 10164  0F6C  2F6E               	goto	u570_21
 10165  0F6D  2F6F               	goto	u570_20
 10166  0F6E                     u570_21:	
 10167  0F6E  2F70               	goto	i1l3333
 10168  0F6F                     u570_20:	
 10169  0F6F  2F68               	goto	i1l3329
 10170  0F70                     i1l3333:	
 10171  0F70  0832               	movf	i1___flmul@aexp,w
 10172  0F71  1903               	btfsc	3,2
 10173  0F72  2F74               	goto	u571_21
 10174  0F73  2F75               	goto	u571_20
 10175  0F74                     u571_21:	
 10176  0F74  2FA6               	goto	i1l3343
 10177  0F75                     u571_20:	
 10178  0F75                     i1l3335:	
 10179  0F75  3001               	movlw	1
 10180  0F76  07B4               	addwf	i1___flmul@prod,f
 10181  0F77  3000               	movlw	0
 10182  0F78  1803               	skipnc
 10183  0F79  3001               	movlw	1
 10184  0F7A  07B5               	addwf	i1___flmul@prod+1,f
 10185  0F7B  3000               	movlw	0
 10186  0F7C  1803               	skipnc
 10187  0F7D  3001               	movlw	1
 10188  0F7E  07B6               	addwf	i1___flmul@prod+2,f
 10189  0F7F  3000               	movlw	0
 10190  0F80  1803               	skipnc
 10191  0F81  3001               	movlw	1
 10192  0F82  07B7               	addwf	i1___flmul@prod+3,f
 10193  0F83                     i1l3337:	
 10194  0F83  1C37               	btfss	i1___flmul@prod+3,0
 10195  0F84  2F86               	goto	u572_21
 10196  0F85  2F87               	goto	u572_20
 10197  0F86                     u572_21:	
 10198  0F86  2FA6               	goto	i1l3343
 10199  0F87                     u572_20:	
 10200  0F87                     i1l3339:	
 10201  0F87  0834               	movf	i1___flmul@prod,w
 10202  0F88  00A8               	movwf	??i1___flmul
 10203  0F89  0835               	movf	i1___flmul@prod+1,w
 10204  0F8A  00A9               	movwf	??i1___flmul+1
 10205  0F8B  0836               	movf	i1___flmul@prod+2,w
 10206  0F8C  00AA               	movwf	??i1___flmul+2
 10207  0F8D  0837               	movf	i1___flmul@prod+3,w
 10208  0F8E  00AB               	movwf	??i1___flmul+3
 10209  0F8F  3001               	movlw	1
 10210  0F90  00AC               	movwf	??i1___flmul+4
 10211  0F91                     u573_25:	
 10212  0F91  0D2B               	rlf	??i1___flmul+3,w
 10213  0F92  0CAB               	rrf	??i1___flmul+3,f
 10214  0F93  0CAA               	rrf	??i1___flmul+2,f
 10215  0F94  0CA9               	rrf	??i1___flmul+1,f
 10216  0F95  0CA8               	rrf	??i1___flmul,f
 10217  0F96                     u573_20:	
 10218  0F96  0BAC               	decfsz	??i1___flmul+4,f
 10219  0F97  2F91               	goto	u573_25
 10220  0F98  082B               	movf	??i1___flmul+3,w
 10221  0F99  00B7               	movwf	i1___flmul@prod+3
 10222  0F9A  082A               	movf	??i1___flmul+2,w
 10223  0F9B  00B6               	movwf	i1___flmul@prod+2
 10224  0F9C  0829               	movf	??i1___flmul+1,w
 10225  0F9D  00B5               	movwf	i1___flmul@prod+1
 10226  0F9E  0828               	movf	??i1___flmul,w
 10227  0F9F  00B4               	movwf	i1___flmul@prod
 10228  0FA0                     i1l3341:	
 10229  0FA0  3001               	movlw	1
 10230  0FA1  07B8               	addwf	i1___flmul@temp,f
 10231  0FA2  1803               	skipnc
 10232  0FA3  0AB9               	incf	i1___flmul@temp+1,f
 10233  0FA4  3000               	movlw	0
 10234  0FA5  07B9               	addwf	i1___flmul@temp+1,f
 10235  0FA6                     i1l3343:	
 10236  0FA6  0839               	movf	i1___flmul@temp+1,w
 10237  0FA7  3A80               	xorlw	128
 10238  0FA8  00FF               	movwf	btemp+1
 10239  0FA9  3080               	movlw	128
 10240  0FAA  027F               	subwf	btemp+1,w
 10241  0FAB  1D03               	skipz
 10242  0FAC  2FAF               	goto	u574_25
 10243  0FAD  30FF               	movlw	255
 10244  0FAE  0238               	subwf	i1___flmul@temp,w
 10245  0FAF                     u574_25:	
 10246  0FAF  1C03               	skipc
 10247  0FB0  2FB2               	goto	u574_21
 10248  0FB1  2FB3               	goto	u574_20
 10249  0FB2                     u574_21:	
 10250  0FB2  2FBE               	goto	i1l3347
 10251  0FB3                     u574_20:	
 10252  0FB3                     i1l3345:	
 10253  0FB3  307F               	movlw	127
 10254  0FB4  1283               	bcf	3,5	;RP0=0, select bank0
 10255  0FB5  1303               	bcf	3,6	;RP1=0, select bank0
 10256  0FB6  00B7               	movwf	i1___flmul@prod+3
 10257  0FB7  3080               	movlw	128
 10258  0FB8  00B6               	movwf	i1___flmul@prod+2
 10259  0FB9  3000               	movlw	0
 10260  0FBA  00B5               	movwf	i1___flmul@prod+1
 10261  0FBB  3000               	movlw	0
 10262  0FBC  00B4               	movwf	i1___flmul@prod
 10263  0FBD  2FF3               	goto	i1l804
 10264  0FBE                     i1l3347:	
 10265  0FBE  1283               	bcf	3,5	;RP0=0, select bank0
 10266  0FBF  1303               	bcf	3,6	;RP1=0, select bank0
 10267  0FC0  0839               	movf	i1___flmul@temp+1,w
 10268  0FC1  3A80               	xorlw	128
 10269  0FC2  00FF               	movwf	btemp+1
 10270  0FC3  3080               	movlw	128
 10271  0FC4  027F               	subwf	btemp+1,w
 10272  0FC5  1D03               	skipz
 10273  0FC6  2FC9               	goto	u575_25
 10274  0FC7  3001               	movlw	1
 10275  0FC8  0238               	subwf	i1___flmul@temp,w
 10276  0FC9                     u575_25:	
 10277  0FC9  1803               	skipnc
 10278  0FCA  2FCC               	goto	u575_21
 10279  0FCB  2FCD               	goto	u575_20
 10280  0FCC                     u575_21:	
 10281  0FCC  2FD9               	goto	i1l3353
 10282  0FCD                     u575_20:	
 10283  0FCD                     i1l3349:	
 10284  0FCD  3000               	movlw	0
 10285  0FCE  1283               	bcf	3,5	;RP0=0, select bank0
 10286  0FCF  1303               	bcf	3,6	;RP1=0, select bank0
 10287  0FD0  00B7               	movwf	i1___flmul@prod+3
 10288  0FD1  3000               	movlw	0
 10289  0FD2  00B6               	movwf	i1___flmul@prod+2
 10290  0FD3  3000               	movlw	0
 10291  0FD4  00B5               	movwf	i1___flmul@prod+1
 10292  0FD5  3000               	movlw	0
 10293  0FD6  00B4               	movwf	i1___flmul@prod
 10294  0FD7                     i1l3351:	
 10295  0FD7  01AD               	clrf	i1___flmul@sign
 10296  0FD8  2FF3               	goto	i1l804
 10297  0FD9                     i1l3353:	
 10298  0FD9  1283               	bcf	3,5	;RP0=0, select bank0
 10299  0FDA  1303               	bcf	3,6	;RP1=0, select bank0
 10300  0FDB  0838               	movf	i1___flmul@temp,w
 10301  0FDC  00A8               	movwf	??i1___flmul
 10302  0FDD  0828               	movf	??i1___flmul,w
 10303  0FDE  00B3               	movwf	i1___flmul@bexp
 10304  0FDF  30FF               	movlw	255
 10305  0FE0  05B4               	andwf	i1___flmul@prod,f
 10306  0FE1  30FF               	movlw	255
 10307  0FE2  05B5               	andwf	i1___flmul@prod+1,f
 10308  0FE3  307F               	movlw	127
 10309  0FE4  05B6               	andwf	i1___flmul@prod+2,f
 10310  0FE5  3000               	movlw	0
 10311  0FE6  05B7               	andwf	i1___flmul@prod+3,f
 10312  0FE7                     i1l3355:	
 10313  0FE7  1C33               	btfss	i1___flmul@bexp,0
 10314  0FE8  2FEA               	goto	u576_21
 10315  0FE9  2FEB               	goto	u576_20
 10316  0FEA                     u576_21:	
 10317  0FEA  2FEC               	goto	i1l3359
 10318  0FEB                     u576_20:	
 10319  0FEB                     i1l3357:	
 10320  0FEB  17B6               	bsf	i1___flmul@prod+2,7
 10321  0FEC                     i1l3359:	
 10322  0FEC  0833               	movf	i1___flmul@bexp,w
 10323  0FED  00A8               	movwf	??i1___flmul
 10324  0FEE  1003               	clrc
 10325  0FEF  0C28               	rrf	??i1___flmul,w
 10326  0FF0  00A9               	movwf	??i1___flmul+1
 10327  0FF1  0829               	movf	??i1___flmul+1,w
 10328  0FF2  00B7               	movwf	i1___flmul@prod+3
 10329  0FF3                     i1l804:	
 10330  0FF3  082D               	movf	i1___flmul@sign,w
 10331  0FF4  00A8               	movwf	??i1___flmul
 10332  0FF5  0828               	movf	??i1___flmul,w
 10333  0FF6  04B7               	iorwf	i1___flmul@prod+3,f
 10334  0FF7                     i1l3361:	
 10335  0FF7  0837               	movf	i1___flmul@prod+3,w
 10336  0FF8  00A3               	movwf	?i1___flmul+3
 10337  0FF9  0836               	movf	i1___flmul@prod+2,w
 10338  0FFA  00A2               	movwf	?i1___flmul+2
 10339  0FFB  0835               	movf	i1___flmul@prod+1,w
 10340  0FFC  00A1               	movwf	?i1___flmul+1
 10341  0FFD  0834               	movf	i1___flmul@prod,w
 10342  0FFE  00A0               	movwf	?i1___flmul
 10343  0FFF                     i1l792:	
 10344  0FFF  0008               	return
 10345  1000                     __end_ofi1___flmul:	
 10346                           
 10347                           	psect	text36
 10348  1CD1                     __ptext36:	
 10349 ;; *************** function i1__Umul8_16 *****************
 10350 ;; Defined at:
 10351 ;;		line 4 in file "C:\Program Files (x86)\Microchip\xc8\v2.10\pic\sources\c90\common\Umul8_16.c"
 10352 ;; Parameters:    Size  Location     Type
 10353 ;;  multiplier      1    wreg     unsigned char 
 10354 ;;  multiplicand    1    0[COMMON] unsigned char 
 10355 ;; Auto vars:     Size  Location     Type
 10356 ;;  multiplier      1    8[COMMON] unsigned char 
 10357 ;;  _Umul8_16       2    6[COMMON] unsigned int 
 10358 ;;  _Umul8_16       2    4[COMMON] unsigned int 
 10359 ;; Return value:  Size  Location     Type
 10360 ;;                  2    0[COMMON] unsigned int 
 10361 ;; Registers used:
 10362 ;;		wreg, status,2, status,0
 10363 ;; Tracked objects:
 10364 ;;		On entry : 0/0
 10365 ;;		On exit  : 0/0
 10366 ;;		Unchanged: 0/0
 10367 ;; Data sizes:     COMMON   BANK0   BANK1   BANK3   BANK2
 10368 ;;      Params:         2       0       0       0       0
 10369 ;;      Locals:         5       0       0       0       0
 10370 ;;      Temps:          2       0       0       0       0
 10371 ;;      Totals:         9       0       0       0       0
 10372 ;;Total ram usage:        9 bytes
 10373 ;; Hardware stack levels used:    1
 10374 ;; This function calls:
 10375 ;;		Nothing
 10376 ;; This function is called by:
 10377 ;;		i1___flmul
 10378 ;; This function uses a non-reentrant model
 10379 ;;
 10380                           
 10381                           
 10382                           ;psect for function i1__Umul8_16
 10383  1CD1                     i1__Umul8_16:	
 10384                           
 10385                           ;incstack = 0
 10386                           ; Regs used in i1__Umul8_16: [wreg+status,2+status,0]
 10387                           ;i1__Umul8_16@multiplier stored from wreg
 10388  1CD1  00F8               	movwf	i1__Umul8_16@multiplier
 10389  1CD2                     i1l2347:	
 10390  1CD2  01F4               	clrf	i1__Umul8_16@product
 10391  1CD3  01F5               	clrf	i1__Umul8_16@product+1
 10392  1CD4                     i1l2349:	
 10393  1CD4  0870               	movf	i1__Umul8_16@multiplicand,w
 10394  1CD5  00F2               	movwf	??i1__Umul8_16
 10395  1CD6  01F3               	clrf	??i1__Umul8_16+1
 10396  1CD7  0872               	movf	??i1__Umul8_16,w
 10397  1CD8  00F6               	movwf	i1__Umul8_16@word_mpld
 10398  1CD9  0873               	movf	??i1__Umul8_16+1,w
 10399  1CDA  00F7               	movwf	i1__Umul8_16@word_mpld+1
 10400  1CDB                     i1l2351:	
 10401  1CDB  1C78               	btfss	i1__Umul8_16@multiplier,0
 10402  1CDC  2CDE               	goto	u326_21
 10403  1CDD  2CDF               	goto	u326_20
 10404  1CDE                     u326_21:	
 10405  1CDE  2CE5               	goto	i1l853
 10406  1CDF                     u326_20:	
 10407  1CDF                     i1l2353:	
 10408  1CDF  0876               	movf	i1__Umul8_16@word_mpld,w
 10409  1CE0  07F4               	addwf	i1__Umul8_16@product,f
 10410  1CE1  1803               	skipnc
 10411  1CE2  0AF5               	incf	i1__Umul8_16@product+1,f
 10412  1CE3  0877               	movf	i1__Umul8_16@word_mpld+1,w
 10413  1CE4  07F5               	addwf	i1__Umul8_16@product+1,f
 10414  1CE5                     i1l853:	
 10415  1CE5  3001               	movlw	1
 10416  1CE6                     u327_25:	
 10417  1CE6  1003               	clrc
 10418  1CE7  0DF6               	rlf	i1__Umul8_16@word_mpld,f
 10419  1CE8  0DF7               	rlf	i1__Umul8_16@word_mpld+1,f
 10420  1CE9  3EFF               	addlw	-1
 10421  1CEA  1D03               	skipz
 10422  1CEB  2CE6               	goto	u327_25
 10423  1CEC  1003               	clrc
 10424  1CED  0CF8               	rrf	i1__Umul8_16@multiplier,f
 10425  1CEE                     i1l2355:	
 10426  1CEE  0878               	movf	i1__Umul8_16@multiplier,w
 10427  1CEF  1D03               	btfss	3,2
 10428  1CF0  2CF2               	goto	u328_21
 10429  1CF1  2CF3               	goto	u328_20
 10430  1CF2                     u328_21:	
 10431  1CF2  2CDB               	goto	i1l2351
 10432  1CF3                     u328_20:	
 10433  1CF3                     i1l2357:	
 10434  1CF3  0875               	movf	i1__Umul8_16@product+1,w
 10435  1CF4  00F1               	movwf	?i1__Umul8_16+1
 10436  1CF5  0874               	movf	i1__Umul8_16@product,w
 10437  1CF6  00F0               	movwf	?i1__Umul8_16
 10438  1CF7                     i1l855:	
 10439  1CF7  0008               	return
 10440  1CF8                     __end_ofi1__Umul8_16:	
 10441                           
 10442                           	psect	text37
 10443  0A17                     __ptext37:	
 10444 ;; *************** function i1___fladd *****************
 10445 ;; Defined at:
 10446 ;;		line 10 in file "C:\Program Files (x86)\Microchip\xc8\v2.10\pic\sources\c90\common\sprcadd.c"
 10447 ;; Parameters:    Size  Location     Type
 10448 ;;  b               4   26[BANK0 ] unsigned int 
 10449 ;;  a               4   30[BANK0 ] unsigned int 
 10450 ;; Auto vars:     Size  Location     Type
 10451 ;;  __fladd         1   45[BANK0 ] unsigned char 
 10452 ;;  __fladd         1   44[BANK0 ] unsigned char 
 10453 ;;  __fladd         1   43[BANK0 ] unsigned char 
 10454 ;;  __fladd         1   42[BANK0 ] unsigned char 
 10455 ;; Return value:  Size  Location     Type
 10456 ;;                  4   26[BANK0 ] unsigned char 
 10457 ;; Registers used:
 10458 ;;		wreg, status,2, status,0, btemp+1
 10459 ;; Tracked objects:
 10460 ;;		On entry : 0/0
 10461 ;;		On exit  : 0/0
 10462 ;;		Unchanged: 0/0
 10463 ;; Data sizes:     COMMON   BANK0   BANK1   BANK3   BANK2
 10464 ;;      Params:         0       8       0       0       0
 10465 ;;      Locals:         0       4       0       0       0
 10466 ;;      Temps:          0       8       0       0       0
 10467 ;;      Totals:         0      20       0       0       0
 10468 ;;Total ram usage:       20 bytes
 10469 ;; Hardware stack levels used:    1
 10470 ;; This function calls:
 10471 ;;		Nothing
 10472 ;; This function is called by:
 10473 ;;		_adc_read_0
 10474 ;; This function uses a non-reentrant model
 10475 ;;
 10476                           
 10477                           
 10478                           ;psect for function i1___fladd
 10479  0A17                     i1___fladd:	
 10480  0A17                     i1l3031:	
 10481                           ;incstack = 0
 10482                           ; Regs used in i1___fladd: [wreg+status,2+status,0+btemp+1]
 10483                           
 10484  0A17  1283               	bcf	3,5	;RP0=0, select bank0
 10485  0A18  1303               	bcf	3,6	;RP1=0, select bank0
 10486  0A19  083D               	movf	i1___fladd@b+3,w
 10487  0A1A  3980               	andlw	128
 10488  0A1B  00C2               	movwf	??i1___fladd
 10489  0A1C  0842               	movf	??i1___fladd,w
 10490  0A1D  00CA               	movwf	i1___fladd@signs
 10491  0A1E                     i1l3033:	
 10492  0A1E  083D               	movf	i1___fladd@b+3,w
 10493  0A1F  00C2               	movwf	??i1___fladd
 10494  0A20  0742               	addwf	??i1___fladd,w
 10495  0A21  00C3               	movwf	??i1___fladd+1
 10496  0A22  0843               	movf	??i1___fladd+1,w
 10497  0A23  00CC               	movwf	i1___fladd@bexp
 10498  0A24                     i1l3035:	
 10499  0A24  1FBC               	btfss	i1___fladd@b+2,7
 10500  0A25  2A27               	goto	u494_21
 10501  0A26  2A28               	goto	u494_20
 10502  0A27                     u494_21:	
 10503  0A27  2A29               	goto	i1l3039
 10504  0A28                     u494_20:	
 10505  0A28                     i1l3037:	
 10506  0A28  144C               	bsf	i1___fladd@bexp,0
 10507  0A29                     i1l3039:	
 10508  0A29  084C               	movf	i1___fladd@bexp,w
 10509  0A2A  1903               	btfsc	3,2
 10510  0A2B  2A2D               	goto	u495_21
 10511  0A2C  2A2E               	goto	u495_20
 10512  0A2D                     u495_21:	
 10513  0A2D  2A3E               	goto	i1l3049
 10514  0A2E                     u495_20:	
 10515  0A2E                     i1l3041:	
 10516  0A2E  0A4C               	incf	i1___fladd@bexp,w
 10517  0A2F  1D03               	btfss	3,2
 10518  0A30  2A32               	goto	u496_21
 10519  0A31  2A33               	goto	u496_20
 10520  0A32                     u496_21:	
 10521  0A32  2A3B               	goto	i1l3045
 10522  0A33                     u496_20:	
 10523  0A33                     i1l3043:	
 10524  0A33  3000               	movlw	0
 10525  0A34  00BD               	movwf	i1___fladd@b+3
 10526  0A35  3000               	movlw	0
 10527  0A36  00BC               	movwf	i1___fladd@b+2
 10528  0A37  3000               	movlw	0
 10529  0A38  00BB               	movwf	i1___fladd@b+1
 10530  0A39  3000               	movlw	0
 10531  0A3A  00BA               	movwf	i1___fladd@b
 10532  0A3B                     i1l3045:	
 10533  0A3B  17BC               	bsf	i1___fladd@b+2,7
 10534  0A3C                     i1l3047:	
 10535  0A3C  01BD               	clrf	i1___fladd@b+3
 10536  0A3D  2A46               	goto	i1l3051
 10537  0A3E                     i1l3049:	
 10538  0A3E  3000               	movlw	0
 10539  0A3F  00BD               	movwf	i1___fladd@b+3
 10540  0A40  3000               	movlw	0
 10541  0A41  00BC               	movwf	i1___fladd@b+2
 10542  0A42  3000               	movlw	0
 10543  0A43  00BB               	movwf	i1___fladd@b+1
 10544  0A44  3000               	movlw	0
 10545  0A45  00BA               	movwf	i1___fladd@b
 10546  0A46                     i1l3051:	
 10547  0A46  0841               	movf	i1___fladd@a+3,w
 10548  0A47  3980               	andlw	128
 10549  0A48  00C2               	movwf	??i1___fladd
 10550  0A49  0842               	movf	??i1___fladd,w
 10551  0A4A  00CB               	movwf	i1___fladd@aexp
 10552  0A4B                     i1l3053:	
 10553  0A4B  084B               	movf	i1___fladd@aexp,w
 10554  0A4C  064A               	xorwf	i1___fladd@signs,w
 10555  0A4D  1903               	skipnz
 10556  0A4E  2A50               	goto	u497_21
 10557  0A4F  2A51               	goto	u497_20
 10558  0A50                     u497_21:	
 10559  0A50  2A52               	goto	i1l3057
 10560  0A51                     u497_20:	
 10561  0A51                     i1l3055:	
 10562  0A51  174A               	bsf	i1___fladd@signs,6
 10563  0A52                     i1l3057:	
 10564  0A52  0841               	movf	i1___fladd@a+3,w
 10565  0A53  00C2               	movwf	??i1___fladd
 10566  0A54  0742               	addwf	??i1___fladd,w
 10567  0A55  00C3               	movwf	??i1___fladd+1
 10568  0A56  0843               	movf	??i1___fladd+1,w
 10569  0A57  00CB               	movwf	i1___fladd@aexp
 10570  0A58                     i1l3059:	
 10571  0A58  1FC0               	btfss	i1___fladd@a+2,7
 10572  0A59  2A5B               	goto	u498_21
 10573  0A5A  2A5C               	goto	u498_20
 10574  0A5B                     u498_21:	
 10575  0A5B  2A5D               	goto	i1l3063
 10576  0A5C                     u498_20:	
 10577  0A5C                     i1l3061:	
 10578  0A5C  144B               	bsf	i1___fladd@aexp,0
 10579  0A5D                     i1l3063:	
 10580  0A5D  084B               	movf	i1___fladd@aexp,w
 10581  0A5E  1903               	btfsc	3,2
 10582  0A5F  2A61               	goto	u499_21
 10583  0A60  2A62               	goto	u499_20
 10584  0A61                     u499_21:	
 10585  0A61  2A72               	goto	i1l3073
 10586  0A62                     u499_20:	
 10587  0A62                     i1l3065:	
 10588  0A62  0A4B               	incf	i1___fladd@aexp,w
 10589  0A63  1D03               	btfss	3,2
 10590  0A64  2A66               	goto	u500_21
 10591  0A65  2A67               	goto	u500_20
 10592  0A66                     u500_21:	
 10593  0A66  2A6F               	goto	i1l3069
 10594  0A67                     u500_20:	
 10595  0A67                     i1l3067:	
 10596  0A67  3000               	movlw	0
 10597  0A68  00C1               	movwf	i1___fladd@a+3
 10598  0A69  3000               	movlw	0
 10599  0A6A  00C0               	movwf	i1___fladd@a+2
 10600  0A6B  3000               	movlw	0
 10601  0A6C  00BF               	movwf	i1___fladd@a+1
 10602  0A6D  3000               	movlw	0
 10603  0A6E  00BE               	movwf	i1___fladd@a
 10604  0A6F                     i1l3069:	
 10605  0A6F  17C0               	bsf	i1___fladd@a+2,7
 10606  0A70                     i1l3071:	
 10607  0A70  01C1               	clrf	i1___fladd@a+3
 10608  0A71  2A7A               	goto	i1l696
 10609  0A72                     i1l3073:	
 10610  0A72  3000               	movlw	0
 10611  0A73  00C1               	movwf	i1___fladd@a+3
 10612  0A74  3000               	movlw	0
 10613  0A75  00C0               	movwf	i1___fladd@a+2
 10614  0A76  3000               	movlw	0
 10615  0A77  00BF               	movwf	i1___fladd@a+1
 10616  0A78  3000               	movlw	0
 10617  0A79  00BE               	movwf	i1___fladd@a
 10618  0A7A                     i1l696:	
 10619  0A7A  084C               	movf	i1___fladd@bexp,w
 10620  0A7B  024B               	subwf	i1___fladd@aexp,w
 10621  0A7C  1803               	skipnc
 10622  0A7D  2A7F               	goto	u501_21
 10623  0A7E  2A80               	goto	u501_20
 10624  0A7F                     u501_21:	
 10625  0A7F  2AC4               	goto	i1l3109
 10626  0A80                     u501_20:	
 10627  0A80                     i1l3075:	
 10628  0A80  1F4A               	btfss	i1___fladd@signs,6
 10629  0A81  2A83               	goto	u502_21
 10630  0A82  2A84               	goto	u502_20
 10631  0A83                     u502_21:	
 10632  0A83  2A88               	goto	i1l3079
 10633  0A84                     u502_20:	
 10634  0A84                     i1l3077:	
 10635  0A84  3080               	movlw	128
 10636  0A85  00C2               	movwf	??i1___fladd
 10637  0A86  0842               	movf	??i1___fladd,w
 10638  0A87  06CA               	xorwf	i1___fladd@signs,f
 10639  0A88                     i1l3079:	
 10640  0A88  084C               	movf	i1___fladd@bexp,w
 10641  0A89  00C2               	movwf	??i1___fladd
 10642  0A8A  0842               	movf	??i1___fladd,w
 10643  0A8B  00CD               	movwf	i1___fladd@grs
 10644  0A8C                     i1l3081:	
 10645  0A8C  084B               	movf	i1___fladd@aexp,w
 10646  0A8D  00C2               	movwf	??i1___fladd
 10647  0A8E  0842               	movf	??i1___fladd,w
 10648  0A8F  00CC               	movwf	i1___fladd@bexp
 10649  0A90                     i1l3083:	
 10650  0A90  084D               	movf	i1___fladd@grs,w
 10651  0A91  00C2               	movwf	??i1___fladd
 10652  0A92  0842               	movf	??i1___fladd,w
 10653  0A93  00CB               	movwf	i1___fladd@aexp
 10654  0A94                     i1l3085:	
 10655  0A94  083A               	movf	i1___fladd@b,w
 10656  0A95  00C2               	movwf	??i1___fladd
 10657  0A96  0842               	movf	??i1___fladd,w
 10658  0A97  00CD               	movwf	i1___fladd@grs
 10659  0A98                     i1l3087:	
 10660  0A98  083E               	movf	i1___fladd@a,w
 10661  0A99  00C2               	movwf	??i1___fladd
 10662  0A9A  0842               	movf	??i1___fladd,w
 10663  0A9B  00BA               	movwf	i1___fladd@b
 10664  0A9C                     i1l3089:	
 10665  0A9C  084D               	movf	i1___fladd@grs,w
 10666  0A9D  00C2               	movwf	??i1___fladd
 10667  0A9E  0842               	movf	??i1___fladd,w
 10668  0A9F  00BE               	movwf	i1___fladd@a
 10669  0AA0                     i1l3091:	
 10670  0AA0  083B               	movf	i1___fladd@b+1,w
 10671  0AA1  00C2               	movwf	??i1___fladd
 10672  0AA2  0842               	movf	??i1___fladd,w
 10673  0AA3  00CD               	movwf	i1___fladd@grs
 10674  0AA4                     i1l3093:	
 10675  0AA4  083F               	movf	i1___fladd@a+1,w
 10676  0AA5  00C2               	movwf	??i1___fladd
 10677  0AA6  0842               	movf	??i1___fladd,w
 10678  0AA7  00BB               	movwf	i1___fladd@b+1
 10679  0AA8                     i1l3095:	
 10680  0AA8  084D               	movf	i1___fladd@grs,w
 10681  0AA9  00C2               	movwf	??i1___fladd
 10682  0AAA  0842               	movf	??i1___fladd,w
 10683  0AAB  00BF               	movwf	i1___fladd@a+1
 10684  0AAC                     i1l3097:	
 10685  0AAC  083C               	movf	i1___fladd@b+2,w
 10686  0AAD  00C2               	movwf	??i1___fladd
 10687  0AAE  0842               	movf	??i1___fladd,w
 10688  0AAF  00CD               	movwf	i1___fladd@grs
 10689  0AB0                     i1l3099:	
 10690  0AB0  0840               	movf	i1___fladd@a+2,w
 10691  0AB1  00C2               	movwf	??i1___fladd
 10692  0AB2  0842               	movf	??i1___fladd,w
 10693  0AB3  00BC               	movwf	i1___fladd@b+2
 10694  0AB4                     i1l3101:	
 10695  0AB4  084D               	movf	i1___fladd@grs,w
 10696  0AB5  00C2               	movwf	??i1___fladd
 10697  0AB6  0842               	movf	??i1___fladd,w
 10698  0AB7  00C0               	movwf	i1___fladd@a+2
 10699  0AB8                     i1l3103:	
 10700  0AB8  083D               	movf	i1___fladd@b+3,w
 10701  0AB9  00C2               	movwf	??i1___fladd
 10702  0ABA  0842               	movf	??i1___fladd,w
 10703  0ABB  00CD               	movwf	i1___fladd@grs
 10704  0ABC                     i1l3105:	
 10705  0ABC  0841               	movf	i1___fladd@a+3,w
 10706  0ABD  00C2               	movwf	??i1___fladd
 10707  0ABE  0842               	movf	??i1___fladd,w
 10708  0ABF  00BD               	movwf	i1___fladd@b+3
 10709  0AC0                     i1l3107:	
 10710  0AC0  084D               	movf	i1___fladd@grs,w
 10711  0AC1  00C2               	movwf	??i1___fladd
 10712  0AC2  0842               	movf	??i1___fladd,w
 10713  0AC3  00C1               	movwf	i1___fladd@a+3
 10714  0AC4                     i1l3109:	
 10715  0AC4  01CD               	clrf	i1___fladd@grs
 10716  0AC5                     i1l3111:	
 10717  0AC5  084B               	movf	i1___fladd@aexp,w
 10718  0AC6  00C2               	movwf	??i1___fladd
 10719  0AC7  01C3               	clrf	??i1___fladd+1
 10720  0AC8  0843               	movf	??i1___fladd+1,w
 10721  0AC9  00C5               	movwf	??i1___fladd+3
 10722  0ACA  084C               	movf	i1___fladd@bexp,w
 10723  0ACB  0242               	subwf	??i1___fladd,w
 10724  0ACC  00C4               	movwf	??i1___fladd+2
 10725  0ACD  1C03               	skipc
 10726  0ACE  03C5               	decf	??i1___fladd+3,f
 10727  0ACF  0845               	movf	??i1___fladd+3,w
 10728  0AD0  3A80               	xorlw	128
 10729  0AD1  00FF               	movwf	btemp+1
 10730  0AD2  3080               	movlw	128
 10731  0AD3  027F               	subwf	btemp+1,w
 10732  0AD4  1D03               	skipz
 10733  0AD5  2AD8               	goto	u503_25
 10734  0AD6  301A               	movlw	26
 10735  0AD7  0244               	subwf	??i1___fladd+2,w
 10736  0AD8                     u503_25:	
 10737  0AD8  1C03               	skipc
 10738  0AD9  2ADB               	goto	u503_21
 10739  0ADA  2ADC               	goto	u503_20
 10740  0ADB                     u503_21:	
 10741  0ADB  2B19               	goto	i1l3127
 10742  0ADC                     u503_20:	
 10743  0ADC                     i1l3113:	
 10744  0ADC  1283               	bcf	3,5	;RP0=0, select bank0
 10745  0ADD  1303               	bcf	3,6	;RP1=0, select bank0
 10746  0ADE  083D               	movf	i1___fladd@b+3,w
 10747  0ADF  043C               	iorwf	i1___fladd@b+2,w
 10748  0AE0  043B               	iorwf	i1___fladd@b+1,w
 10749  0AE1  043A               	iorwf	i1___fladd@b,w
 10750  0AE2  1D03               	skipz
 10751  0AE3  2AE5               	goto	u504_21
 10752  0AE4  2AE7               	goto	u504_20
 10753  0AE5                     u504_21:	
 10754  0AE5  3001               	movlw	1
 10755  0AE6  2AE8               	goto	u505_20
 10756  0AE7                     u504_20:	
 10757  0AE7  3000               	movlw	0
 10758  0AE8                     u505_20:	
 10759  0AE8  00C2               	movwf	??i1___fladd
 10760  0AE9  0842               	movf	??i1___fladd,w
 10761  0AEA  00CD               	movwf	i1___fladd@grs
 10762  0AEB  3000               	movlw	0
 10763  0AEC  00BD               	movwf	i1___fladd@b+3
 10764  0AED  3000               	movlw	0
 10765  0AEE  00BC               	movwf	i1___fladd@b+2
 10766  0AEF  3000               	movlw	0
 10767  0AF0  00BB               	movwf	i1___fladd@b+1
 10768  0AF1  3000               	movlw	0
 10769  0AF2  00BA               	movwf	i1___fladd@b
 10770  0AF3  084B               	movf	i1___fladd@aexp,w
 10771  0AF4  00C2               	movwf	??i1___fladd
 10772  0AF5  0842               	movf	??i1___fladd,w
 10773  0AF6  00CC               	movwf	i1___fladd@bexp
 10774  0AF7  2B21               	goto	i1l700
 10775  0AF8                     i1l702:	
 10776  0AF8  1C4D               	btfss	i1___fladd@grs,0
 10777  0AF9  2AFB               	goto	u506_21
 10778  0AFA  2AFC               	goto	u506_20
 10779  0AFB                     u506_21:	
 10780  0AFB  2B05               	goto	i1l3117
 10781  0AFC                     u506_20:	
 10782  0AFC                     i1l3115:	
 10783  0AFC  084D               	movf	i1___fladd@grs,w
 10784  0AFD  00C2               	movwf	??i1___fladd
 10785  0AFE  1003               	clrc
 10786  0AFF  0C42               	rrf	??i1___fladd,w
 10787  0B00  3801               	iorlw	1
 10788  0B01  00C3               	movwf	??i1___fladd+1
 10789  0B02  0843               	movf	??i1___fladd+1,w
 10790  0B03  00CD               	movwf	i1___fladd@grs
 10791  0B04  2B07               	goto	i1l3119
 10792  0B05                     i1l3117:	
 10793  0B05  1003               	clrc
 10794  0B06  0CCD               	rrf	i1___fladd@grs,f
 10795  0B07                     i1l3119:	
 10796  0B07  1C3A               	btfss	i1___fladd@b,0
 10797  0B08  2B0A               	goto	u507_21
 10798  0B09  2B0B               	goto	u507_20
 10799  0B0A                     u507_21:	
 10800  0B0A  2B0C               	goto	i1l3123
 10801  0B0B                     u507_20:	
 10802  0B0B                     i1l3121:	
 10803  0B0B  17CD               	bsf	i1___fladd@grs,7
 10804  0B0C                     i1l3123:	
 10805  0B0C  3001               	movlw	1
 10806  0B0D  00C2               	movwf	??i1___fladd
 10807  0B0E                     u508_25:	
 10808  0B0E  0D3D               	rlf	i1___fladd@b+3,w
 10809  0B0F  0CBD               	rrf	i1___fladd@b+3,f
 10810  0B10  0CBC               	rrf	i1___fladd@b+2,f
 10811  0B11  0CBB               	rrf	i1___fladd@b+1,f
 10812  0B12  0CBA               	rrf	i1___fladd@b,f
 10813  0B13  0BC2               	decfsz	??i1___fladd& (0+127),f
 10814  0B14  2B0E               	goto	u508_25
 10815  0B15                     i1l3125:	
 10816  0B15  3001               	movlw	1
 10817  0B16  00C2               	movwf	??i1___fladd
 10818  0B17  0842               	movf	??i1___fladd,w
 10819  0B18  07CC               	addwf	i1___fladd@bexp,f
 10820  0B19                     i1l3127:	
 10821  0B19  1283               	bcf	3,5	;RP0=0, select bank0
 10822  0B1A  1303               	bcf	3,6	;RP1=0, select bank0
 10823  0B1B  084B               	movf	i1___fladd@aexp,w
 10824  0B1C  024C               	subwf	i1___fladd@bexp,w
 10825  0B1D  1C03               	skipc
 10826  0B1E  2B20               	goto	u509_21
 10827  0B1F  2B21               	goto	u509_20
 10828  0B20                     u509_21:	
 10829  0B20  2AF8               	goto	i1l702
 10830  0B21                     u509_20:	
 10831  0B21                     i1l700:	
 10832  0B21  1B4A               	btfsc	i1___fladd@signs,6
 10833  0B22  2B24               	goto	u510_21
 10834  0B23  2B25               	goto	u510_20
 10835  0B24                     u510_21:	
 10836  0B24  2B70               	goto	i1l3153
 10837  0B25                     u510_20:	
 10838  0B25                     i1l3129:	
 10839  0B25  084C               	movf	i1___fladd@bexp,w
 10840  0B26  1D03               	btfss	3,2
 10841  0B27  2B29               	goto	u511_21
 10842  0B28  2B2A               	goto	u511_20
 10843  0B29                     u511_21:	
 10844  0B29  2B33               	goto	i1l3135
 10845  0B2A                     u511_20:	
 10846  0B2A                     i1l3131:	
 10847  0B2A  3000               	movlw	0
 10848  0B2B  00BD               	movwf	?i1___fladd+3
 10849  0B2C  3000               	movlw	0
 10850  0B2D  00BC               	movwf	?i1___fladd+2
 10851  0B2E  3000               	movlw	0
 10852  0B2F  00BB               	movwf	?i1___fladd+1
 10853  0B30  3000               	movlw	0
 10854  0B31  00BA               	movwf	?i1___fladd
 10855  0B32  2C9E               	goto	i1l709
 10856  0B33                     i1l3135:	
 10857  0B33  083E               	movf	i1___fladd@a,w
 10858  0B34  07BA               	addwf	i1___fladd@b,f
 10859  0B35  083F               	movf	i1___fladd@a+1,w
 10860  0B36  1103               	clrz
 10861  0B37  1803               	skipnc
 10862  0B38  3E01               	addlw	1
 10863  0B39  1903               	skipnz
 10864  0B3A  2B3C               	goto	u512_21
 10865  0B3B  07BB               	addwf	i1___fladd@b+1,f
 10866  0B3C                     u512_21:	
 10867  0B3C  0840               	movf	i1___fladd@a+2,w
 10868  0B3D  1103               	clrz
 10869  0B3E  1803               	skipnc
 10870  0B3F  3E01               	addlw	1
 10871  0B40  1903               	skipnz
 10872  0B41  2B43               	goto	u512_22
 10873  0B42  07BC               	addwf	i1___fladd@b+2,f
 10874  0B43                     u512_22:	
 10875  0B43  0841               	movf	i1___fladd@a+3,w
 10876  0B44  1103               	clrz
 10877  0B45  1803               	skipnc
 10878  0B46  3E01               	addlw	1
 10879  0B47  1903               	skipnz
 10880  0B48  2B4A               	goto	u512_23
 10881  0B49  07BD               	addwf	i1___fladd@b+3,f
 10882  0B4A                     u512_23:	
 10883  0B4A                     i1l3137:	
 10884  0B4A  1C3D               	btfss	i1___fladd@b+3,0
 10885  0B4B  2B4D               	goto	u513_21
 10886  0B4C  2B4E               	goto	u513_20
 10887  0B4D                     u513_21:	
 10888  0B4D  2C24               	goto	i1l3187
 10889  0B4E                     u513_20:	
 10890  0B4E                     i1l3139:	
 10891  0B4E  1C4D               	btfss	i1___fladd@grs,0
 10892  0B4F  2B51               	goto	u514_21
 10893  0B50  2B52               	goto	u514_20
 10894  0B51                     u514_21:	
 10895  0B51  2B5B               	goto	i1l3143
 10896  0B52                     u514_20:	
 10897  0B52                     i1l3141:	
 10898  0B52  084D               	movf	i1___fladd@grs,w
 10899  0B53  00C2               	movwf	??i1___fladd
 10900  0B54  1003               	clrc
 10901  0B55  0C42               	rrf	??i1___fladd,w
 10902  0B56  3801               	iorlw	1
 10903  0B57  00C3               	movwf	??i1___fladd+1
 10904  0B58  0843               	movf	??i1___fladd+1,w
 10905  0B59  00CD               	movwf	i1___fladd@grs
 10906  0B5A  2B5D               	goto	i1l3145
 10907  0B5B                     i1l3143:	
 10908  0B5B  1003               	clrc
 10909  0B5C  0CCD               	rrf	i1___fladd@grs,f
 10910  0B5D                     i1l3145:	
 10911  0B5D  1C3A               	btfss	i1___fladd@b,0
 10912  0B5E  2B60               	goto	u515_21
 10913  0B5F  2B61               	goto	u515_20
 10914  0B60                     u515_21:	
 10915  0B60  2B62               	goto	i1l3149
 10916  0B61                     u515_20:	
 10917  0B61                     i1l3147:	
 10918  0B61  17CD               	bsf	i1___fladd@grs,7
 10919  0B62                     i1l3149:	
 10920  0B62  3001               	movlw	1
 10921  0B63  00C2               	movwf	??i1___fladd
 10922  0B64                     u516_25:	
 10923  0B64  0D3D               	rlf	i1___fladd@b+3,w
 10924  0B65  0CBD               	rrf	i1___fladd@b+3,f
 10925  0B66  0CBC               	rrf	i1___fladd@b+2,f
 10926  0B67  0CBB               	rrf	i1___fladd@b+1,f
 10927  0B68  0CBA               	rrf	i1___fladd@b,f
 10928  0B69  0BC2               	decfsz	??i1___fladd& (0+127),f
 10929  0B6A  2B64               	goto	u516_25
 10930  0B6B                     i1l3151:	
 10931  0B6B  3001               	movlw	1
 10932  0B6C  00C2               	movwf	??i1___fladd
 10933  0B6D  0842               	movf	??i1___fladd,w
 10934  0B6E  07CC               	addwf	i1___fladd@bexp,f
 10935  0B6F  2C24               	goto	i1l3187
 10936  0B70                     i1l3153:	
 10937  0B70  083D               	movf	i1___fladd@b+3,w
 10938  0B71  3A80               	xorlw	128
 10939  0B72  00FF               	movwf	btemp+1
 10940  0B73  0841               	movf	i1___fladd@a+3,w
 10941  0B74  3A80               	xorlw	128
 10942  0B75  027F               	subwf	btemp+1,w
 10943  0B76  1D03               	skipz
 10944  0B77  2B82               	goto	u517_23
 10945  0B78  0840               	movf	i1___fladd@a+2,w
 10946  0B79  023C               	subwf	i1___fladd@b+2,w
 10947  0B7A  1D03               	skipz
 10948  0B7B  2B82               	goto	u517_23
 10949  0B7C  083F               	movf	i1___fladd@a+1,w
 10950  0B7D  023B               	subwf	i1___fladd@b+1,w
 10951  0B7E  1D03               	skipz
 10952  0B7F  2B82               	goto	u517_23
 10953  0B80  083E               	movf	i1___fladd@a,w
 10954  0B81  023A               	subwf	i1___fladd@b,w
 10955  0B82                     u517_23:	
 10956  0B82  1803               	skipnc
 10957  0B83  2B85               	goto	u517_21
 10958  0B84  2B86               	goto	u517_20
 10959  0B85                     u517_21:	
 10960  0B85  2BDE               	goto	i1l3163
 10961  0B86                     u517_20:	
 10962  0B86                     i1l3155:	
 10963  0B86  30FF               	movlw	255
 10964  0B87  00C2               	movwf	??i1___fladd
 10965  0B88  30FF               	movlw	255
 10966  0B89  00C3               	movwf	??i1___fladd+1
 10967  0B8A  30FF               	movlw	255
 10968  0B8B  00C4               	movwf	??i1___fladd+2
 10969  0B8C  30FF               	movlw	255
 10970  0B8D  00C5               	movwf	??i1___fladd+3
 10971  0B8E  083E               	movf	i1___fladd@a,w
 10972  0B8F  00C6               	movwf	??i1___fladd+4
 10973  0B90  083F               	movf	i1___fladd@a+1,w
 10974  0B91  00C7               	movwf	??i1___fladd+5
 10975  0B92  0840               	movf	i1___fladd@a+2,w
 10976  0B93  00C8               	movwf	??i1___fladd+6
 10977  0B94  0841               	movf	i1___fladd@a+3,w
 10978  0B95  00C9               	movwf	??i1___fladd+7
 10979  0B96  083A               	movf	i1___fladd@b,w
 10980  0B97  02C6               	subwf	??i1___fladd+4,f
 10981  0B98  083B               	movf	i1___fladd@b+1,w
 10982  0B99  1C03               	skipc
 10983  0B9A  0F3B               	incfsz	i1___fladd@b+1,w
 10984  0B9B  2B9D               	goto	u518_21
 10985  0B9C  2B9E               	goto	u518_22
 10986  0B9D                     u518_21:	
 10987  0B9D  02C7               	subwf	??i1___fladd+5,f
 10988  0B9E                     u518_22:	
 10989  0B9E  083C               	movf	i1___fladd@b+2,w
 10990  0B9F  1C03               	skipc
 10991  0BA0  0F3C               	incfsz	i1___fladd@b+2,w
 10992  0BA1  2BA3               	goto	u518_23
 10993  0BA2  2BA4               	goto	u518_24
 10994  0BA3                     u518_23:	
 10995  0BA3  02C8               	subwf	??i1___fladd+6,f
 10996  0BA4                     u518_24:	
 10997  0BA4  083D               	movf	i1___fladd@b+3,w
 10998  0BA5  1C03               	skipc
 10999  0BA6  0F3D               	incfsz	i1___fladd@b+3,w
 11000  0BA7  2BA9               	goto	u518_25
 11001  0BA8  2BAA               	goto	u518_26
 11002  0BA9                     u518_25:	
 11003  0BA9  02C9               	subwf	??i1___fladd+7,f
 11004  0BAA                     u518_26:	
 11005  0BAA  0846               	movf	??i1___fladd+4,w
 11006  0BAB  07C2               	addwf	??i1___fladd,f
 11007  0BAC  0847               	movf	??i1___fladd+5,w
 11008  0BAD  1803               	skipnc
 11009  0BAE  0F47               	incfsz	??i1___fladd+5,w
 11010  0BAF  2BB1               	goto	u519_20
 11011  0BB0  2BB2               	goto	u519_21
 11012  0BB1                     u519_20:	
 11013  0BB1  07C3               	addwf	??i1___fladd+1,f
 11014  0BB2                     u519_21:	
 11015  0BB2  0848               	movf	??i1___fladd+6,w
 11016  0BB3  1803               	skipnc
 11017  0BB4  0F48               	incfsz	??i1___fladd+6,w
 11018  0BB5  2BB7               	goto	u519_22
 11019  0BB6  2BB8               	goto	u519_23
 11020  0BB7                     u519_22:	
 11021  0BB7  07C4               	addwf	??i1___fladd+2,f
 11022  0BB8                     u519_23:	
 11023  0BB8  0849               	movf	??i1___fladd+7,w
 11024  0BB9  1803               	skipnc
 11025  0BBA  0A49               	incf	??i1___fladd+7,w
 11026  0BBB  07C5               	addwf	??i1___fladd+3,f
 11027  0BBC  0845               	movf	??i1___fladd+3,w
 11028  0BBD  00BD               	movwf	i1___fladd@b+3
 11029  0BBE  0844               	movf	??i1___fladd+2,w
 11030  0BBF  00BC               	movwf	i1___fladd@b+2
 11031  0BC0  0843               	movf	??i1___fladd+1,w
 11032  0BC1  00BB               	movwf	i1___fladd@b+1
 11033  0BC2  0842               	movf	??i1___fladd,w
 11034  0BC3  00BA               	movwf	i1___fladd@b
 11035  0BC4                     i1l3157:	
 11036  0BC4  3080               	movlw	128
 11037  0BC5  00C2               	movwf	??i1___fladd
 11038  0BC6  0842               	movf	??i1___fladd,w
 11039  0BC7  06CA               	xorwf	i1___fladd@signs,f
 11040  0BC8  09CD               	comf	i1___fladd@grs,f
 11041  0BC9  0ACD               	incf	i1___fladd@grs,f
 11042  0BCA                     i1l3159:	
 11043  0BCA  084D               	movf	i1___fladd@grs,w
 11044  0BCB  1D03               	btfss	3,2
 11045  0BCC  2BCE               	goto	u520_21
 11046  0BCD  2BCF               	goto	u520_20
 11047  0BCE                     u520_21:	
 11048  0BCE  2BEC               	goto	i1l717
 11049  0BCF                     u520_20:	
 11050  0BCF                     i1l3161:	
 11051  0BCF  3001               	movlw	1
 11052  0BD0  07BA               	addwf	i1___fladd@b,f
 11053  0BD1  3000               	movlw	0
 11054  0BD2  1803               	skipnc
 11055  0BD3  3001               	movlw	1
 11056  0BD4  07BB               	addwf	i1___fladd@b+1,f
 11057  0BD5  3000               	movlw	0
 11058  0BD6  1803               	skipnc
 11059  0BD7  3001               	movlw	1
 11060  0BD8  07BC               	addwf	i1___fladd@b+2,f
 11061  0BD9  3000               	movlw	0
 11062  0BDA  1803               	skipnc
 11063  0BDB  3001               	movlw	1
 11064  0BDC  07BD               	addwf	i1___fladd@b+3,f
 11065  0BDD  2BEC               	goto	i1l717
 11066  0BDE                     i1l3163:	
 11067  0BDE  083E               	movf	i1___fladd@a,w
 11068  0BDF  02BA               	subwf	i1___fladd@b,f
 11069  0BE0  083F               	movf	i1___fladd@a+1,w
 11070  0BE1  1C03               	skipc
 11071  0BE2  0F3F               	incfsz	i1___fladd@a+1,w
 11072  0BE3  02BB               	subwf	i1___fladd@b+1,f
 11073  0BE4  0840               	movf	i1___fladd@a+2,w
 11074  0BE5  1C03               	skipc
 11075  0BE6  0F40               	incfsz	i1___fladd@a+2,w
 11076  0BE7  02BC               	subwf	i1___fladd@b+2,f
 11077  0BE8  0841               	movf	i1___fladd@a+3,w
 11078  0BE9  1C03               	skipc
 11079  0BEA  0F41               	incfsz	i1___fladd@a+3,w
 11080  0BEB  02BD               	subwf	i1___fladd@b+3,f
 11081  0BEC                     i1l717:	
 11082  0BEC  083D               	movf	i1___fladd@b+3,w
 11083  0BED  043C               	iorwf	i1___fladd@b+2,w
 11084  0BEE  043B               	iorwf	i1___fladd@b+1,w
 11085  0BEF  043A               	iorwf	i1___fladd@b,w
 11086  0BF0  1D03               	skipz
 11087  0BF1  2BF3               	goto	u521_21
 11088  0BF2  2BF4               	goto	u521_20
 11089  0BF3                     u521_21:	
 11090  0BF3  2C20               	goto	i1l3185
 11091  0BF4                     u521_20:	
 11092  0BF4                     i1l3165:	
 11093  0BF4  084D               	movf	i1___fladd@grs,w
 11094  0BF5  1D03               	btfss	3,2
 11095  0BF6  2BF8               	goto	u522_21
 11096  0BF7  2BF9               	goto	u522_20
 11097  0BF8                     u522_21:	
 11098  0BF8  2C20               	goto	i1l3185
 11099  0BF9                     u522_20:	
 11100  0BF9                     i1l3167:	
 11101  0BF9  3000               	movlw	0
 11102  0BFA  00BD               	movwf	?i1___fladd+3
 11103  0BFB  3000               	movlw	0
 11104  0BFC  00BC               	movwf	?i1___fladd+2
 11105  0BFD  3000               	movlw	0
 11106  0BFE  00BB               	movwf	?i1___fladd+1
 11107  0BFF  3000               	movlw	0
 11108  0C00  00BA               	movwf	?i1___fladd
 11109  0C01  2C9E               	goto	i1l709
 11110  0C02                     i1l3171:	
 11111  0C02  3001               	movlw	1
 11112  0C03  00C2               	movwf	??i1___fladd
 11113  0C04                     u523_25:	
 11114  0C04  1003               	clrc
 11115  0C05  0DBA               	rlf	i1___fladd@b,f
 11116  0C06  0DBB               	rlf	i1___fladd@b+1,f
 11117  0C07  0DBC               	rlf	i1___fladd@b+2,f
 11118  0C08  0DBD               	rlf	i1___fladd@b+3,f
 11119  0C09  0BC2               	decfsz	??i1___fladd,f
 11120  0C0A  2C04               	goto	u523_25
 11121  0C0B                     i1l3173:	
 11122  0C0B  1FCD               	btfss	i1___fladd@grs,7
 11123  0C0C  2C0E               	goto	u524_21
 11124  0C0D  2C0F               	goto	u524_20
 11125  0C0E                     u524_21:	
 11126  0C0E  2C10               	goto	i1l721
 11127  0C0F                     u524_20:	
 11128  0C0F                     i1l3175:	
 11129  0C0F  143A               	bsf	i1___fladd@b,0
 11130  0C10                     i1l721:	
 11131  0C10  1C4D               	btfss	i1___fladd@grs,0
 11132  0C11  2C13               	goto	u525_21
 11133  0C12  2C14               	goto	u525_20
 11134  0C13                     u525_21:	
 11135  0C13  2C17               	goto	i1l3179
 11136  0C14                     u525_20:	
 11137  0C14                     i1l3177:	
 11138  0C14  1403               	setc
 11139  0C15  0DCD               	rlf	i1___fladd@grs,f
 11140  0C16  2C19               	goto	i1l3181
 11141  0C17                     i1l3179:	
 11142  0C17  1003               	clrc
 11143  0C18  0DCD               	rlf	i1___fladd@grs,f
 11144  0C19                     i1l3181:	
 11145  0C19  084C               	movf	i1___fladd@bexp,w
 11146  0C1A  1903               	btfsc	3,2
 11147  0C1B  2C1D               	goto	u526_21
 11148  0C1C  2C1E               	goto	u526_20
 11149  0C1D                     u526_21:	
 11150  0C1D  2C20               	goto	i1l3185
 11151  0C1E                     u526_20:	
 11152  0C1E                     i1l3183:	
 11153  0C1E  3001               	movlw	1
 11154  0C1F  02CC               	subwf	i1___fladd@bexp,f
 11155  0C20                     i1l3185:	
 11156  0C20  1FBC               	btfss	i1___fladd@b+2,7
 11157  0C21  2C23               	goto	u527_21
 11158  0C22  2C24               	goto	u527_20
 11159  0C23                     u527_21:	
 11160  0C23  2C02               	goto	i1l3171
 11161  0C24                     u527_20:	
 11162  0C24                     i1l3187:	
 11163  0C24  01CB               	clrf	i1___fladd@aexp
 11164  0C25                     i1l3189:	
 11165  0C25  1FCD               	btfss	i1___fladd@grs,7
 11166  0C26  2C28               	goto	u528_21
 11167  0C27  2C29               	goto	u528_20
 11168  0C28                     u528_21:	
 11169  0C28  2C37               	goto	i1l3197
 11170  0C29                     u528_20:	
 11171  0C29                     i1l3191:	
 11172  0C29  084D               	movf	i1___fladd@grs,w
 11173  0C2A  397F               	andlw	127
 11174  0C2B  1903               	btfsc	3,2
 11175  0C2C  2C2E               	goto	u529_21
 11176  0C2D  2C2F               	goto	u529_20
 11177  0C2E                     u529_21:	
 11178  0C2E  2C32               	goto	i1l727
 11179  0C2F                     u529_20:	
 11180  0C2F                     i1l3193:	
 11181  0C2F  01CB               	clrf	i1___fladd@aexp
 11182  0C30  0ACB               	incf	i1___fladd@aexp,f
 11183  0C31  2C37               	goto	i1l3197
 11184  0C32                     i1l727:	
 11185  0C32  1C3A               	btfss	i1___fladd@b,0
 11186  0C33  2C35               	goto	u530_21
 11187  0C34  2C36               	goto	u530_20
 11188  0C35                     u530_21:	
 11189  0C35  2C37               	goto	i1l3197
 11190  0C36                     u530_20:	
 11191  0C36  2C2F               	goto	i1l3193
 11192  0C37                     i1l3197:	
 11193  0C37  084B               	movf	i1___fladd@aexp,w
 11194  0C38  1903               	btfsc	3,2
 11195  0C39  2C3B               	goto	u531_21
 11196  0C3A  2C3C               	goto	u531_20
 11197  0C3B                     u531_21:	
 11198  0C3B  2C70               	goto	i1l730
 11199  0C3C                     u531_20:	
 11200  0C3C                     i1l3199:	
 11201  0C3C  3001               	movlw	1
 11202  0C3D  07BA               	addwf	i1___fladd@b,f
 11203  0C3E  3000               	movlw	0
 11204  0C3F  1803               	skipnc
 11205  0C40  3001               	movlw	1
 11206  0C41  07BB               	addwf	i1___fladd@b+1,f
 11207  0C42  3000               	movlw	0
 11208  0C43  1803               	skipnc
 11209  0C44  3001               	movlw	1
 11210  0C45  07BC               	addwf	i1___fladd@b+2,f
 11211  0C46  3000               	movlw	0
 11212  0C47  1803               	skipnc
 11213  0C48  3001               	movlw	1
 11214  0C49  07BD               	addwf	i1___fladd@b+3,f
 11215  0C4A                     i1l3201:	
 11216  0C4A  1C3D               	btfss	i1___fladd@b+3,0
 11217  0C4B  2C4D               	goto	u532_21
 11218  0C4C  2C4E               	goto	u532_20
 11219  0C4D                     u532_21:	
 11220  0C4D  2C70               	goto	i1l730
 11221  0C4E                     u532_20:	
 11222  0C4E                     i1l3203:	
 11223  0C4E  083A               	movf	i1___fladd@b,w
 11224  0C4F  00C2               	movwf	??i1___fladd
 11225  0C50  083B               	movf	i1___fladd@b+1,w
 11226  0C51  00C3               	movwf	??i1___fladd+1
 11227  0C52  083C               	movf	i1___fladd@b+2,w
 11228  0C53  00C4               	movwf	??i1___fladd+2
 11229  0C54  083D               	movf	i1___fladd@b+3,w
 11230  0C55  00C5               	movwf	??i1___fladd+3
 11231  0C56  3001               	movlw	1
 11232  0C57  00C6               	movwf	??i1___fladd+4
 11233  0C58                     u533_25:	
 11234  0C58  0D45               	rlf	??i1___fladd+3,w
 11235  0C59  0CC5               	rrf	??i1___fladd+3,f
 11236  0C5A  0CC4               	rrf	??i1___fladd+2,f
 11237  0C5B  0CC3               	rrf	??i1___fladd+1,f
 11238  0C5C  0CC2               	rrf	??i1___fladd,f
 11239  0C5D                     u533_20:	
 11240  0C5D  0BC6               	decfsz	??i1___fladd+4,f
 11241  0C5E  2C58               	goto	u533_25
 11242  0C5F  0845               	movf	??i1___fladd+3,w
 11243  0C60  00BD               	movwf	i1___fladd@b+3
 11244  0C61  0844               	movf	??i1___fladd+2,w
 11245  0C62  00BC               	movwf	i1___fladd@b+2
 11246  0C63  0843               	movf	??i1___fladd+1,w
 11247  0C64  00BB               	movwf	i1___fladd@b+1
 11248  0C65  0842               	movf	??i1___fladd,w
 11249  0C66  00BA               	movwf	i1___fladd@b
 11250  0C67  0A4C               	incf	i1___fladd@bexp,w
 11251  0C68  1903               	btfsc	3,2
 11252  0C69  2C6B               	goto	u534_21
 11253  0C6A  2C6C               	goto	u534_20
 11254  0C6B                     u534_21:	
 11255  0C6B  2C70               	goto	i1l730
 11256  0C6C                     u534_20:	
 11257  0C6C                     i1l3205:	
 11258  0C6C  3001               	movlw	1
 11259  0C6D  00C2               	movwf	??i1___fladd
 11260  0C6E  0842               	movf	??i1___fladd,w
 11261  0C6F  07CC               	addwf	i1___fladd@bexp,f
 11262  0C70                     i1l730:	
 11263  0C70  0A4C               	incf	i1___fladd@bexp,w
 11264  0C71  1903               	btfsc	3,2
 11265  0C72  2C74               	goto	u535_21
 11266  0C73  2C75               	goto	u535_20
 11267  0C74                     u535_21:	
 11268  0C74  2C7A               	goto	i1l3209
 11269  0C75                     u535_20:	
 11270  0C75                     i1l3207:	
 11271  0C75  084C               	movf	i1___fladd@bexp,w
 11272  0C76  1D03               	btfss	3,2
 11273  0C77  2C79               	goto	u536_21
 11274  0C78  2C7A               	goto	u536_20
 11275  0C79                     u536_21:	
 11276  0C79  2C88               	goto	i1l3215
 11277  0C7A                     u536_20:	
 11278  0C7A                     i1l3209:	
 11279  0C7A  3000               	movlw	0
 11280  0C7B  00BD               	movwf	i1___fladd@b+3
 11281  0C7C  3000               	movlw	0
 11282  0C7D  00BC               	movwf	i1___fladd@b+2
 11283  0C7E  3000               	movlw	0
 11284  0C7F  00BB               	movwf	i1___fladd@b+1
 11285  0C80  3000               	movlw	0
 11286  0C81  00BA               	movwf	i1___fladd@b
 11287  0C82                     i1l3211:	
 11288  0C82  084C               	movf	i1___fladd@bexp,w
 11289  0C83  1D03               	btfss	3,2
 11290  0C84  2C86               	goto	u537_21
 11291  0C85  2C87               	goto	u537_20
 11292  0C86                     u537_21:	
 11293  0C86  2C88               	goto	i1l3215
 11294  0C87                     u537_20:	
 11295  0C87                     i1l3213:	
 11296  0C87  01CA               	clrf	i1___fladd@signs
 11297  0C88                     i1l3215:	
 11298  0C88  1C4C               	btfss	i1___fladd@bexp,0
 11299  0C89  2C8B               	goto	u538_21
 11300  0C8A  2C8C               	goto	u538_20
 11301  0C8B                     u538_21:	
 11302  0C8B  2C8E               	goto	i1l3219
 11303  0C8C                     u538_20:	
 11304  0C8C                     i1l3217:	
 11305  0C8C  17BC               	bsf	i1___fladd@b+2,7
 11306  0C8D  2C92               	goto	i1l738
 11307  0C8E                     i1l3219:	
 11308  0C8E  307F               	movlw	127
 11309  0C8F  00C2               	movwf	??i1___fladd
 11310  0C90  0842               	movf	??i1___fladd,w
 11311  0C91  05BC               	andwf	i1___fladd@b+2,f
 11312  0C92                     i1l738:	
 11313  0C92  084C               	movf	i1___fladd@bexp,w
 11314  0C93  00C2               	movwf	??i1___fladd
 11315  0C94  1003               	clrc
 11316  0C95  0C42               	rrf	??i1___fladd,w
 11317  0C96  00C3               	movwf	??i1___fladd+1
 11318  0C97  0843               	movf	??i1___fladd+1,w
 11319  0C98  00BD               	movwf	i1___fladd@b+3
 11320  0C99                     i1l3221:	
 11321  0C99  1FCA               	btfss	i1___fladd@signs,7
 11322  0C9A  2C9C               	goto	u539_21
 11323  0C9B  2C9D               	goto	u539_20
 11324  0C9C                     u539_21:	
 11325  0C9C  2C9E               	goto	i1l739
 11326  0C9D                     u539_20:	
 11327  0C9D                     i1l3223:	
 11328  0C9D  17BD               	bsf	i1___fladd@b+3,7
 11329  0C9E                     i1l739:	
 11330  0C9E                     i1l709:	
 11331  0C9E  0008               	return
 11332  0C9F                     __end_ofi1___fladd:	
 11333  007E                     btemp	set	126	;btemp
 11334  007E                     wtemp0	set	126


Data Sizes:
    Strings     25
    Constant    10
    Data        3
    BSS         16
    Persistent  0
    Stack       0

Auto Spaces:
    Space          Size  Autos    Used
    COMMON           14     14      14
    BANK0            80     72      80
    BANK1            80     80      80
    BANK3            96     47      59
    BANK2            96      0       0

Pointer List with Targets:

    sprintf@f	PTR const unsigned char  size(1) Largest target is 3
		 -> STR_6(CODE[3]), STR_4(CODE[3]), STR_1(CODE[3]), 

    sprintf@sp	PTR unsigned char  size(1) Largest target is 9
		 -> main@message(BANK3[9]), 

    sprintf@ap	PTR void [1] size(1) Largest target is 2
		 -> ?_sprintf(BANK1[2]), 

    pwm_calc@pwm_dc2	PTR int  size(1) Largest target is 2
		 -> pwm_dc2(BANK0[2]), 

    pwm_calc@pwm_dc1	PTR int  size(1) Largest target is 2
		 -> pwm_dc1(BANK0[2]), 

    pointer_pwm_dc2	PTR volatile int  size(1) Largest target is 2
		 -> pwm_dc2(BANK0[2]), 

    pointer_pwm_dc1	PTR volatile int  size(1) Largest target is 2
		 -> pwm_dc1(BANK0[2]), 

    lcd_puts@s	PTR const unsigned char  size(2) Largest target is 9
		 -> STR_7(CODE[4]), STR_5(CODE[6]), STR_3(CODE[6]), STR_2(CODE[6]), 
		 -> main@message(BANK3[9]), 


Critical Paths under _main in COMMON

    None.

Critical Paths under _isr in COMMON

    _adc_read_0->i1___xxtofl
    i1___fltol->i1___xxtofl
    i1___flmul->i1___xxtofl
    i1___fladd->i1___xxtofl

Critical Paths under _main in BANK0

    None.

Critical Paths under _isr in BANK0

    _isr->_adc_read_0
    _adc_read_0->i1___fltol
    i1___fltol->i1___fladd
    i1___fladd->i1___flmul

Critical Paths under _main in BANK1

    _sprintf->___lwmod
    ___lwmod->___lwdiv
    _pwm_set->___fladd
    _pwm_calc->___fladd
    ___xxtofl->___wmul
    ___fltol->___fladd
    ___flmul->___fldiv
    ___fldiv->___xxtofl
    ___fladd->___flmul
    _lcd_puts->_lcd_write
    _lcd_putchar->_lcd_write
    _lcd_init->_lcd_write
    _lcd_goto->_lcd_write
    _lcd_cursor->_lcd_write
    _lcd_write->_lcd_write_nibble

Critical Paths under _isr in BANK1

    None.

Critical Paths under _main in BANK3

    _main->_pwm_calc
    _main->_pwm_set
    _pwm_set->___fltol
    _pwm_calc->___fltol
    ___fltol->___fladd

Critical Paths under _isr in BANK3

    None.

Critical Paths under _main in BANK2

    None.

Critical Paths under _isr in BANK2

    None.

Call Graph Tables:

 ---------------------------------------------------------------------------------
 (Depth) Function   	        Calls       Base Space   Used Autos Params    Refs
 ---------------------------------------------------------------------------------
 (0) _main                                                14    14      0   24745
                                             33 BANK3     14    14      0
                         _adc_init_0
                            _io_init
                         _lcd_cursor
                           _lcd_goto
                           _lcd_init
                        _lcd_putchar
                           _lcd_puts
                           _pwm_calc
                           _pwm_init
                            _pwm_set
                            _sprintf
                            _t0_init
                          _tmr2_init
 ---------------------------------------------------------------------------------
 (1) _tmr2_init                                            0     0      0       0
 ---------------------------------------------------------------------------------
 (1) _t0_init                                              0     0      0       0
 ---------------------------------------------------------------------------------
 (1) _sprintf                                             21    18      3    1429
                                             14 BANK1     13    10      3
                            ___lwdiv
                            ___lwmod
 ---------------------------------------------------------------------------------
 (2) ___lwmod                                              6     2      4     311
                                              8 BANK1      6     2      4
                            ___lwdiv (ARG)
 ---------------------------------------------------------------------------------
 (2) ___lwdiv                                              8     4      4     314
                                              0 BANK1      8     4      4
 ---------------------------------------------------------------------------------
 (1) _pwm_set                                             10     6      4   10967
                                             23 BANK3     10     6      4
                            ___fladd
                            ___fldiv
                            ___flmul
                            ___fltol
                             ___wmul
                           ___xxtofl
                                _abs
 ---------------------------------------------------------------------------------
 (2) _abs                                                  4     2      2     370
                                              0 BANK1      4     2      2
 ---------------------------------------------------------------------------------
 (1) _pwm_init                                             4     4      0       2
                                              0 BANK1      4     4      0
 ---------------------------------------------------------------------------------
 (1) _pwm_calc                                            10     6      4   10781
                                             23 BANK3     10     6      4
                            ___fladd
                            ___fldiv
                            ___flmul
                            ___fltol
                             ___wmul
                           ___xxtofl
 ---------------------------------------------------------------------------------
 (2) ___xxtofl                                            14    10      4     878
                                              6 BANK1     14    10      4
                             ___wmul (ARG)
                                _abs (ARG)
 ---------------------------------------------------------------------------------
 (2) ___wmul                                               6     2      4     548
                                              0 BANK1      6     2      4
 ---------------------------------------------------------------------------------
 (2) ___fltol                                             11     7      4     735
                                             12 BANK3     11     7      4
                            ___fladd (ARG)
                            ___fldiv (ARG)
                            ___flmul (ARG)
                             ___wmul (ARG)
                           ___xxtofl (ARG)
                                _abs (ARG)
 ---------------------------------------------------------------------------------
 (2) ___flmul                                             26    18      8    2973
                                             46 BANK1     26    18      8
                          __Umul8_16
                            ___fldiv (ARG)
                           ___xxtofl (ARG)
                                _abs (ARG)
 ---------------------------------------------------------------------------------
 (3) __Umul8_16                                            9     7      2     799
                                              0 BANK1      9     7      2
 ---------------------------------------------------------------------------------
 (2) ___fldiv                                             26    18      8    2337
                                             20 BANK1     26    18      8
                          __Umul8_16 (ARG)
                             ___wmul (ARG)
                           ___xxtofl (ARG)
                                _abs (ARG)
 ---------------------------------------------------------------------------------
 (2) ___fladd                                             20    12      8    2818
                                             72 BANK1      8     0      8
                                              0 BANK3     12    12      0
                            ___fldiv (ARG)
                            ___flmul (ARG)
                           ___xxtofl (ARG)
                                _abs (ARG)
 ---------------------------------------------------------------------------------
 (1) _lcd_puts                                             2     0      2     709
                                              4 BANK1      2     0      2
                     _LCD_RS_SetHigh
                          _lcd_write
 ---------------------------------------------------------------------------------
 (1) _lcd_putchar                                          1     1      0     154
                                              4 BANK1      1     1      0
                     _LCD_RS_SetHigh
                          _lcd_write
 ---------------------------------------------------------------------------------
 (2) _LCD_RS_SetHigh                                       0     0      0       0
 ---------------------------------------------------------------------------------
 (1) _lcd_init                                             2     2      0     132
                                              4 BANK1      2     2      0
                      _LCD_RS_SetLow
                      _LCD_RW_SetLow
                          _lcd_write
 ---------------------------------------------------------------------------------
 (2) _LCD_RW_SetLow                                        0     0      0       0
 ---------------------------------------------------------------------------------
 (1) _lcd_goto                                             1     1      0     154
                                              4 BANK1      1     1      0
                      _LCD_RS_SetLow
                          _lcd_write
 ---------------------------------------------------------------------------------
 (1) _lcd_cursor                                           2     0      2     230
                                              4 BANK1      2     0      2
                      _LCD_RS_SetLow
                          _lcd_write
 ---------------------------------------------------------------------------------
 (2) _lcd_write                                            2     2      0     132
                                              2 BANK1      2     2      0
                   _lcd_write_nibble
 ---------------------------------------------------------------------------------
 (3) _lcd_write_nibble                                     2     2      0      88
                                              0 BANK1      2     2      0
 ---------------------------------------------------------------------------------
 (2) _LCD_RS_SetLow                                        0     0      0       0
 ---------------------------------------------------------------------------------
 (1) _io_init                                              0     0      0       0
 ---------------------------------------------------------------------------------
 (1) _adc_init_0                                           2     2      0       0
                                              0 BANK1      2     2      0
 ---------------------------------------------------------------------------------
 Estimated maximum stack depth 3
 ---------------------------------------------------------------------------------
 (Depth) Function   	        Calls       Base Space   Used Autos Params    Refs
 ---------------------------------------------------------------------------------
 (4) _isr                                                  3     3      0    4622
                                             69 BANK0      3     3      0
                         _adc_read_0
                      _io_sw_pressed
                         _io_sw_read
 ---------------------------------------------------------------------------------
 (5) _io_sw_read                                           4     4      0      67
                                              0 COMMON     4     4      0
 ---------------------------------------------------------------------------------
 (5) _io_sw_pressed                                        2     0      2       0
                                              0 COMMON     2     0      2
 ---------------------------------------------------------------------------------
 (5) _adc_read_0                                          12    10      2    4555
                                             57 BANK0     12    10      2
                          i1___fladd
                          i1___flmul
                          i1___fltol
                         i1___xxtofl
 ---------------------------------------------------------------------------------
 (6) i1___xxtofl                                          14    10      4     374
                                              0 COMMON    14    10      4
 ---------------------------------------------------------------------------------
 (6) i1___fltol                                           11     7      4     255
                                             46 BANK0     11     7      4
                          i1___fladd (ARG)
                          i1___flmul (ARG)
                         i1___xxtofl (ARG)
 ---------------------------------------------------------------------------------
 (6) i1___flmul                                           26    18      8    1867
                                              0 BANK0     26    18      8
                        i1__Umul8_16
                         i1___xxtofl (ARG)
 ---------------------------------------------------------------------------------
 (7) i1__Umul8_16                                          9     7      2     349
                                              0 COMMON     9     7      2
 ---------------------------------------------------------------------------------
 (6) i1___fladd                                           20    12      8    2036
                                             26 BANK0     20    12      8
                          i1___flmul (ARG)
                         i1___xxtofl (ARG)
 ---------------------------------------------------------------------------------
 Estimated maximum stack depth 7
 ---------------------------------------------------------------------------------

 Call Graph Graphs:

 _main (ROOT)
   _adc_init_0
   _io_init
   _lcd_cursor
     _LCD_RS_SetLow
     _lcd_write
       _lcd_write_nibble
   _lcd_goto
     _LCD_RS_SetLow
     _lcd_write
       _lcd_write_nibble
   _lcd_init
     _LCD_RS_SetLow
     _LCD_RW_SetLow
     _lcd_write
       _lcd_write_nibble
   _lcd_putchar
     _LCD_RS_SetHigh
     _lcd_write
       _lcd_write_nibble
   _lcd_puts
     _LCD_RS_SetHigh
     _lcd_write
       _lcd_write_nibble
   _pwm_calc
     ___fladd
       ___fldiv (ARG)
         __Umul8_16 (ARG)
         ___wmul (ARG)
         ___xxtofl (ARG)
           ___wmul (ARG)
           _abs (ARG)
         _abs (ARG)
       ___flmul (ARG)
         __Umul8_16
         ___fldiv (ARG)
           __Umul8_16 (ARG)
           ___wmul (ARG)
           ___xxtofl (ARG)
             ___wmul (ARG)
             _abs (ARG)
           _abs (ARG)
         ___xxtofl (ARG)
           ___wmul (ARG)
           _abs (ARG)
         _abs (ARG)
       ___xxtofl (ARG)
         ___wmul (ARG)
         _abs (ARG)
       _abs (ARG)
     ___fldiv
       __Umul8_16 (ARG)
       ___wmul (ARG)
       ___xxtofl (ARG)
         ___wmul (ARG)
         _abs (ARG)
       _abs (ARG)
     ___flmul
       __Umul8_16
       ___fldiv (ARG)
         __Umul8_16 (ARG)
         ___wmul (ARG)
         ___xxtofl (ARG)
           ___wmul (ARG)
           _abs (ARG)
         _abs (ARG)
       ___xxtofl (ARG)
         ___wmul (ARG)
         _abs (ARG)
       _abs (ARG)
     ___fltol
       ___fladd (ARG)
         ___fldiv (ARG)
           __Umul8_16 (ARG)
           ___wmul (ARG)
           ___xxtofl (ARG)
             ___wmul (ARG)
             _abs (ARG)
           _abs (ARG)
         ___flmul (ARG)
           __Umul8_16
           ___fldiv (ARG)
             __Umul8_16 (ARG)
             ___wmul (ARG)
             ___xxtofl (ARG)
               ___wmul (ARG)
               _abs (ARG)
             _abs (ARG)
           ___xxtofl (ARG)
             ___wmul (ARG)
             _abs (ARG)
           _abs (ARG)
         ___xxtofl (ARG)
           ___wmul (ARG)
           _abs (ARG)
         _abs (ARG)
       ___fldiv (ARG)
         __Umul8_16 (ARG)
         ___wmul (ARG)
         ___xxtofl (ARG)
           ___wmul (ARG)
           _abs (ARG)
         _abs (ARG)
       ___flmul (ARG)
         __Umul8_16
         ___fldiv (ARG)
           __Umul8_16 (ARG)
           ___wmul (ARG)
           ___xxtofl (ARG)
             ___wmul (ARG)
             _abs (ARG)
           _abs (ARG)
         ___xxtofl (ARG)
           ___wmul (ARG)
           _abs (ARG)
         _abs (ARG)
       ___wmul (ARG)
       ___xxtofl (ARG)
         ___wmul (ARG)
         _abs (ARG)
       _abs (ARG)
     ___wmul
     ___xxtofl
       ___wmul (ARG)
       _abs (ARG)
   _pwm_init
   _pwm_set
     ___fladd
       ___fldiv (ARG)
         __Umul8_16 (ARG)
         ___wmul (ARG)
         ___xxtofl (ARG)
           ___wmul (ARG)
           _abs (ARG)
         _abs (ARG)
       ___flmul (ARG)
         __Umul8_16
         ___fldiv (ARG)
           __Umul8_16 (ARG)
           ___wmul (ARG)
           ___xxtofl (ARG)
             ___wmul (ARG)
             _abs (ARG)
           _abs (ARG)
         ___xxtofl (ARG)
           ___wmul (ARG)
           _abs (ARG)
         _abs (ARG)
       ___xxtofl (ARG)
         ___wmul (ARG)
         _abs (ARG)
       _abs (ARG)
     ___fldiv
       __Umul8_16 (ARG)
       ___wmul (ARG)
       ___xxtofl (ARG)
         ___wmul (ARG)
         _abs (ARG)
       _abs (ARG)
     ___flmul
       __Umul8_16
       ___fldiv (ARG)
         __Umul8_16 (ARG)
         ___wmul (ARG)
         ___xxtofl (ARG)
           ___wmul (ARG)
           _abs (ARG)
         _abs (ARG)
       ___xxtofl (ARG)
         ___wmul (ARG)
         _abs (ARG)
       _abs (ARG)
     ___fltol
       ___fladd (ARG)
         ___fldiv (ARG)
           __Umul8_16 (ARG)
           ___wmul (ARG)
           ___xxtofl (ARG)
             ___wmul (ARG)
             _abs (ARG)
           _abs (ARG)
         ___flmul (ARG)
           __Umul8_16
           ___fldiv (ARG)
             __Umul8_16 (ARG)
             ___wmul (ARG)
             ___xxtofl (ARG)
               ___wmul (ARG)
               _abs (ARG)
             _abs (ARG)
           ___xxtofl (ARG)
             ___wmul (ARG)
             _abs (ARG)
           _abs (ARG)
         ___xxtofl (ARG)
           ___wmul (ARG)
           _abs (ARG)
         _abs (ARG)
       ___fldiv (ARG)
         __Umul8_16 (ARG)
         ___wmul (ARG)
         ___xxtofl (ARG)
           ___wmul (ARG)
           _abs (ARG)
         _abs (ARG)
       ___flmul (ARG)
         __Umul8_16
         ___fldiv (ARG)
           __Umul8_16 (ARG)
           ___wmul (ARG)
           ___xxtofl (ARG)
             ___wmul (ARG)
             _abs (ARG)
           _abs (ARG)
         ___xxtofl (ARG)
           ___wmul (ARG)
           _abs (ARG)
         _abs (ARG)
       ___wmul (ARG)
       ___xxtofl (ARG)
         ___wmul (ARG)
         _abs (ARG)
       _abs (ARG)
     ___wmul
     ___xxtofl
       ___wmul (ARG)
       _abs (ARG)
     _abs
   _sprintf
     ___lwdiv
     ___lwmod
       ___lwdiv (ARG)
   _t0_init
   _tmr2_init

 _isr (ROOT)
   _adc_read_0
     i1___fladd
       i1___flmul (ARG)
         i1__Umul8_16
         i1___xxtofl (ARG)
       i1___xxtofl (ARG)
     i1___flmul
       i1__Umul8_16
       i1___xxtofl (ARG)
     i1___fltol
       i1___fladd (ARG)
         i1___flmul (ARG)
           i1__Umul8_16
           i1___xxtofl (ARG)
         i1___xxtofl (ARG)
       i1___flmul (ARG)
         i1__Umul8_16
         i1___xxtofl (ARG)
       i1___xxtofl (ARG)
     i1___xxtofl
   _io_sw_pressed
   _io_sw_read

 Address spaces:
Name               Size   Autos  Total    Cost      Usage
BANK3               60     2F      3B       9       61.5%
BITBANK3            60      0       0       8        0.0%
SFR3                 0      0       0       4        0.0%
BITSFR3              0      0       0       4        0.0%
BANK2               60      0       0      11        0.0%
BITBANK2            60      0       0      10        0.0%
SFR2                 0      0       0       5        0.0%
BITSFR2              0      0       0       5        0.0%
BANK1               50     50      50       7      100.0%
BITBANK1            50      0       0       6        0.0%
SFR1                 0      0       0       2        0.0%
BITSFR1              0      0       0       2        0.0%
BANK0               50     48      50       5      100.0%
BITBANK0            50      0       1       4        1.3%
SFR0                 0      0       0       1        0.0%
BITSFR0              0      0       0       1        0.0%
COMMON               E      E       E       1      100.0%
BITCOMMON            E      0       0       0        0.0%
CODE                 0      0       0       0        0.0%
DATA                 0      0      E9      12        0.0%
ABS                  0      0      E9       3        0.0%
NULL                 0      0       0       0        0.0%
STACK                0      0       0       2        0.0%
EEDATA             100      0       0       0        0.0%


Microchip Technology PIC Macro Assembler V2.10 build 88905656 
Symbol Table                                                                                   Sun Jun 28 23:26:54 2020

             ___fldiv@aexp 00CD               ___fldiv@bexp 00CC                          pc 0002  
              i1___fladd@a 003E                i1___fladd@b 003A               ___fldiv@sign 00C5  
             ?_lcd_putchar 0070                __CFG_CP$OFF 0000                         l33 1C0D  
                       l60 1C5D                         l36 0839                         l45 1E52  
                       l39 1C11                         l71 1EAA                         l48 07FF  
                       l65 1C8B                         l57 1D82                         l68 1C4B  
                       _GO 00F9                i1___flmul@a 0024                i1___flmul@b 0020  
                       fsr 0004        ___wmul@multiplicand 00A2             ?_LCD_RS_SetLow 0070  
      __Umul8_16@word_mpld 00A6                 i1___xxtofl 10AE                        l220 1CD0  
                      l403 1D06                        l155 1C2B                        l405 1D1E  
                      l261 102D                        l262 1031                        l158 1C1D  
                      l183 1008                        l259 1029                        l275 17FC  
                      l700 01B0                        l285 15B0                        l702 017D  
                      l278 17FF                        l721 02F6                        l730 0381  
                      l804 0716                        l717 02C5                        l709 03C1  
                      l830 0747                        l727 031F                        l399 1249  
                      l752 0896                        l832 07DE                        l738 03AD  
                      l754 0A16                        l739 03C1                        l843 07A8  
                      l675 1E04                        l596 1098                        l844 07B4  
                      l836 078C                        l853 1D35                        l589 10AD  
                      l685 1DBE                        l774 09FA                        l855 1D47  
                      l599 10AD                        l696 00C3                        l776 0A0A  
                      l768 0988                        l792 0722                        l848 1C70  
                      l849 1C70                        l798 068E                        _RA1 0029  
                      _RA2 002A                        _RB0 0030                        _RA3 002B  
                      _RB1 0031                        _RC0 0038                        _RC3 003B  
                      _RC4 003C                        _RC5 003D                        _PR2 0092  
             __CFG_CPD$OFF 0000                        _PSA 040B            io_sw_read@swOld 006C  
          io_sw_read@swNew 0073                        _abs 1C5E                        _isr 1EAB  
           ?_LCD_RW_SetLow 0070                        fsr0 0004                        indf 0000  
             i1___fltol@f1 004E                lcd_goto@pos 00A4              i1___fladd@grs 004D  
             __CFG_IESO$ON 0000               __CFG_FOSC$EC 0000               ___flmul@aexp 00E0  
             ___flmul@bexp 00E1               ___flmul@sign 00DB               ___flmul@temp 00E6  
             ___flmul@prod 00E2            ?_LCD_RS_SetHigh 0070               __CFG_LVP$OFF 0000  
             ___fltol@exp1 01A6                       ?_abs 00A0                       l2321 1E08  
                     l2401 105E                       l2331 1E51                       l2323 1E12  
                     l2403 1066                       l2325 1E4E                       l2501 008C  
                     l2341 1D3E                       l2333 1D22                       l2421 108D  
                     l2413 1074                       l2405 1068                       l2327 1E4F  
                     l2511 00AB                       l2503 0096                       l2343 1D43  
                     l2335 1D24                       l2423 109D                       l2407 106C  
                     l2415 1086                       l2431 1DC9                       l2361 1C0A  
                     l2329 1E50                       l2601 0299                       l2521 00CF  
                     l2513 00B5                       l2505 009C                       l2337 1D2B  
                     l2425 10A2                       l2441 1DEC                       l2433 1DCC  
                     l2363 0836                       l3411 1D4E                       l2611 02D5  
                     l2603 02A1                       l2531 00E7                       l2523 00D3  
                     l2515 00B7                       l2507 009F                       l2339 1D2F  
                     l2371 1C5E                       l2443 1DF2                       l2435 1DD3  
                     l2427 1DBF                       l3501 1CAE                       l3421 1C71  
                     l2365 1C0E                       l3413 1D64                       l2621 02FC  
                     l2605 02A6                       l2541 0111                       l2533 00F1  
                     l2525 00D7                       l2509 00A6                       l2517 00B9  
                     l2701 0883                       l2381 1D00                       l2373 1C64  
                     l2445 1DF3                       l2437 1DD7                       l2429 1DC3  
                     l2461 1D99                       l2453 1D83                       l3503 1CBB  
                     l3511 1001                       l2367 07E2                       l3423 1C76  
                     l3431 1C43                       l3415 1D6C                       l2623 02FF  
                     l2615 02E0                       l2607 02B7                       l2631 030D  
                     l2551 0139                       l2543 0117                       l2535 00F9  
                     l2527 00DB                       l2519 00CB                       l2711 08AA  
                     l2703 088B                       l2391 1032                       l2383 1D0D  
                     l2447 1DFA                       l2439 1DDB                       l2463 1D9D  
                     l2455 1D8B                       l2471 1DBA                       l3505 1CBF  
                     l2369 07F8                       l3425 1C7E                       l3417 1C4F  
                     l3441 1E73                       l3433 1E53                       l3409 1D48  
                     l2641 0326                       l2633 0310                       l2625 0301  
                     l2617 02EF                       l2609 02CE                       l2561 018A  
                     l2545 0121                       l2537 00FF                       l2529 00DF  
                     l2553 0141                       l2481 0057                       l2801 0A00  
                     l2713 08AE                       l2705 088C                       l2393 103F  
                     l2385 1D14                       l2377 1CF8                       l3521 1019  
                     l3513 1009                       l2449 1E00                       l2465 1DA7  
                     l2457 1D8E                       l3601 117D                       l3507 1CC2  
                     l3427 1C85                       l3419 1C54                       l3451 1E98  
                     l3443 1E78                       l3435 1E65                       l2651 0388  
                     l2643 032D                       l2635 0314                       l2627 0306  
                     l2619 02F3                       l2563 018C                       l2571 01A8  
                     l2555 0144                       l2547 0129                       l2539 0109  
                     l2491 0072                       l2483 005A                       l2475 003E  
                     l2803 0A04                       l2731 08EF                       l2723 08C5  
                     l2707 088E                       l2811 03C2                       l2387 1D1A  
                     l2379 1CFC                       l3531 136A                       l3523 101D  
                     l3515 100D                       l2467 1DAD                       l2459 1D95  
                     l3611 11A0                       l3603 1182                       l3509 1CC5  
                     l3453 1E9E                       l3445 1E82                       l3437 1E6B  
                     l3429 1C3E                       l2661 03A3                       l2653 038D  
                     l2645 033D                       l2637 031A                       l2629 0308  
                     l2581 01DD                       l2573 01B4                       l2565 0192  
                     l2557 015B                       l2549 012F                       l2485 0061  
                     l2493 0074                       l2477 0047                       l2805 0A06  
                     l2741 090D                       l2733 08F1                       l2725 08D7  
                     l2709 089E                       l2717 08B7                       l2901 065E  
                     l2821 03D9                       l2813 03C9                       l2397 1048  
                     l3541 1487                       l3533 1371                       l3525 1020  
                     l3517 1019                       l2469 1DB4                       l3613 11A4  
                     l3701 128D                       l3455 1EA4                       l3447 1E88  
                     l3439 1E6E                       l2663 03A7                       l2655 0397  
                     l2647 0341                       l2591 01F8                       l2583 01E1  
                     l2575 01B9                       l2567 0195                       l2559 0181  
                     l2495 007E                       l2487 0066                       l2479 0051  
                     l2735 08F6                       l2743 0916                       l2751 093B  
                     l2727 08DF                       l2719 08BC                       l2671 0841  
                     l2911 0673                       l2903 065F                       l2831 03F5  
                     l2823 03DE                       l2815 03CF                       l2399 105D  
                     l3535 13F4                       l3551 148F                       l3527 1023  
                     l3519 1019                       l3631 11D9                       l3615 11A8  
                     l3607 1183                       l3711 12ED                       l3703 12AA  
                     l3449 1E92                       l2665 03B8                       l2657 039E  
                     l2649 037D                       l2593 01FB                       l2585 01E7  
                     l2569 01A4                       l2497 0085                       l2489 0070  
                     l2761 0958                       l2753 0941                       l2745 0928  
                     l2737 0908                       l2729 08E7                       l2681 0856  
                     l2673 0847                       l2921 0698                       l2913 0677  
                     l2905 0668                       l2841 040A                       l2833 03FB  
                     l2825 03E6                       l2817 03D3                       l3553 1519  
                     l3537 140B                       l3529 1026                       l3641 121F  
                     l3633 11DF                       l3625 11B3                       l3617 11AC  
                     l3609 1198                       l3721 1342                       l3713 12F8  
                     l3705 12B2                       l2667 03BE                       l2659 039F  
                     l2595 020A                       l2587 01F0                       l2579 01C4  
                     l2499 008B                       l2771 096D                       l2763 0959  
                     l2755 0949                       l2747 0929                       l2739 090C  
                     l2691 086E                       l2683 085E                       l2675 084B  
                     l2931 06D6                       l2923 06A6                       l2915 068B  
                     l2907 066E                       l2851 0426                       l2843 0412  
                     l2835 03FF                       l2827 03E8                       l2819 03D4  
                     l3555 1533                       l3539 1412                       l3547 148C  
                     l3571 15E9                       l3643 1226                       l3635 11E6  
                     l3619 11B1                       l3491 1C2A                       l3723 134D  
                     l3715 1312                       l3707 12B9                       l2589 01F2  
                     l2597 020F                       l2781 0992                       l2773 0971  
                     l2765 0962                       l2757 094B                       l2749 0937  
                     l2693 0874                       l2685 085F                       l2677 084C  
                     l2669 083A                       l2941 070A                       l2933 06E1  
                     l2925 06AA                       l2909 0672                       l2861 0469  
                     l2845 0414                       l2837 0400                       l2829 03F0  
                     l3557 153A                       l3581 177D                       l3573 164F  
                     l3645 122A                       l3637 11EA                       l3629 11CF  
                     l3485 1C1E                       l3493 1C12                       l3725 1358  
                     l3717 131D                       l3709 12E7                       l2599 0227  
                     l2791 09D0                       l2783 09A0                       l2775 0985  
                     l2759 0954                       l2767 0968                       l2695 0878  
                     l2679 0851                       l2687 0861                       l2943 070E  
                     l2935 06F0                       l2927 06C3                       l2919 0693  
                     l2871 04F2                       l2863 0485                       l2855 042F  
                     l2847 041C                       l2839 0405                       l2951 0726  
                     l3591 17E9                       l3583 178E                       l3575 16AC  
                     l3639 11EF                       l3647 1233                       l3487 1C24  
                     l3495 1C15                       l3719 1328                       l2793 09DE  
                     l2785 09A4                       l2769 096C                       l2697 0879  
                     l2689 0869                       l2945 070F                       l2937 06FA  
                     l2929 06C9                       l2881 0565                       l2873 0502  
                     l2865 04B1                       l2857 043F                       l2849 0421  
                     l2953 072B                       l3593 17F8                       l3585 179E  
                     l3577 1712                       l3569 15B1                       l3649 1245  
                     l3489 1C26                       l3497 1C19                       l2795 09ED  
                     l2787 09BD                       l2779 098D                       l2699 087E  
                     l2947 071A                       l2939 06FC                       l2891 0612  
                     l2883 0582                       l2875 051F                       l2867 04CD  
                     l2859 044C                       l2971 0775                       l2963 0758  
                     l2955 072F                       l3587 17B1                       l3579 176F  
                     l3595 116B                       l3499 1C1A                       l3691 125F  
                     l3683 124A                       l2797 09F1                       l2789 09C3  
                     l2893 063A                       l2885 05AF                       l2877 052F  
                     l2869 04E9                       l2981 07AC                       l2973 0783  
                     l2965 075D                       l2957 073F                       l3589 17BD  
                     l3597 1170                       l3693 1260                       l3685 1254  
                     l2799 09F9                       l2895 0643                       l2887 05BF  
                     l2879 054C                       l2991 07D6                       l2983 07B6  
                     l2975 0793                       l2967 076A                       l2959 074F  
                     l3599 1176                       l3695 1265                       l3687 1259  
                     l2897 0651                       l2889 05EC                       l2985 07CC  
                     l2977 079E                       l2969 0771                       l3697 126A  
                     l3689 125E                       l2899 065A                       l2987 07D1  
                     l2979 07A2                       l3699 1274                       l2989 07D5  
                     _ADFM 04FF                       ?_isr 0070                       _ADON 00F8  
                     _ANS0 0C40                       STR_1 0830                       _ANS1 0C41  
                     STR_2 0826                       _ANS2 0C42                       STR_3 081A  
                     _ANS3 0C43                       STR_4 0830                       STR_5 0820  
                     STR_6 0830                       STR_7 082C                       _T0IE 005D  
                     _T0IF 005A                       _T0CS 040D                       u3120 1E0F  
                     u4000 038D                       u3121 1E0B                       u4001 038C  
                     u3210 1E4B                       u4010 039E                       u3211 1E47  
                     u4011 039D                       u4020 03A3                       u4100 089E  
                     u3300 1C64                       u3205 1E3F                       u4021 03A2  
                     u4101 089D                       u3301 1C63                       u3150 1E23  
                     u3134 1E12                       u4030 03BE                       u4110 08BC  
                     u3230 1D2F                       u3310 1D00                       u3151 1E1F  
                     u4031 03BD                       u4111 08BB                       u3231 1D2E  
                     u3311 1CFF                       u3224 1E4E                       u4120 08F6  
                     u4040 084B                       u3400 1085                       u3145 1E17  
                     u4121 08F5                       u4041 084A                       u3401 1084  
                     u4210 0958                       u4050 0851                       u3250 1D43  
                     u3410 108C                       u4211 0957                       u4051 0850  
                     u3251 1D42                       u3411 108B                       u3180 1E37  
                     u3164 1E26                       u4300 09D0                       u4060 0856  
                     u3340 1D1A                       u3181 1E33                       u4301 09CF  
                     u4205 094D                       u4061 0855                       u3245 1D36  
                     u3341 1D19                       u3325 1D07                       u4310 09ED  
                     u4230 096C                       u4150 090C                       u4070 0878  
                     u3430 109D                       u3350 103F                       u3510 1E00  
                     u3175 1E2B                       u4311 09EC                       u4231 096B  
                     u4151 090B                       u4135 08F8                       u4071 0877  
                     u3431 109C                       u3351 103E                       u3335 1D0E  
                     u3511 1DFF                       u3600 0066                       u4320 0A04  
                     u4240 0971                       u4080 087E                       u4400 0426  
                     u3440 10A2                       u3360 1056                       u6000 1412  
                     u3520 1D8B                       u3601 0065                       u4321 0A03  
                     u4305 09CC                       u4241 0970                       u4225 095B  
                     u4145 0901                       u4081 087D                       u4401 0425  
                     u3441 10A1                       u3425 108F                       u6001 1411  
                     u3505 1DF4                       u3521 1D8A                       u3194 1E3A  
                     u3610 008B                       u4250 0985                       u4170 0928  
                     u4090 0883                       u4330 03D3                       u3370 106C  
                     u6010 153A                       u3450 1DC9                       u3611 008A  
                     u4315 09E9                       u4251 0984                       u4171 0927  
                     u4091 0882                       u4411 0477                       u4331 03D2  
                     u3371 106B                       u6011 1539                       u3451 1DC8  
                     u3700 0181                       u3620 009C                       u4260 098C  
                     u4180 0941                       u4412 047E                       u4340 03D9  
                     u3380 1073                       u6020 17AE                       u3540 1D9D  
                     u6100 11CE                       u3701 0180                       u3621 009B  
                     u4261 098B                       u4181 0940                       u4165 090F  
                     u4501 05A1                       u4421 0493                       u4413 0485  
                     u4341 03D8                       u3381 1072                       u3365 1051  
                     u6021 17AA                       u3541 1D9C                       u6101 11CD  
                     u3710 0192                       u3630 00A6                       u4270 0992  
                     u4190 0949                       u4502 05A8                       u4422 049A  
                     u4350 03DE                       u3470 1DDB                       u3550 1DA7  
                     u6110 11D9                       u3295 07E5                       u3711 0191  
                     u3631 00A5                       u4271 0991                       u4191 0948  
                     u4175 0924                       u4511 05CE                       u4503 05AF  
                     u4431 04BF                       u4423 04A1                       u4351 03DD  
                     u3471 1DDA                       u3551 1DA6                       u3535 1D8F  
                     u6111 11D8                       u3640 00AB                       u4280 09A4  
                     u4600 0672                       u4520 05F8                       u4512 05D5  
                     u4432 04C6                       u4360 03FF                       u6040 17BA  
                     u6120 11DF                       u3641 00AA                       u4281 09A3  
                     u4601 0671                       u4513 05DC                       u4441 04DB  
                     u4433 04CD                       u4361 03FE                       u6041 17B6  
                     u3465 1DCD                       u6121 11DE                       u6105 11CA  
                     u3810 0227                       u3730 01B0                       u3650 00CB  
                     u4290 09B3                       u4610 0677                       u4442 04E2  
                     u4370 0405                       u6034 17B1                       u3490 1DEC  
                     u3570 1DBA                       u6130 1233                       u3811 0226  
                     u3731 01AF                       u3651 00CA                       u4611 0676  
                     u4531 0604                       u4443 04E9                       u4371 0404  
                     u3395 1075                       u3491 1DEB                       u3571 1DB9  
                     u3555 1DA3                       u6131 1232                       _PEIE 005E  
                     u3900 0306                       u3740 01B4                       u3660 00CF  
                     u3580 0057                       u4620 068B                       u4540 0620  
                     u4532 060B                       u4380 040A                       u4700 072B  
                     u6060 17E9                       u6140 1245                       u6220 12B2  
                     u3901 0305                       u3821 0256                       u3813 0223  
                     u3805 01FF                       u3741 01B3                       u3725 0199  
                     u3661 00CE                       u3581 0056                       u4621 068A  
                     u4533 0612                       u4525 05F3                       u4461 0511  
                     u4381 0409                       u4701 072A                       u6061 17E8  
                     u3485 1DDC                       u3565 1DAE                       u6141 1244  
                     u6221 12B1                       u3910 030D                       u3830 0278  
                     u3822 0259                       u3750 01B9                       u3670 015B  
                     u3590 0061                       u4630 0692                       u4462 0518  
                     u4390 0421                       u4710 072F                       u6070 17F8  
                     u6054 17BD                       u3911 030C                       u3831 0279  
                     u3823 0260                       u3751 01B8                       u3671 015A  
                     u3591 0060                       u4295 09AE                       u4631 0691  
                     u4551 062C                       u4471 053E                       u4463 051F  
                     u4455 04EB                       u4391 0420                       u4711 072E  
                     u6071 17F7                       u3495 1DE8                       _RBIE 005B  
                     u3920 0314                       u3840 02A6                       u3832 027E  
                     u3824 0263                       u3680 0166                       u4640 0698  
                     u4552 0633                       u4472 0545                       u4800 07AC  
                     u4720 074F                       u6080 1176                       _RBIF 0058  
                     u3921 0313                       u3841 02A5                       u3833 027F  
                     u3825 026A                       u3761 01CF                       u3681 0164  
                     u4641 0697                       u4553 063A                       u4545 061B  
                     u4473 054C                       u4801 07AB                       u4721 074E  
                     u6065 17E5                       u6081 1175                       u3930 031A  
                     u3850 02CE                       u3826 026D                       u3770 01E1  
                     u3762 01D6                       u3690 0167                       u4650 06AA  
                     u4810 07C1                       u6090 11A8                       u3931 0319  
                     u3851 02CD                       u3771 01E0                       u3763 01DD  
                     u3675 0157                       u4651 06A9                       u4491 0574  
                     u6075 17F4                       u6091 11A7                       u3940 0325  
                     u3860 02D5                       u3780 01E7                       u4660 06B9  
                     u4580 065E                       u4492 057B                       u4820 07D1  
                     u4740 0770                       u3941 0324                       u3861 02D4  
                     u3781 01E6                       u4581 065D                       u4565 063C  
                     u4493 0582                       u4485 054E                       u4821 07D0  
                     u4741 076F                       u6237 1360                       u3950 032D  
                     u3790 01F8                       u4670 06D6                       u4830 07D5  
                     u6247 1E7E                       u3951 032C                       u3791 01F7  
                     u4671 06D5                       u4575 0653                       u4831 07D4  
                     u4815 07BC                       u4735 0762                       u3960 0341  
                     u3880 02F3                       u4680 06F0                       u4760 0792  
                     u6257 1E8E                       u3961 0340                       u3881 02F2  
                     u4681 06EF                       u4665 06B4                       u4761 0791  
                     u3970 035E                       u3890 02FC                       u4690 070E  
                     u6267 07FC                       u3891 02FB                       u3875 02E4  
                     u4691 070D                       u4675 06D2                       u4595 0661  
                     u4755 0784                       u3980 037D                       u4780 07A2  
                     u6277 1CCB                       u3981 037C                       u4685 06EC  
                     u4781 07A1                       u5910 1D82                       u3990 0388  
                     u4790 07A8                       u5911 1D81                       u3991 0387  
                     u3975 0359                       u4791 07A7                       u4775 0797  
                     u5920 1C7E                       u5921 1C7D                       u5980 102D  
                     u5981 102C                       u5990 1371                       u5991 1370  
                     _TMR0 0001                main@message 01B4               __CFG_WRT$OFF 0000  
            __CFG_FCMEN$ON 0000          pwm_calc@adc_value 01A7                       abs@a 00A0  
                     _main 124A              i1___flmul@grs 002E                       btemp 007E  
            __CFG_BOREN$ON 0000             i1___fladd@aexp 004B             i1___fladd@bexp 004C  
                     start 0010            ___fldiv@new_exp 00C6               lcd_cursor@on 00A4  
            __CFG_MCLRE$ON 0000                      ??_abs 00A2                      ??_isr 0065  
          __end_of_t0_init 1C2C                      _DC2B0 00EC                      _DC2B1 00ED  
            ___fltol@sign1 01A5                      _ADCS1 00FF            __end_of___fladd 03C2  
                    ?_main 0070            __end_of___fldiv 0A17                      _ANS10 0C4A  
                    _ANS12 0C4C              __CFG_WDTE$OFF 0000            __end_of___flmul 0723  
          __end_of___fltol 10AE                      _IOCB6 04B6            __end_of___lwdiv 1E05  
                    i1l150 1EE7                      i1l223 1F0C                      i1l152 1EFE  
                    i1l226 1F83                      i1l193 1C3A            __end_of___lwmod 1DBF  
                    i1l700 0B21                      i1l189 1CAD                      i1l702 0AF8  
                    i1l721 0C10                      i1l730 0C70                      i1l804 0FF3  
                    i1l717 0BEC                      i1l709 0C9E                      i1l830 10D0  
                    i1l727 0C32                      i1l832 1167                      i1l738 0C92  
                    i1l739 0C9E                      i1l843 1131                      i1l596 1FEA  
                    i1l844 113D                      i1l836 1115                      i1l853 1CE5  
                    i1l589 1FFF                      i1l855 1CF7                      i1l599 1FFF  
                    i1l696 0A7A                      i1l792 0FFF                      i1l798 0F6B  
                    _VCFG0 04FC                      _VCFG1 04FD                      _PORTB 0006  
                    _TRISC 0087                      _WPUB6 04AE                      _nRBPU 040F  
          __end_of_io_init 1009            __end_of_dpowers 081A             i1___flmul@aexp 0032  
           i1___flmul@bexp 0033             i1___flmul@sign 002D             i1___flmul@temp 0038  
           i1___flmul@prod 0034                      main@R 01BD               lcd_putchar@c 00A4  
                    pclath 000A             i1___fltol@exp1 0058            __end_of_pwm_set 1800  
                    status 0003                      wtemp0 007E            __end_of_sprintf 124A  
       __size_ofi1___fladd 0288            i1___fladd@signs 004A         __size_ofi1___flmul 0361  
       __size_ofi1___fltol 007C            __initialization 0013               __end_of_main 136A  
          ??_LCD_RS_SetLow 00A0                     ??_main 01B1                ?i1___xxtofl 0070  
          ??_LCD_RW_SetLow 00A0     __size_of_io_sw_pressed 000F                     _ADRESH 001E  
                   _ADRESL 009E                     _CCPR1L 0015                     _CCPR2L 001B  
                   i1l3001 1F9A                     i1l3011 1FBE                     i1l3003 1FAF  
                   i1l3101 0AB4                     i1l3005 1FB0                     i1l3111 0AC5  
                   i1l3103 0AB8                     i1l3031 0A17                     i1l3007 1FB8  
                   i1l3201 0C4A                     i1l3121 0B0B                     i1l3113 0ADC  
                   i1l3105 0ABC                     i1l3041 0A2E                     i1l3033 0A1E  
                   i1l3025 1FDF                     i1l3017 1FC6                     i1l3009 1FBA  
                   i1l3211 0C82                     i1l3203 0C4E                     i1l3131 0B2A  
                   i1l3123 0B0C                     i1l3115 0AFC                     i1l3107 0AC0  
                   i1l3051 0A46                     i1l3043 0A33                     i1l3035 0A24  
                   i1l3027 1FEF                     i1l3019 1FD8                     i1l3221 0C99  
                   i1l3213 0C87                     i1l3205 0C6C                     i1l3141 0B52  
                   i1l3125 0B15                     i1l3117 0B05                     i1l3109 0AC4  
                   i1l3061 0A5C                     i1l3053 0A4B                     i1l3045 0A3B  
                   i1l3037 0A28                     i1l3301 0E9C                     i1l3029 1FF4  
                   i1l3223 0C9D                     i1l3215 0C88                     i1l3207 0C75  
                   i1l3151 0B6B                     i1l3143 0B5B                     i1l3135 0B33  
                   i1l3119 0B07                     i1l3127 0B19                     i1l3071 0A70  
                   i1l3063 0A5D                     i1l3055 0A51                     i1l3047 0A3C  
                   i1l3039 0A29                     i1l2351 1CDB                     i1l3311 0F2E  
                   i1l3303 0EC9                     i1l3231 0CB0                     i1l3217 0C8C  
                   i1l3209 0C7A                     i1l3161 0BCF                     i1l3145 0B5D  
                   i1l3137 0B4A                     i1l3129 0B25                     i1l3153 0B70  
                   i1l3081 0A8C                     i1l3065 0A62                     i1l3073 0A72  
                   i1l3057 0A52                     i1l3049 0A3E                     i1l2353 1CDF  
                   i1l3313 0F37                     i1l3321 0F4B                     i1l3305 0EEF  
                   i1l3241 0CC5                     i1l3233 0CB1                     i1l3225 0C9F  
                   i1l3401 115A                     i1l3219 0C8E                     i1l3171 0C02  
                   i1l3155 0B86                     i1l3163 0BDE                     i1l3147 0B61  
                   i1l3139 0B4E                     i1l3091 0AA0                     i1l3083 0A90  
                   i1l3075 0A80                     i1l3067 0A67                     i1l3059 0A58  
                   i1l2355 1CEE                     i1l2347 1CD2                     i1l3323 0F4F  
                   i1l3315 0F3B                     i1l3307 0F17                     i1l3251 0CDD  
                   i1l3243 0CCD                     i1l3235 0CB6                     i1l3227 0CA6  
                   i1l3403 115E                     i1l3181 0C19                     i1l3173 0C0B  
                   i1l3165 0BF4                     i1l3157 0BC4                     i1l3149 0B62  
                   i1l3093 0AA4                     i1l3085 0A94                     i1l3077 0A84  
                   i1l3069 0A6F                     i1l2357 1CF3                     i1l2349 1CD4  
                   i1l3341 0FA0                     i1l3333 0F70                     i1l3325 0F50  
                   i1l3317 0F3C                     i1l3309 0F20                     i1l3261 0CF9  
                   i1l3253 0CE2                     i1l3245 0CD2                     i1l3237 0CBB  
                   i1l3229 0CAC                     i1l3405 115F                     i1l3191 0C29  
                   i1l3183 0C1E                     i1l3175 0C0F                     i1l3167 0BF9  
                   i1l3159 0BCA                     i1l3095 0AA8                     i1l3087 0A98  
                   i1l3079 0A88                     i1l3351 0FD7                     i1l3335 0F75  
                   i1l3343 0FA6                     i1l3327 0F54                     i1l3319 0F45  
                   i1l3271 0D1C                     i1l3263 0CFE                     i1l3255 0CE7  
                   i1l3247 0CD8                     i1l3239 0CC3                     i1l3193 0C2F  
                   i1l3177 0C14                     i1l3185 0C20                     i1l3097 0AAC  
                   i1l3089 0A9C                     i1l3361 0FF7                     i1l3353 0FD9  
                   i1l3345 0FB3                     i1l3337 0F83                     i1l3329 0F68  
                   i1l3281 0DAA                     i1l3273 0D29                     i1l3265 0D03  
                   i1l3257 0CEF                     i1l3249 0CDC                     i1l3179 0C17  
                   i1l3187 0C24                     i1l3099 0AB0                     i1l3355 0FE7  
                   i1l3347 0FBE                     i1l3339 0F87                     i1l3291 0E0C  
                   i1l3283 0DC6                     i1l3275 0D46                     i1l3259 0CF1  
                   i1l3371 10C8                     i1l3197 0C37                     i1l3189 0C25  
                   i1l3357 0FEB                     i1l3349 0FCD                     i1l3293 0E29  
                   i1l3285 0DCF                     i1l3277 0D62                     i1l3269 0D0C  
                   i1l3381 10F3                     i1l3373 10D8                     i1l3365 10AF  
                   i1l3461 1F7F                     i1l3199 0C3C                     i1l3359 0FEC  
                   i1l3295 0E42                     i1l3287 0DDF                     i1l3279 0D8E  
                   i1l3391 1127                     i1l3383 10FA                     i1l3367 10B4  
                   i1l3297 0E5F                     i1l3289 0DFC                     i1l3393 112B  
                   i1l3385 10FE                     i1l3377 10E1                     i1l3369 10B8  
                   i1l3457 1F09                     i1l3473 1C38                     i1l3465 1C2C  
                   i1l3481 1CA6                     i1l3299 0E8C                     i1l3395 1135  
                   i1l3387 110C                     i1l3379 10E6                     i1l3459 1F10  
                   i1l3467 1C32                     i1l3483 1CA7                     i1l3397 113F  
                   i1l3389 111C                     i1l3469 1C33                     i1l3477 1C8D  
                   i1l3661 1EB3                     i1l3399 1155                     i1l3479 1C9F  
                   i1l3671 1ED5                     i1l3663 1EC4                     i1l3681 1EFD  
                   i1l3673 1EE0                     i1l3665 1EC8                     i1l3657 1EAB  
                   i1l3675 1EEE                     i1l3659 1EAF                     i1l3667 1EC9  
                   i1l3677 1EF2                     i1l3669 1ECF                     i1l3679 1EF6  
                   i1l2995 1F84                     i1l2997 1F91                     u500_20 0A67  
                   u500_21 0A66                     u501_20 0A80                     u501_21 0A7F  
                   u510_20 0B25                     u502_20 0A84                     u326_20 1CDF  
                   u510_21 0B24                     u502_21 0A83                     u326_21 1CDE  
                   u511_20 0B2A                     u503_20 0ADC                     u511_21 0B29  
                   u503_21 0ADB                     u503_25 0AD8                     u327_25 1CE6  
                   u520_20 0BCF                     u504_20 0AE7                     u328_20 1CF3  
                   u520_21 0BCE                     u512_21 0B3C                     u504_21 0AE5  
                   u328_21 1CF2                     u512_22 0B43                     u512_23 0B4A  
                   u521_20 0BF4                     u513_20 0B4E                     u505_20 0AE8  
                   u521_21 0BF3                     u513_21 0B4D                     u530_20 0C36  
                   u522_20 0BF9                     u514_20 0B52                     u506_20 0AFC  
                   u530_21 0C35                     u522_21 0BF8                     u514_21 0B51  
                   u506_21 0AFB                     u531_20 0C3C                     u515_20 0B61  
                   u507_20 0B0B                     u531_21 0C3B                     u515_21 0B60  
                   u507_21 0B0A                     u523_25 0C04                     u532_20 0C4E  
                   u524_20 0C0F                     u540_20 0CB0                     u620_20 1EF2  
                   u532_21 0C4D                     u524_21 0C0E                     u540_21 0CAF  
                   u620_21 1EF1                     u516_25 0B64                     u508_25 0B0E  
                   u533_20 0C5D                     u525_20 0C14                     u517_20 0B86  
                   u509_20 0B21                     u541_20 0CB6                     u621_20 1EF6  
                   u525_21 0C13                     u517_21 0B85                     u509_21 0B20  
                   u541_21 0CB5                     u621_21 1EF5                     u517_23 0B82  
                   u533_25 0C58                     u534_20 0C6C                     u526_20 0C1E  
                   u542_20 0CBB                     u534_21 0C6B                     u526_21 0C1D  
                   u518_21 0B9D                     u550_21 0D9C                     u542_21 0CBA  
                   u518_22 0B9E                     u550_22 0DA3                     u518_23 0BA3  
                   u550_23 0DAA                     u518_24 0BA4                     u518_25 0BA9  
                   u518_26 0BAA                     u535_20 0C75                     u527_20 0C24  
                   u519_20 0BB1                     u543_20 0CDC                     u615_20 1EAF  
                   u535_21 0C74                     u527_21 0C23                     u519_21 0BB2  
                   u551_21 0DB8                     u543_21 0CDB                     u615_21 1EAE  
                   u519_22 0BB7                     u551_22 0DBF                     u519_23 0BB8  
                   u551_23 0DC6                     u536_20 0C7A                     u528_20 0C29  
                   u544_20 0CE2                     u616_20 1EB3                     u536_21 0C79  
                   u528_21 0C28                     u560_21 0EE1                     u544_21 0CE1  
                   u616_21 1EB2                     u560_22 0EE8                     u560_23 0EEF  
                   u552_25 0DC8                     u537_20 0C87                     u529_20 0C2F  
                   u561_20 0EFD                     u545_20 0CE7                     u617_20 1ECF  
                   u537_21 0C86                     u529_21 0C2E                     u553_21 0DEE  
                   u545_21 0CE6                     u617_21 1ECE                     u553_22 0DF5  
                   u553_23 0DFC                     u561_25 0EF8                     u538_20 0C8C  
                   u570_20 0F6F                     u546_20 0CFE                     u490_20 1FDE  
                   u618_20 1ED5                     u538_21 0C8B                     u570_21 0F6E  
                   u562_21 0F09                     u554_21 0E1B                     u546_21 0CFD  
                   u490_21 1FDD                     u618_21 1ED4                     u562_22 0F10  
                   u554_22 0E22                     u562_23 0F17                     u554_23 0E29  
                   u539_20 0C9D                     u571_20 0F75                     u547_20 0D03  
                   u619_20 1EE0                     u539_21 0C9C                     u571_21 0F74  
                   u547_21 0D02                     u619_21 1EDF                     u563_25 0F19  
                   u555_25 0E2B                     u491_25 1FE1                     u572_20 0F87  
                   u492_20 1FEF                     u484_20 1F91                     u572_21 0F86  
                   u556_21 0E51                     u548_21 0D54                     u492_21 1FEE  
                   u484_21 1F90                     u556_22 0E58                     u548_22 0D5B  
                   u556_23 0E5F                     u548_23 0D62                     u564_25 0F30  
                   u580_25 10EB                     u573_20 0F96                     u565_20 0F3B  
                   u493_20 1FF4                     u485_20 1FA8                     u581_20 10F9  
                   u565_21 0F3A                     u557_21 0E7E                     u549_21 0D70  
                   u493_21 1FF3                     u581_21 10F8                     u557_22 0E85  
                   u549_22 0D77                     u557_23 0E8C                     u549_23 0D7E  
                   u573_25 0F91                     u485_25 1FA3                     u494_20 0A28  
                   u574_20 0FB3                     u486_20 1FBE                     u590_20 115E  
                   u494_21 0A27                     u574_21 0FB2                     u558_21 0EAB  
                   u486_21 1FBD                     u590_21 115D                     u558_22 0EB2  
                   u558_23 0EB9                     u574_25 0FAF                     u566_25 0F3E  
                   u582_25 110D                     u495_20 0A2E                     u575_20 0FCD  
                   u567_20 0F4F                     u559_20 0ED5                     u487_20 1FC5  
                   u583_20 111B                     u495_21 0A2D                     u575_21 0FCC  
                   u567_21 0F4E                     u487_21 1FC4                     u583_21 111A  
                   u575_25 0FC9                     u559_25 0ED0                     u496_20 0A33  
                   u576_20 0FEB                     u568_20 0F54                     u496_21 0A32  
                   u576_21 0FEA                     u568_21 0F53                     u488_25 1FC7  
                   u584_25 1120                     u497_20 0A51                     u569_20 0F68  
                   u489_20 1FD7                     u585_20 112B                     u577_20 10B4  
                   u593_20 1F10                     u497_21 0A50                     u569_21 0F67  
                   u489_21 1FD6                     u585_21 112A                     u577_21 10B3  
                   u593_21 1F0F                     u498_20 0A5C                     u586_20 1131  
                   u578_20 10B8                     u594_20 1C32                     u498_21 0A5B  
                   u586_21 1130                     u578_21 10B7                     u594_21 1C31  
                   u499_20 0A62                     u587_20 1135                     u579_20 10D8  
                   u499_21 0A61                     u587_21 1134                     u579_21 10D7  
                   u595_25 1C90                     u588_20 114A                     u596_20 1C9F  
                   u596_21 1C9E                     u588_25 1145                     u589_20 115A  
                   u597_20 1CA6                     u589_21 1159                     u597_21 1CA5  
                   _TMR2IE 0461                     _TMR2IF 0061                     _TMR2ON 0092  
                   _TRISA0 0428                     _TRISB0 0430                     _TRISA2 042A  
                   _TRISA3 042B                     _TRISC1 0439                     _TRISC2 043A  
                   _TRISB6 0436           __end_of___xxtofl 07DF             __CFG_PWRTE$OFF 0000  
         __end_of_lcd_init 1EAB           __end_of_lcd_goto 1C5E                  ??_t0_init 00A0  
         __end_of_lcd_puts 1D83                  ??___fladd 0190                     ___wmul 1CF8  
                ??___fldiv 00BC                  ??___flmul 00D6                  ??___fltol 01A0  
 __end_of_lcd_write_nibble 1E53                  ??___lwdiv 00A4                  ??___lwmod 00AC  
        lcd_write_nibble@c 00A1       __size_of_lcd_putchar 0011          __end_ofi1___fladd 0C9F  
                ??_io_init 00A0          __end_ofi1___flmul 1000          __end_ofi1___fltol 2000  
       __size_of__Umul8_16 0029    pwm_set@absolute_pwm_dc1 01C3    pwm_set@absolute_pwm_dc2 01C1  
                   saved_w 007E            i1___fltol@sign1 0057           __end_of_pwm_calc 15B1  
         __end_of_pwm_init 1032                  ??_pwm_set 01AB                  ??_sprintf 00B1  
             ___xxtofl@arg 00B0               ___xxtofl@exp 00AF               ___xxtofl@val 00A6  
  __end_of__initialization 003A              _io_sw_pressed 1C2C        __size_ofi1___xxtofl 00BA  
               ___fltol@f1 019C               ?i1__Umul8_16 0070             __pcstackCOMMON 0070  
             __pidataBANK0 0833                 _adc_init_0 1CAE                 _adc_read_0 1F09  
         ??_LCD_RS_SetHigh 00A0       adc_read_0@ADC_result 0063             _OPTION_REGbits 0081  
       __size_of_lcd_write 0021                 __pbssBANK0 0068                 __pbssBANK3 01BF  
           ?_io_sw_pressed 0070             i1___xxtofl@arg 007A             i1___xxtofl@exp 0079  
           i1___xxtofl@val 0070          __end_of__Umul8_16 1D48                 __pmaintext 124A  
                  ?___wmul 00A0                 __pintentry 0004         __size_of_tmr2_init 000C  
                ?___xxtofl 00A6        i1__Umul8_16@product 0074                 _lcd_cursor 1C71  
                ?_lcd_init 0070                  ?_lcd_goto 0070                  ?_lcd_puts 00A4  
               __stringtab 0800             pwm_calc@radius 01BF            _pointer_pwm_dc1 006E  
          _pointer_pwm_dc2 006D                    _t0_init 1C1E                 _io_sw_read 1C8C  
                  ___fladd 003E                    ___fldiv 083A                ?_adc_init_0 0070  
              ?_adc_read_0 0059                  ?_pwm_calc 01A7                    ___flmul 03C2  
                  ___fltol 1032          __end_of_lcd_write 0800            __size_of___wmul 0027  
                ?_pwm_init 0070                    ___lwdiv 1DBF                    ___lwmod 1D83  
             ??i1___xxtofl 0074                    __ptext1 1C12                    __ptext2 1C1E  
                  __ptext3 1168                    __ptext4 1D83                    __ptext5 1DBF  
                  __ptext6 15B1                    __ptext7 1C5E                    __ptext8 1009  
                  __ptext9 136A                    _io_init 1001                    _dpowers 0810  
                _T2CONbits 0012               __size_of_abs 0013               __size_of_isr 005E  
               ??___xxtofl 00AA                    _pwm_dc1 006A                    _pwm_dc2 0068  
                  _pwm_set 15B1                    _sprintf 1168                 ??_lcd_init 00A4  
               ??_lcd_goto 00A4            ??_io_sw_pressed 0072                 ??_lcd_puts 00A6  
     end_of_initialization 003A          __end_of_tmr2_init 1C1E         __end_ofi1___xxtofl 1168  
     __size_ofi1__Umul8_16 0027                 ??_pwm_calc 01AB                 ??_pwm_init 00A0  
        ?_lcd_write_nibble 0070      i1__Umul8_16@word_mpld 0076      __end_of_LCD_RS_SetLow 1C0E  
       ??_lcd_write_nibble 00A0                ___fladd@grs 019B      __end_of_LCD_RW_SetLow 1C12  
            ___xxtofl@sign 00AE                ?_lcd_cursor 00A4                  i1___fladd 0A17  
                i1___flmul 0C9F                ___fldiv@grs 00C8                  i1___fltol 1F84  
              ___fldiv@rem 00C1        __size_of_adc_init_0 0023        __size_of_adc_read_0 007B  
           io_sw_read@port 0072                ___flmul@grs 00DC                _CCP1CONbits 0017  
              _CCP2CONbits 001D                 lcd_write@c 00A3                ?_io_sw_read 0070  
            ??_lcd_putchar 00A4             __end_of___wmul 1D1F              __pbitbssBANK0 0378  
      start_initialization 0013                __end_of_abs 1C71                 ?i1___fladd 003A  
              __end_of_isr 1F09                 ?i1___flmul 0020                 ?i1___fltol 004E  
      __size_of_lcd_cursor 001B                   ??___wmul 00A4                  __Umul8_16 1D1F  
              __pdataBANK0 006C                  ___fladd@a 00EC                  ___fladd@b 00E8  
                ___fldiv@a 00B4                  ___fldiv@b 00B8        __end_of_lcd_putchar 1C4C  
                ___flmul@a 00D2                  ___flmul@b 00CE                  ___latbits 0002  
            __pcstackBANK0 0020              __pcstackBANK1 00A0              __pcstackBANK3 0190  
        __size_of___xxtofl 00BC        __size_of_io_sw_read 0022            i1___xxtofl@sign 0078  
        __size_of_lcd_init 0058          __size_of_lcd_goto 0012                sprintf@flag 00B5  
        __size_of_lcd_puts 003B                sprintf@prec 00B6           ___lwdiv@dividend 00A2  
                 ?_t0_init 0070   i1__Umul8_16@multiplicand 0070                   ?___fladd 00E8  
             ??_adc_init_0 00A0               ??_adc_read_0 005B                   ?___fldiv 00B4  
                 ?___flmul 00CE                   ?___fltol 019C                 ?__Umul8_16 00A0  
                 ?___lwdiv 00A0                   ?___lwmod 00A8          __size_of_pwm_calc 0247  
                __pstrings 0800          __size_of_pwm_init 0029                  _lcd_write 07DF  
                 ?_io_init 0070                ??i1___fladd 0042                ??i1___flmul 0028  
              ??i1___fltol 0052           ___lwdiv@quotient 00A5                   ?_pwm_set 01A7  
                 ?_sprintf 00AE             pwm_set@pwm_dc1 01A7             pwm_set@pwm_dc2 01A9  
  __size_of_LCD_RS_SetHigh 0004         __end_of_adc_init_0 1CD1         __end_of_adc_read_0 1F84  
        interrupt_function 0004             ___wmul@product 00A4                  _tmr2_init 1C12  
                _swPressed 0378                _lcd_putchar 1C3B                 _ADCON0bits 001F  
              __stringbase 080F                 ?_lcd_write 0070          ___wmul@multiplier 00A0  
                lcd_puts@s 00A4               ??_lcd_cursor 00A6  __size_of_lcd_write_nibble 004E  
    __end_of_io_sw_pressed 1C3B            pwm_calc@pwm_dc1 01A9            pwm_calc@pwm_dc2 01AA  
            ??i1__Umul8_16 0072                 ?_tmr2_init 0070                 pwm_set@n_1 01C7  
               pwm_set@n_2 01C5               ??_io_sw_read 0070                 _ADC_result 01C9  
         __size_of_t0_init 000E         __end_of_lcd_cursor 1C8C                ??__Umul8_16 00A2  
         __size_of___fladd 0384           __size_of___fldiv 01DD           __size_of___flmul 0361  
         __size_of___fltol 007C           __size_of___lwdiv 0046           __size_of___lwmod 003C  
       __end_of__stringtab 0810                 sprintf@val 00B7                   ___xxtofl 0723  
         __size_of_io_init 0008            ___lwdiv@divisor 00A0            ___lwdiv@counter 00A7  
                 __ptext10 0723                   __ptext11 1CF8                   __ptext20 1E53  
                 __ptext12 1032                   __ptext21 1C0E                   __ptext13 03C2  
                 __ptext30 1C8C                   __ptext22 1C4C                   __ptext14 1D1F  
                 __ptext31 1C2C                   __ptext23 1C71                   __ptext15 083A  
                 __ptext32 1F09                   __ptext24 07DF                   __ptext16 003E  
                 __ptext33 10AE                   __ptext25 1E05                   __ptext17 1D48  
                 __ptext34 1F84                   __ptext26 1C0A                   __ptext18 1C3B  
                 __ptext35 0C9F                   __ptext27 1001                   __ptext19 0836  
                 __ptext36 1CD1                   __ptext28 1CAE                   __ptext37 0A17  
                 __ptext29 1EAB          __CFG_BOR4V$BOR40V 0000                   _lcd_init 1E53  
                 _lcd_goto 1C4C           __size_of_pwm_set 024F                   _lcd_puts 1D48  
         __size_of_sprintf 00E2         __end_of_io_sw_read 1CAE              __size_of_main 0120  
   __size_of_LCD_RS_SetLow 0004     __size_of_LCD_RW_SetLow 0004                   _pwm_calc 136A  
                 _pwm_init 1009        __end_ofi1__Umul8_16 1CF8                ??_lcd_write 00A2  
               _INTCONbits 000B             _LCD_RS_SetHigh 0836                   intlevel1 0000  
                sprintf@ap 00B4                  sprintf@sp 00B9     i1__Umul8_16@multiplier 0078  
         ___lwmod@dividend 00AA                ??_tmr2_init 00A0                  stringcode 080A  
   __Umul8_16@multiplicand 00A0              _LCD_RS_SetLow 1C0A                   sprintf@c 00BA  
                 sprintf@f 00AE            ___lwmod@divisor 00A8            ___lwmod@counter 00AD  
            _LCD_RW_SetLow 1C0E                   stringdir 080A                   stringtab 0800  
   __end_of_LCD_RS_SetHigh 083A           _lcd_write_nibble 1E05              ___fladd@signs 0198  
             ___fladd@aexp 0199               ___fladd@bexp 019A       __Umul8_16@multiplier 00A8  
              i1__Umul8_16 1CD1               _pwm_set$1085 01AD          __Umul8_16@product 00A4  
